
calendar:     file format elf32-i386


Disassembly of section .init:

00001094 <__entry>:
    1094:	66 8c d0             	mov    %ss,%ax
    1097:	8e d8                	mov    %eax,%ds
    1099:	8e c0                	mov    %eax,%es
    109b:	8e e0                	mov    %eax,%fs
    109d:	b8 01 00 00 00       	mov    $0x1,%eax
    10a2:	0f a2                	cpuid  
    10a4:	0f ba e2 0b          	bt     $0xb,%edx
    10a8:	73 0c                	jae    10b6 <__entry+0x22>
    10aa:	8d 05 d4 3a 03 00    	lea    0x33ad4,%eax
    10b0:	c7 00 47 36 02 00    	movl   $0x23647,(%eax)
    10b6:	6a 00                	push   $0x0
    10b8:	89 e5                	mov    %esp,%ebp
    10ba:	57                   	push   %edi
    10bb:	e8 e0 7c 00 00       	call   8da0 <__main>

Disassembly of section .text:

000010c0 <x_label_destroy>:
    10c0:	55                   	push   %ebp
    10c1:	89 e5                	mov    %esp,%ebp
    10c3:	53                   	push   %ebx
    10c4:	83 ec 14             	sub    $0x14,%esp
    10c7:	8b 5d 08             	mov    0x8(%ebp),%ebx
    10ca:	89 1c 24             	mov    %ebx,(%esp)
    10cd:	e8 be 3b 00 00       	call   4c90 <deinit_label>
    10d2:	89 5d 08             	mov    %ebx,0x8(%ebp)
    10d5:	83 c4 14             	add    $0x14,%esp
    10d8:	5b                   	pop    %ebx
    10d9:	5d                   	pop    %ebp
    10da:	e9 11 7d 01 00       	jmp    18df0 <free>
    10df:	90                   	nop

000010e0 <create_x_label.constprop.0>:
    10e0:	55                   	push   %ebp
    10e1:	89 e5                	mov    %esp,%ebp
    10e3:	56                   	push   %esi
    10e4:	53                   	push   %ebx
    10e5:	89 c6                	mov    %eax,%esi
    10e7:	83 ec 20             	sub    $0x20,%esp
    10ea:	c7 04 24 38 01 00 00 	movl   $0x138,(%esp)
    10f1:	e8 ea 7b 01 00       	call   18ce0 <malloc>
    10f6:	89 c3                	mov    %eax,%ebx
    10f8:	85 c0                	test   %eax,%eax
    10fa:	74 37                	je     1133 <create_x_label.constprop.0+0x53>
    10fc:	c7 44 24 14 00 00 00 	movl   $0xff000000,0x14(%esp)
    1103:	ff 
    1104:	c7 44 24 10 f0 f0 f0 	movl   $0xfff0f0f0,0x10(%esp)
    110b:	ff 
    110c:	c7 44 24 0c 10 00 00 	movl   $0x10,0xc(%esp)
    1113:	00 
    1114:	89 74 24 08          	mov    %esi,0x8(%esp)
    1118:	c7 44 24 04 00 00 00 	movl   $0x0,0x4(%esp)
    111f:	00 
    1120:	89 04 24             	mov    %eax,(%esp)
    1123:	e8 a8 3b 00 00       	call   4cd0 <init_label>
    1128:	c7 43 40 c0 10 00 00 	movl   $0x10c0,0x40(%ebx)
    112f:	84 c0                	test   %al,%al
    1131:	74 09                	je     113c <create_x_label.constprop.0+0x5c>
    1133:	83 c4 20             	add    $0x20,%esp
    1136:	89 d8                	mov    %ebx,%eax
    1138:	5b                   	pop    %ebx
    1139:	5e                   	pop    %esi
    113a:	5d                   	pop    %ebp
    113b:	c3                   	ret    
    113c:	89 1c 24             	mov    %ebx,(%esp)
    113f:	31 db                	xor    %ebx,%ebx
    1141:	e8 aa 7c 01 00       	call   18df0 <free>
    1146:	eb eb                	jmp    1133 <create_x_label.constprop.0+0x53>
    1148:	66 90                	xchg   %ax,%ax
    114a:	66 90                	xchg   %ax,%ax
    114c:	66 90                	xchg   %ax,%ax
    114e:	66 90                	xchg   %ax,%ax

00001150 <main>:
    1150:	55                   	push   %ebp
    1151:	89 e5                	mov    %esp,%ebp
    1153:	57                   	push   %edi
    1154:	56                   	push   %esi
    1155:	53                   	push   %ebx
    1156:	83 e4 f0             	and    $0xfffffff0,%esp
    1159:	83 ec 50             	sub    $0x50,%esp
    115c:	c7 44 24 04 77 63 02 	movl   $0x26377,0x4(%esp)
    1163:	00 
    1164:	c7 04 24 f2 57 02 00 	movl   $0x257f2,(%esp)
    116b:	e8 d0 09 01 00       	call   11b40 <fopen>
    1170:	8d 5c 24 44          	lea    0x44(%esp),%ebx
    1174:	89 c6                	mov    %eax,%esi
    1176:	85 c0                	test   %eax,%eax
    1178:	0f 84 22 0f 00 00    	je     20a0 <main+0xf50>
    117e:	66 90                	xchg   %ax,%ax
    1180:	89 74 24 08          	mov    %esi,0x8(%esp)
    1184:	c7 44 24 04 0a 00 00 	movl   $0xa,0x4(%esp)
    118b:	00 
    118c:	89 1c 24             	mov    %ebx,(%esp)
    118f:	e8 fc 12 01 00       	call   12490 <fgets>
    1194:	85 c0                	test   %eax,%eax
    1196:	0f 84 d4 00 00 00    	je     1270 <main+0x120>
    119c:	a1 14 3b 03 00       	mov    0x33b14,%eax
    11a1:	85 c0                	test   %eax,%eax
    11a3:	75 4b                	jne    11f0 <main+0xa0>
    11a5:	0f be 54 24 44       	movsbl 0x44(%esp),%edx
    11aa:	8d 42 d0             	lea    -0x30(%edx),%eax
    11ad:	83 f8 09             	cmp    $0x9,%eax
    11b0:	0f 87 dd 06 00 00    	ja     1893 <main+0x743>
    11b6:	89 d9                	mov    %ebx,%ecx
    11b8:	31 c0                	xor    %eax,%eax
    11ba:	8d b6 00 00 00 00    	lea    0x0(%esi),%esi
    11c0:	41                   	inc    %ecx
    11c1:	8d 04 80             	lea    (%eax,%eax,4),%eax
    11c4:	8d 44 42 d0          	lea    -0x30(%edx,%eax,2),%eax
    11c8:	0f be 11             	movsbl (%ecx),%edx
    11cb:	8d 7a d0             	lea    -0x30(%edx),%edi
    11ce:	83 ff 09             	cmp    $0x9,%edi
    11d1:	76 ed                	jbe    11c0 <main+0x70>
    11d3:	a3 20 3b 03 00       	mov    %eax,0x33b20
    11d8:	c7 05 14 3b 03 00 01 	movl   $0x1,0x33b14
    11df:	00 00 00 
    11e2:	a3 10 3b 03 00       	mov    %eax,0x33b10
    11e7:	eb 97                	jmp    1180 <main+0x30>
    11e9:	8d b4 26 00 00 00 00 	lea    0x0(%esi,%eiz,1),%esi
    11f0:	83 f8 01             	cmp    $0x1,%eax
    11f3:	74 3b                	je     1230 <main+0xe0>
    11f5:	83 f8 02             	cmp    $0x2,%eax
    11f8:	75 86                	jne    1180 <main+0x30>
    11fa:	0f be 44 24 44       	movsbl 0x44(%esp),%eax
    11ff:	8d 50 d0             	lea    -0x30(%eax),%edx
    1202:	83 fa 09             	cmp    $0x9,%edx
    1205:	0f 87 49 0b 00 00    	ja     1d54 <main+0xc04>
    120b:	89 d9                	mov    %ebx,%ecx
    120d:	31 d2                	xor    %edx,%edx
    120f:	90                   	nop
    1210:	41                   	inc    %ecx
    1211:	8d 14 92             	lea    (%edx,%edx,4),%edx
    1214:	8d 54 50 d0          	lea    -0x30(%eax,%edx,2),%edx
    1218:	0f be 01             	movsbl (%ecx),%eax
    121b:	8d 78 d0             	lea    -0x30(%eax),%edi
    121e:	83 ff 09             	cmp    $0x9,%edi
    1221:	76 ed                	jbe    1210 <main+0xc0>
    1223:	89 15 18 3b 03 00    	mov    %edx,0x33b18
    1229:	e9 52 ff ff ff       	jmp    1180 <main+0x30>
    122e:	66 90                	xchg   %ax,%ax
    1230:	0f be 44 24 44       	movsbl 0x44(%esp),%eax
    1235:	8d 50 d0             	lea    -0x30(%eax),%edx
    1238:	83 fa 09             	cmp    $0x9,%edx
    123b:	0f 87 eb 0a 00 00    	ja     1d2c <main+0xbdc>
    1241:	89 d9                	mov    %ebx,%ecx
    1243:	31 d2                	xor    %edx,%edx
    1245:	8d 76 00             	lea    0x0(%esi),%esi
    1248:	41                   	inc    %ecx
    1249:	8d 14 92             	lea    (%edx,%edx,4),%edx
    124c:	8d 54 50 d0          	lea    -0x30(%eax,%edx,2),%edx
    1250:	0f be 01             	movsbl (%ecx),%eax
    1253:	8d 78 d0             	lea    -0x30(%eax),%edi
    1256:	83 ff 09             	cmp    $0x9,%edi
    1259:	76 ed                	jbe    1248 <main+0xf8>
    125b:	89 15 1c 3b 03 00    	mov    %edx,0x33b1c
    1261:	c7 05 14 3b 03 00 02 	movl   $0x2,0x33b14
    1268:	00 00 00 
    126b:	e9 10 ff ff ff       	jmp    1180 <main+0x30>
    1270:	89 34 24             	mov    %esi,(%esp)
    1273:	e8 b8 0b 01 00       	call   11e30 <fclose>
    1278:	a1 18 3b 03 00       	mov    0x33b18,%eax
    127d:	89 c2                	mov    %eax,%edx
    127f:	89 44 24 3c          	mov    %eax,0x3c(%esp)
    1283:	4a                   	dec    %edx
    1284:	31 c0                	xor    %eax,%eax
    1286:	66 90                	xchg   %ax,%ax
    1288:	81 fa 8f 01 00 00    	cmp    $0x18f,%edx
    128e:	0f 8e cc 00 00 00    	jle    1360 <main+0x210>
    1294:	81 ea 90 01 00 00    	sub    $0x190,%edx
    129a:	75 ec                	jne    1288 <main+0x138>
    129c:	c7 44 24 30 01 00 00 	movl   $0x1,0x30(%esp)
    12a3:	00 
    12a4:	31 c9                	xor    %ecx,%ecx
    12a6:	8b 44 24 3c          	mov    0x3c(%esp),%eax
    12aa:	be 90 01 00 00       	mov    $0x190,%esi
    12af:	89 c2                	mov    %eax,%edx
    12b1:	c1 fa 1f             	sar    $0x1f,%edx
    12b4:	f7 fe                	idiv   %esi
    12b6:	89 d3                	mov    %edx,%ebx
    12b8:	85 d2                	test   %edx,%edx
    12ba:	0f 84 ee 00 00 00    	je     13ae <main+0x25e>
    12c0:	8b 44 24 3c          	mov    0x3c(%esp),%eax
    12c4:	be 64 00 00 00       	mov    $0x64,%esi
    12c9:	89 c2                	mov    %eax,%edx
    12cb:	c1 fa 1f             	sar    $0x1f,%edx
    12ce:	f7 fe                	idiv   %esi
    12d0:	85 d2                	test   %edx,%edx
    12d2:	0f 85 cb 00 00 00    	jne    13a3 <main+0x253>
    12d8:	8b 35 1c 3b 03 00    	mov    0x33b1c,%esi
    12de:	a1 20 3b 03 00       	mov    0x33b20,%eax
    12e3:	83 fe 01             	cmp    $0x1,%esi
    12e6:	74 20                	je     1308 <main+0x1b8>
    12e8:	83 fe 02             	cmp    $0x2,%esi
    12eb:	0f 84 b7 05 00 00    	je     18a8 <main+0x758>
    12f1:	83 fe 03             	cmp    $0x3,%esi
    12f4:	0f 85 d5 0a 00 00    	jne    1dcf <main+0xc7f>
    12fa:	a1 20 3b 03 00       	mov    0x33b20,%eax
    12ff:	83 c0 3b             	add    $0x3b,%eax
    1302:	8d b6 00 00 00 00    	lea    0x0(%esi),%esi
    1308:	89 c2                	mov    %eax,%edx
    130a:	bb 07 00 00 00       	mov    $0x7,%ebx
    130f:	c1 fa 1f             	sar    $0x1f,%edx
    1312:	f7 fb                	idiv   %ebx
    1314:	8d 04 11             	lea    (%ecx,%edx,1),%eax
    1317:	89 c2                	mov    %eax,%edx
    1319:	c1 fa 1f             	sar    $0x1f,%edx
    131c:	f7 fb                	idiv   %ebx
    131e:	89 54 24 38          	mov    %edx,0x38(%esp)
    1322:	8b 44 24 3c          	mov    0x3c(%esp),%eax
    1326:	b9 64 00 00 00       	mov    $0x64,%ecx
    132b:	89 c2                	mov    %eax,%edx
    132d:	c1 fa 1f             	sar    $0x1f,%edx
    1330:	f7 f9                	idiv   %ecx
    1332:	85 d2                	test   %edx,%edx
    1334:	74 0b                	je     1341 <main+0x1f1>
    1336:	f6 44 24 3c 03       	testb  $0x3,0x3c(%esp)
    133b:	0f 84 c2 00 00 00    	je     1403 <main+0x2b3>
    1341:	83 7c 24 30 06       	cmpl   $0x6,0x30(%esp)
    1346:	0f 86 4e 05 00 00    	jbe    189a <main+0x74a>
    134c:	c7 04 24 00 58 02 00 	movl   $0x25800,(%esp)
    1353:	31 db                	xor    %ebx,%ebx
    1355:	e8 16 21 01 00       	call   13470 <puts>
    135a:	e9 c1 00 00 00       	jmp    1420 <main+0x2d0>
    135f:	90                   	nop
    1360:	83 fa 63             	cmp    $0x63,%edx
    1363:	7e 0b                	jle    1370 <main+0x220>
    1365:	83 ea 64             	sub    $0x64,%edx
    1368:	83 c0 05             	add    $0x5,%eax
    136b:	e9 18 ff ff ff       	jmp    1288 <main+0x138>
    1370:	89 d3                	mov    %edx,%ebx
    1372:	c1 fb 1f             	sar    $0x1f,%ebx
    1375:	c1 eb 1e             	shr    $0x1e,%ebx
    1378:	01 d3                	add    %edx,%ebx
    137a:	c1 fb 02             	sar    $0x2,%ebx
    137d:	8d 0c 1a             	lea    (%edx,%ebx,1),%ecx
    1380:	bb 07 00 00 00       	mov    $0x7,%ebx
    1385:	01 c8                	add    %ecx,%eax
    1387:	89 c2                	mov    %eax,%edx
    1389:	c1 fa 1f             	sar    $0x1f,%edx
    138c:	f7 fb                	idiv   %ebx
    138e:	89 d1                	mov    %edx,%ecx
    1390:	8d 42 01             	lea    0x1(%edx),%eax
    1393:	89 c2                	mov    %eax,%edx
    1395:	c1 fa 1f             	sar    $0x1f,%edx
    1398:	f7 fb                	idiv   %ebx
    139a:	89 54 24 30          	mov    %edx,0x30(%esp)
    139e:	e9 03 ff ff ff       	jmp    12a6 <main+0x156>
    13a3:	f6 44 24 3c 03       	testb  $0x3,0x3c(%esp)
    13a8:	0f 85 2a ff ff ff    	jne    12d8 <main+0x188>
    13ae:	8b 35 1c 3b 03 00    	mov    0x33b1c,%esi
    13b4:	a1 20 3b 03 00       	mov    0x33b20,%eax
    13b9:	83 fe 01             	cmp    $0x1,%esi
    13bc:	74 22                	je     13e0 <main+0x290>
    13be:	83 fe 02             	cmp    $0x2,%esi
    13c1:	0f 84 55 09 00 00    	je     1d1c <main+0xbcc>
    13c7:	83 fe 03             	cmp    $0x3,%esi
    13ca:	0f 85 e5 04 00 00    	jne    18b5 <main+0x765>
    13d0:	8b 3d 20 3b 03 00    	mov    0x33b20,%edi
    13d6:	83 c7 3c             	add    $0x3c,%edi
    13d9:	89 f8                	mov    %edi,%eax
    13db:	90                   	nop
    13dc:	8d 74 26 00          	lea    0x0(%esi,%eiz,1),%esi
    13e0:	89 c2                	mov    %eax,%edx
    13e2:	bf 07 00 00 00       	mov    $0x7,%edi
    13e7:	c1 fa 1f             	sar    $0x1f,%edx
    13ea:	f7 ff                	idiv   %edi
    13ec:	89 d0                	mov    %edx,%eax
    13ee:	01 c8                	add    %ecx,%eax
    13f0:	89 c2                	mov    %eax,%edx
    13f2:	c1 fa 1f             	sar    $0x1f,%edx
    13f5:	f7 ff                	idiv   %edi
    13f7:	89 54 24 38          	mov    %edx,0x38(%esp)
    13fb:	85 db                	test   %ebx,%ebx
    13fd:	0f 85 1f ff ff ff    	jne    1322 <main+0x1d2>
    1403:	83 7c 24 30 06       	cmpl   $0x6,0x30(%esp)
    1408:	0f 86 77 04 00 00    	jbe    1885 <main+0x735>
    140e:	c7 04 24 00 58 02 00 	movl   $0x25800,(%esp)
    1415:	31 db                	xor    %ebx,%ebx
    1417:	e8 54 20 01 00       	call   13470 <puts>
    141c:	8d 74 26 00          	lea    0x0(%esi,%eiz,1),%esi
    1420:	c7 04 24 0a 00 00 00 	movl   $0xa,(%esp)
    1427:	e8 b4 78 01 00       	call   18ce0 <malloc>
    142c:	89 5c 24 0c          	mov    %ebx,0xc(%esp)
    1430:	c7 44 24 08 de 68 02 	movl   $0x268de,0x8(%esp)
    1437:	00 
    1438:	c7 44 24 04 08 00 00 	movl   $0x8,0x4(%esp)
    143f:	00 
    1440:	89 04 24             	mov    %eax,(%esp)
    1443:	89 44 24 34          	mov    %eax,0x34(%esp)
    1447:	e8 f4 28 01 00       	call   13d40 <snprintf>
    144c:	8b 44 24 38          	mov    0x38(%esp),%eax
    1450:	85 c0                	test   %eax,%eax
    1452:	0f 84 92 08 00 00    	je     1cea <main+0xb9a>
    1458:	83 7c 24 38 01       	cmpl   $0x1,0x38(%esp)
    145d:	0f 84 d0 08 00 00    	je     1d33 <main+0xbe3>
    1463:	83 7c 24 38 02       	cmpl   $0x2,0x38(%esp)
    1468:	0f 84 ed 08 00 00    	je     1d5b <main+0xc0b>
    146e:	83 7c 24 38 03       	cmpl   $0x3,0x38(%esp)
    1473:	0f 84 14 09 00 00    	je     1d8d <main+0xc3d>
    1479:	83 7c 24 38 04       	cmpl   $0x4,0x38(%esp)
    147e:	0f 84 2a 09 00 00    	je     1dae <main+0xc5e>
    1484:	83 7c 24 38 05       	cmpl   $0x5,0x38(%esp)
    1489:	0f 84 56 09 00 00    	je     1de5 <main+0xc95>
    148f:	83 7c 24 38 06       	cmpl   $0x6,0x38(%esp)
    1494:	0f 84 6c 09 00 00    	je     1e06 <main+0xcb6>
    149a:	83 7d 08 01          	cmpl   $0x1,0x8(%ebp)
    149e:	0f 8e 67 08 00 00    	jle    1d0b <main+0xbbb>
    14a4:	8b 45 0c             	mov    0xc(%ebp),%eax
    14a7:	c7 44 24 14 f0 00 00 	movl   $0xf0,0x14(%esp)
    14ae:	00 
    14af:	c7 44 24 10 ff 00 00 	movl   $0xff,0x10(%esp)
    14b6:	00 
    14b7:	c7 44 24 0c 53 58 02 	movl   $0x25853,0xc(%esp)
    14be:	00 
    14bf:	c7 44 24 08 01 00 00 	movl   $0x1,0x8(%esp)
    14c6:	00 
    14c7:	c7 44 24 04 01 00 00 	movl   $0x1,0x4(%esp)
    14ce:	00 
    14cf:	8b 40 04             	mov    0x4(%eax),%eax
    14d2:	89 04 24             	mov    %eax,(%esp)
    14d5:	e8 d6 4b 00 00       	call   60b0 <window_open>
    14da:	89 44 24 3c          	mov    %eax,0x3c(%esp)
    14de:	85 c0                	test   %eax,%eax
    14e0:	0f 84 96 08 00 00    	je     1d7c <main+0xc2c>
    14e6:	c7 04 24 78 58 02 00 	movl   $0x25878,(%esp)
    14ed:	e8 9e d3 00 00       	call   e890 <str_dup>
    14f2:	c7 04 24 08 00 00 00 	movl   $0x8,(%esp)
    14f9:	89 44 24 38          	mov    %eax,0x38(%esp)
    14fd:	e8 de 77 01 00       	call   18ce0 <malloc>
    1502:	c7 04 24 08 00 00 00 	movl   $0x8,(%esp)
    1509:	89 c3                	mov    %eax,%ebx
    150b:	e8 d0 77 01 00       	call   18ce0 <malloc>
    1510:	c7 04 24 08 00 00 00 	movl   $0x8,(%esp)
    1517:	89 c7                	mov    %eax,%edi
    1519:	e8 c2 77 01 00       	call   18ce0 <malloc>
    151e:	89 c6                	mov    %eax,%esi
    1520:	a1 18 3b 03 00       	mov    0x33b18,%eax
    1525:	89 44 24 0c          	mov    %eax,0xc(%esp)
    1529:	a1 1c 3b 03 00       	mov    0x33b1c,%eax
    152e:	89 44 24 08          	mov    %eax,0x8(%esp)
    1532:	a1 20 3b 03 00       	mov    0x33b20,%eax
    1537:	89 44 24 04          	mov    %eax,0x4(%esp)
    153b:	c7 04 24 7a 58 02 00 	movl   $0x2587a,(%esp)
    1542:	e8 59 25 01 00       	call   13aa0 <printf>
    1547:	a1 10 3b 03 00       	mov    0x33b10,%eax
    154c:	89 44 24 0c          	mov    %eax,0xc(%esp)
    1550:	c7 44 24 08 de 68 02 	movl   $0x268de,0x8(%esp)
    1557:	00 
    1558:	c7 44 24 04 19 00 00 	movl   $0x19,0x4(%esp)
    155f:	00 
    1560:	89 1c 24             	mov    %ebx,(%esp)
    1563:	e8 d8 27 01 00       	call   13d40 <snprintf>
    1568:	a1 1c 3b 03 00       	mov    0x33b1c,%eax
    156d:	89 3c 24             	mov    %edi,(%esp)
    1570:	89 44 24 0c          	mov    %eax,0xc(%esp)
    1574:	c7 44 24 08 de 68 02 	movl   $0x268de,0x8(%esp)
    157b:	00 
    157c:	c7 44 24 04 09 00 00 	movl   $0x9,0x4(%esp)
    1583:	00 
    1584:	e8 b7 27 01 00       	call   13d40 <snprintf>
    1589:	89 7c 24 04          	mov    %edi,0x4(%esp)
    158d:	c7 04 24 8c 58 02 00 	movl   $0x2588c,(%esp)
    1594:	e8 07 25 01 00       	call   13aa0 <printf>
    1599:	a1 18 3b 03 00       	mov    0x33b18,%eax
    159e:	89 34 24             	mov    %esi,(%esp)
    15a1:	89 44 24 0c          	mov    %eax,0xc(%esp)
    15a5:	c7 44 24 08 de 68 02 	movl   $0x268de,0x8(%esp)
    15ac:	00 
    15ad:	c7 44 24 04 09 00 00 	movl   $0x9,0x4(%esp)
    15b4:	00 
    15b5:	e8 86 27 01 00       	call   13d40 <snprintf>
    15ba:	89 74 24 04          	mov    %esi,0x4(%esp)
    15be:	c7 04 24 98 58 02 00 	movl   $0x25898,(%esp)
    15c5:	e8 d6 24 01 00       	call   13aa0 <printf>
    15ca:	8b 44 24 38          	mov    0x38(%esp),%eax
    15ce:	89 44 24 08          	mov    %eax,0x8(%esp)
    15d2:	c7 44 24 04 09 00 00 	movl   $0x9,0x4(%esp)
    15d9:	00 
    15da:	89 1c 24             	mov    %ebx,(%esp)
    15dd:	e8 de c2 00 00       	call   d8c0 <str_append>
    15e2:	89 5c 24 04          	mov    %ebx,0x4(%esp)
    15e6:	c7 04 24 a1 58 02 00 	movl   $0x258a1,(%esp)
    15ed:	e8 ae 24 01 00       	call   13aa0 <printf>
    15f2:	89 7c 24 08          	mov    %edi,0x8(%esp)
    15f6:	c7 44 24 04 09 00 00 	movl   $0x9,0x4(%esp)
    15fd:	00 
    15fe:	89 1c 24             	mov    %ebx,(%esp)
    1601:	e8 ba c2 00 00       	call   d8c0 <str_append>
    1606:	89 5c 24 04          	mov    %ebx,0x4(%esp)
    160a:	c7 04 24 a1 58 02 00 	movl   $0x258a1,(%esp)
    1611:	e8 8a 24 01 00       	call   13aa0 <printf>
    1616:	8b 44 24 38          	mov    0x38(%esp),%eax
    161a:	89 44 24 08          	mov    %eax,0x8(%esp)
    161e:	c7 44 24 04 09 00 00 	movl   $0x9,0x4(%esp)
    1625:	00 
    1626:	89 1c 24             	mov    %ebx,(%esp)
    1629:	e8 92 c2 00 00       	call   d8c0 <str_append>
    162e:	89 74 24 08          	mov    %esi,0x8(%esp)
    1632:	c7 44 24 04 0c 00 00 	movl   $0xc,0x4(%esp)
    1639:	00 
    163a:	89 1c 24             	mov    %ebx,(%esp)
    163d:	e8 7e c2 00 00       	call   d8c0 <str_append>
    1642:	89 5c 24 04          	mov    %ebx,0x4(%esp)
    1646:	c7 04 24 a1 58 02 00 	movl   $0x258a1,(%esp)
    164d:	e8 4e 24 01 00       	call   13aa0 <printf>
    1652:	89 5c 24 04          	mov    %ebx,0x4(%esp)
    1656:	c7 04 24 a7 58 02 00 	movl   $0x258a7,(%esp)
    165d:	e8 3e 24 01 00       	call   13aa0 <printf>
    1662:	8b 44 24 3c          	mov    0x3c(%esp),%eax
    1666:	89 04 24             	mov    %eax,(%esp)
    1669:	e8 f2 4c 00 00       	call   6360 <window_root>
    166e:	c7 44 24 0c f0 f0 f0 	movl   $0xfff0f0f0,0xc(%esp)
    1675:	ff 
    1676:	c7 44 24 08 06 00 00 	movl   $0x6,0x8(%esp)
    167d:	00 
    167e:	c7 44 24 04 06 00 00 	movl   $0x6,0x4(%esp)
    1685:	00 
    1686:	89 04 24             	mov    %eax,(%esp)
    1689:	e8 72 32 00 00       	call   4900 <create_grid>
    168e:	89 c6                	mov    %eax,%esi
    1690:	b8 ab 58 02 00       	mov    $0x258ab,%eax
    1695:	e8 46 fa ff ff       	call   10e0 <create_x_label.constprop.0>
    169a:	89 44 24 38          	mov    %eax,0x38(%esp)
    169e:	b8 b2 58 02 00       	mov    $0x258b2,%eax
    16a3:	e8 38 fa ff ff       	call   10e0 <create_x_label.constprop.0>
    16a8:	89 c7                	mov    %eax,%edi
    16aa:	b8 bf 58 02 00       	mov    $0x258bf,%eax
    16af:	e8 2c fa ff ff       	call   10e0 <create_x_label.constprop.0>
    16b4:	89 44 24 2c          	mov    %eax,0x2c(%esp)
    16b8:	8d 44 24 44          	lea    0x44(%esp),%eax
    16bc:	e8 1f fa ff ff       	call   10e0 <create_x_label.constprop.0>
    16c1:	89 44 24 30          	mov    %eax,0x30(%esp)
    16c5:	8b 44 24 34          	mov    0x34(%esp),%eax
    16c9:	e8 12 fa ff ff       	call   10e0 <create_x_label.constprop.0>
    16ce:	89 44 24 34          	mov    %eax,0x34(%esp)
    16d2:	89 d8                	mov    %ebx,%eax
    16d4:	e8 07 fa ff ff       	call   10e0 <create_x_label.constprop.0>
    16d9:	85 ff                	test   %edi,%edi
    16db:	0f 84 ec 05 00 00    	je     1ccd <main+0xb7d>
    16e1:	83 7c 24 38 00       	cmpl   $0x0,0x38(%esp)
    16e6:	0f 84 e1 05 00 00    	je     1ccd <main+0xb7d>
    16ec:	83 7c 24 30 00       	cmpl   $0x0,0x30(%esp)
    16f1:	0f 84 d6 05 00 00    	je     1ccd <main+0xb7d>
    16f7:	83 7c 24 2c 00       	cmpl   $0x0,0x2c(%esp)
    16fc:	0f 84 cb 05 00 00    	je     1ccd <main+0xb7d>
    1702:	85 c0                	test   %eax,%eax
    1704:	0f 84 c3 05 00 00    	je     1ccd <main+0xb7d>
    170a:	83 7c 24 34 00       	cmpl   $0x0,0x34(%esp)
    170f:	0f 84 b8 05 00 00    	je     1ccd <main+0xb7d>
    1715:	85 f6                	test   %esi,%esi
    1717:	0f 84 b0 05 00 00    	je     1ccd <main+0xb7d>
    171d:	8b 54 24 38          	mov    0x38(%esp),%edx
    1721:	89 44 24 28          	mov    %eax,0x28(%esp)
    1725:	89 54 24 04          	mov    %edx,0x4(%esp)
    1729:	c7 44 24 14 02 00 00 	movl   $0x2,0x14(%esp)
    1730:	00 
    1731:	c7 44 24 10 01 00 00 	movl   $0x1,0x10(%esp)
    1738:	00 
    1739:	c7 44 24 0c 01 00 00 	movl   $0x1,0xc(%esp)
    1740:	00 
    1741:	c7 44 24 08 01 00 00 	movl   $0x1,0x8(%esp)
    1748:	00 
    1749:	89 34 24             	mov    %esi,(%esp)
    174c:	ff 56 68             	call   *0x68(%esi)
    174f:	c7 44 24 14 02 00 00 	movl   $0x2,0x14(%esp)
    1756:	00 
    1757:	c7 44 24 10 01 00 00 	movl   $0x1,0x10(%esp)
    175e:	00 
    175f:	c7 44 24 0c 01 00 00 	movl   $0x1,0xc(%esp)
    1766:	00 
    1767:	c7 44 24 08 02 00 00 	movl   $0x2,0x8(%esp)
    176e:	00 
    176f:	89 7c 24 04          	mov    %edi,0x4(%esp)
    1773:	89 34 24             	mov    %esi,(%esp)
    1776:	ff 56 68             	call   *0x68(%esi)
    1779:	8b 4c 24 2c          	mov    0x2c(%esp),%ecx
    177d:	89 4c 24 04          	mov    %ecx,0x4(%esp)
    1781:	c7 44 24 14 02 00 00 	movl   $0x2,0x14(%esp)
    1788:	00 
    1789:	c7 44 24 10 01 00 00 	movl   $0x1,0x10(%esp)
    1790:	00 
    1791:	c7 44 24 0c 01 00 00 	movl   $0x1,0xc(%esp)
    1798:	00 
    1799:	c7 44 24 08 03 00 00 	movl   $0x3,0x8(%esp)
    17a0:	00 
    17a1:	89 34 24             	mov    %esi,(%esp)
    17a4:	ff 56 68             	call   *0x68(%esi)
    17a7:	8b 44 24 28          	mov    0x28(%esp),%eax
    17ab:	89 44 24 04          	mov    %eax,0x4(%esp)
    17af:	c7 44 24 14 02 00 00 	movl   $0x2,0x14(%esp)
    17b6:	00 
    17b7:	c7 44 24 10 01 00 00 	movl   $0x1,0x10(%esp)
    17be:	00 
    17bf:	c7 44 24 0c 03 00 00 	movl   $0x3,0xc(%esp)
    17c6:	00 
    17c7:	c7 44 24 08 01 00 00 	movl   $0x1,0x8(%esp)
    17ce:	00 
    17cf:	89 34 24             	mov    %esi,(%esp)
    17d2:	ff 56 68             	call   *0x68(%esi)
    17d5:	8b 44 24 30          	mov    0x30(%esp),%eax
    17d9:	89 44 24 04          	mov    %eax,0x4(%esp)
    17dd:	c7 44 24 14 02 00 00 	movl   $0x2,0x14(%esp)
    17e4:	00 
    17e5:	c7 44 24 10 01 00 00 	movl   $0x1,0x10(%esp)
    17ec:	00 
    17ed:	c7 44 24 0c 03 00 00 	movl   $0x3,0xc(%esp)
    17f4:	00 
    17f5:	c7 44 24 08 02 00 00 	movl   $0x2,0x8(%esp)
    17fc:	00 
    17fd:	89 34 24             	mov    %esi,(%esp)
    1800:	ff 56 68             	call   *0x68(%esi)
    1803:	8b 44 24 34          	mov    0x34(%esp),%eax
    1807:	89 44 24 04          	mov    %eax,0x4(%esp)
    180b:	c7 44 24 14 02 00 00 	movl   $0x2,0x14(%esp)
    1812:	00 
    1813:	c7 44 24 10 01 00 00 	movl   $0x1,0x10(%esp)
    181a:	00 
    181b:	c7 44 24 0c 03 00 00 	movl   $0x3,0xc(%esp)
    1822:	00 
    1823:	c7 44 24 08 03 00 00 	movl   $0x3,0x8(%esp)
    182a:	00 
    182b:	89 34 24             	mov    %esi,(%esp)
    182e:	ff 56 68             	call   *0x68(%esi)
    1831:	8b 44 24 3c          	mov    0x3c(%esp),%eax
    1835:	89 04 24             	mov    %eax,(%esp)
    1838:	c7 44 24 08 f4 01 00 	movl   $0x1f4,0x8(%esp)
    183f:	00 
    1840:	c7 44 24 04 f4 01 00 	movl   $0x1f4,0x4(%esp)
    1847:	00 
    1848:	e8 33 4a 00 00       	call   6280 <window_resize>
    184d:	8b 44 24 3c          	mov    0x3c(%esp),%eax
    1851:	89 04 24             	mov    %eax,(%esp)
    1854:	e8 17 4b 00 00       	call   6370 <window_exec>
    1859:	c7 04 24 00 00 00 00 	movl   $0x0,(%esp)
    1860:	e8 fb fb 00 00       	call   11460 <task_retval>
    1865:	c7 04 24 01 00 00 00 	movl   $0x1,(%esp)
    186c:	e8 cf da 00 00       	call   f340 <fibril_switch>
    1871:	8d b4 26 00 00 00 00 	lea    0x0(%esi,%eiz,1),%esi
    1878:	8d 65 f4             	lea    -0xc(%ebp),%esp
    187b:	b8 01 00 00 00       	mov    $0x1,%eax
    1880:	5b                   	pop    %ebx
    1881:	5e                   	pop    %esi
    1882:	5f                   	pop    %edi
    1883:	5d                   	pop    %ebp
    1884:	c3                   	ret    
    1885:	8b 54 24 30          	mov    0x30(%esp),%edx
    1889:	83 fe 01             	cmp    $0x1,%esi
    188c:	ff 24 95 2c 59 02 00 	jmp    *0x2592c(,%edx,4)
    1893:	31 c0                	xor    %eax,%eax
    1895:	e9 39 f9 ff ff       	jmp    11d3 <main+0x83>
    189a:	8b 54 24 30          	mov    0x30(%esp),%edx
    189e:	83 fe 01             	cmp    $0x1,%esi
    18a1:	ff 24 95 48 59 02 00 	jmp    *0x25948(,%edx,4)
    18a8:	a1 20 3b 03 00       	mov    0x33b20,%eax
    18ad:	83 c0 1f             	add    $0x1f,%eax
    18b0:	e9 53 fa ff ff       	jmp    1308 <main+0x1b8>
    18b5:	83 fe 04             	cmp    $0x4,%esi
    18b8:	0f 85 1b 13 00 00    	jne    2bd9 <main+0x1a89>
    18be:	8b 3d 20 3b 03 00    	mov    0x33b20,%edi
    18c4:	83 c7 5b             	add    $0x5b,%edi
    18c7:	89 f8                	mov    %edi,%eax
    18c9:	e9 12 fb ff ff       	jmp    13e0 <main+0x290>
    18ce:	0f 84 c9 08 00 00    	je     219d <main+0x104d>
    18d4:	83 fe 02             	cmp    $0x2,%esi
    18d7:	0f 84 4a 05 00 00    	je     1e27 <main+0xcd7>
    18dd:	83 fe 03             	cmp    $0x3,%esi
    18e0:	0f 85 96 21 00 00    	jne    3a7c <main+0x292c>
    18e6:	a1 20 3b 03 00       	mov    0x33b20,%eax
    18eb:	b9 07 00 00 00       	mov    $0x7,%ecx
    18f0:	83 c0 3c             	add    $0x3c,%eax
    18f3:	89 c2                	mov    %eax,%edx
    18f5:	a3 20 3b 03 00       	mov    %eax,0x33b20
    18fa:	c1 fa 1f             	sar    $0x1f,%edx
    18fd:	f7 f9                	idiv   %ecx
    18ff:	83 fa 04             	cmp    $0x4,%edx
    1902:	8d 58 02             	lea    0x2(%eax),%ebx
    1905:	0f 84 15 fb ff ff    	je     1420 <main+0x2d0>
    190b:	8d 58 02             	lea    0x2(%eax),%ebx
    190e:	83 fa 05             	cmp    $0x5,%edx
    1911:	0f 84 09 fb ff ff    	je     1420 <main+0x2d0>
    1917:	8d 58 01             	lea    0x1(%eax),%ebx
    191a:	83 fa 06             	cmp    $0x6,%edx
    191d:	0f 85 fd fa ff ff    	jne    1420 <main+0x2d0>
    1923:	8d 58 02             	lea    0x2(%eax),%ebx
    1926:	e9 f5 fa ff ff       	jmp    1420 <main+0x2d0>
    192b:	0f 84 04 08 00 00    	je     2135 <main+0xfe5>
    1931:	83 fe 02             	cmp    $0x2,%esi
    1934:	0f 84 04 06 00 00    	je     1f3e <main+0xdee>
    193a:	83 fe 03             	cmp    $0x3,%esi
    193d:	0f 85 f5 08 00 00    	jne    2238 <main+0x10e8>
    1943:	a1 20 3b 03 00       	mov    0x33b20,%eax
    1948:	b9 07 00 00 00       	mov    $0x7,%ecx
    194d:	83 c0 3c             	add    $0x3c,%eax
    1950:	89 c2                	mov    %eax,%edx
    1952:	a3 20 3b 03 00       	mov    %eax,0x33b20
    1957:	c1 fa 1f             	sar    $0x1f,%edx
    195a:	f7 f9                	idiv   %ecx
    195c:	83 fa 05             	cmp    $0x5,%edx
    195f:	8d 58 02             	lea    0x2(%eax),%ebx
    1962:	0f 84 b8 fa ff ff    	je     1420 <main+0x2d0>
    1968:	8d 58 01             	lea    0x1(%eax),%ebx
    196b:	83 fa 06             	cmp    $0x6,%edx
    196e:	0f 85 ac fa ff ff    	jne    1420 <main+0x2d0>
    1974:	8d 58 02             	lea    0x2(%eax),%ebx
    1977:	e9 a4 fa ff ff       	jmp    1420 <main+0x2d0>
    197c:	0f 84 e4 07 00 00    	je     2166 <main+0x1016>
    1982:	83 fe 02             	cmp    $0x2,%esi
    1985:	0f 84 58 05 00 00    	je     1ee3 <main+0xd93>
    198b:	83 fe 03             	cmp    $0x3,%esi
    198e:	0f 85 44 09 00 00    	jne    22d8 <main+0x1188>
    1994:	8b 3d 20 3b 03 00    	mov    0x33b20,%edi
    199a:	b9 07 00 00 00       	mov    $0x7,%ecx
    199f:	8d 77 3c             	lea    0x3c(%edi),%esi
    19a2:	89 f2                	mov    %esi,%edx
    19a4:	89 f0                	mov    %esi,%eax
    19a6:	c1 fa 1f             	sar    $0x1f,%edx
    19a9:	f7 f9                	idiv   %ecx
    19ab:	83 fa 06             	cmp    $0x6,%edx
    19ae:	0f 84 e8 0b 00 00    	je     259c <main+0x144c>
    19b4:	89 35 20 3b 03 00    	mov    %esi,0x33b20
    19ba:	8d 58 01             	lea    0x1(%eax),%ebx
    19bd:	e9 5e fa ff ff       	jmp    1420 <main+0x2d0>
    19c2:	0f 84 0e 07 00 00    	je     20d6 <main+0xf86>
    19c8:	83 fe 02             	cmp    $0x2,%esi
    19cb:	0f 84 f1 04 00 00    	je     1ec2 <main+0xd72>
    19d1:	83 fe 03             	cmp    $0x3,%esi
    19d4:	0f 85 d4 08 00 00    	jne    22ae <main+0x115e>
    19da:	a1 20 3b 03 00       	mov    0x33b20,%eax
    19df:	b9 07 00 00 00       	mov    $0x7,%ecx
    19e4:	83 c0 3c             	add    $0x3c,%eax
    19e7:	89 c2                	mov    %eax,%edx
    19e9:	a3 20 3b 03 00       	mov    %eax,0x33b20
    19ee:	c1 fa 1f             	sar    $0x1f,%edx
    19f1:	f7 f9                	idiv   %ecx
    19f3:	8d 58 01             	lea    0x1(%eax),%ebx
    19f6:	e9 25 fa ff ff       	jmp    1420 <main+0x2d0>
    19fb:	0f 84 b0 06 00 00    	je     20b1 <main+0xf61>
    1a01:	83 fe 02             	cmp    $0x2,%esi
    1a04:	0f 84 07 05 00 00    	je     1f11 <main+0xdc1>
    1a0a:	83 fe 03             	cmp    $0x3,%esi
    1a0d:	0f 85 fc 08 00 00    	jne    230f <main+0x11bf>
    1a13:	a1 20 3b 03 00       	mov    0x33b20,%eax
    1a18:	b9 07 00 00 00       	mov    $0x7,%ecx
    1a1d:	83 c0 3c             	add    $0x3c,%eax
    1a20:	89 c2                	mov    %eax,%edx
    1a22:	a3 20 3b 03 00       	mov    %eax,0x33b20
    1a27:	c1 fa 1f             	sar    $0x1f,%edx
    1a2a:	f7 f9                	idiv   %ecx
    1a2c:	83 fa 01             	cmp    $0x1,%edx
    1a2f:	8d 58 02             	lea    0x2(%eax),%ebx
    1a32:	0f 87 e8 f9 ff ff    	ja     1420 <main+0x2d0>
    1a38:	8d 58 01             	lea    0x1(%eax),%ebx
    1a3b:	e9 e0 f9 ff ff       	jmp    1420 <main+0x2d0>
    1a40:	0f 84 a9 06 00 00    	je     20ef <main+0xf9f>
    1a46:	83 fe 02             	cmp    $0x2,%esi
    1a49:	0f 84 1d 04 00 00    	je     1e6c <main+0xd1c>
    1a4f:	83 fe 03             	cmp    $0x3,%esi
    1a52:	0f 85 7d 09 00 00    	jne    23d5 <main+0x1285>
    1a58:	a1 20 3b 03 00       	mov    0x33b20,%eax
    1a5d:	b9 07 00 00 00       	mov    $0x7,%ecx
    1a62:	83 c0 3c             	add    $0x3c,%eax
    1a65:	89 c2                	mov    %eax,%edx
    1a67:	a3 20 3b 03 00       	mov    %eax,0x33b20
    1a6c:	c1 fa 1f             	sar    $0x1f,%edx
    1a6f:	f7 f9                	idiv   %ecx
    1a71:	85 d2                	test   %edx,%edx
    1a73:	8d 58 01             	lea    0x1(%eax),%ebx
    1a76:	0f 85 a4 f9 ff ff    	jne    1420 <main+0x2d0>
    1a7c:	89 c3                	mov    %eax,%ebx
    1a7e:	e9 9d f9 ff ff       	jmp    1420 <main+0x2d0>
    1a83:	0f 84 89 06 00 00    	je     2112 <main+0xfc2>
    1a89:	83 fe 02             	cmp    $0x2,%esi
    1a8c:	0f 84 05 04 00 00    	je     1e97 <main+0xd47>
    1a92:	83 fe 03             	cmp    $0x3,%esi
    1a95:	0f 85 df 07 00 00    	jne    227a <main+0x112a>
    1a9b:	a1 20 3b 03 00       	mov    0x33b20,%eax
    1aa0:	b9 07 00 00 00       	mov    $0x7,%ecx
    1aa5:	83 c0 3c             	add    $0x3c,%eax
    1aa8:	89 c2                	mov    %eax,%edx
    1aaa:	a3 20 3b 03 00       	mov    %eax,0x33b20
    1aaf:	c1 fa 1f             	sar    $0x1f,%edx
    1ab2:	f7 f9                	idiv   %ecx
    1ab4:	4a                   	dec    %edx
    1ab5:	8d 58 02             	lea    0x2(%eax),%ebx
    1ab8:	0f 85 62 f9 ff ff    	jne    1420 <main+0x2d0>
    1abe:	8d 58 01             	lea    0x1(%eax),%ebx
    1ac1:	e9 5a f9 ff ff       	jmp    1420 <main+0x2d0>
    1ac6:	0f 84 42 05 00 00    	je     200e <main+0xebe>
    1acc:	83 fe 02             	cmp    $0x2,%esi
    1acf:	0f 84 e8 09 00 00    	je     24bd <main+0x136d>
    1ad5:	83 fe 03             	cmp    $0x3,%esi
    1ad8:	0f 85 b0 17 00 00    	jne    328e <main+0x213e>
    1ade:	a1 20 3b 03 00       	mov    0x33b20,%eax
    1ae3:	b9 07 00 00 00       	mov    $0x7,%ecx
    1ae8:	83 c0 3b             	add    $0x3b,%eax
    1aeb:	89 c2                	mov    %eax,%edx
    1aed:	a3 20 3b 03 00       	mov    %eax,0x33b20
    1af2:	c1 fa 1f             	sar    $0x1f,%edx
    1af5:	f7 f9                	idiv   %ecx
    1af7:	83 fa 01             	cmp    $0x1,%edx
    1afa:	8d 58 02             	lea    0x2(%eax),%ebx
    1afd:	0f 87 1d f9 ff ff    	ja     1420 <main+0x2d0>
    1b03:	8d 58 01             	lea    0x1(%eax),%ebx
    1b06:	e9 15 f9 ff ff       	jmp    1420 <main+0x2d0>
    1b0b:	0f 84 66 04 00 00    	je     1f77 <main+0xe27>
    1b11:	83 fe 02             	cmp    $0x2,%esi
    1b14:	0f 84 d0 09 00 00    	je     24ea <main+0x139a>
    1b1a:	83 fe 03             	cmp    $0x3,%esi
    1b1d:	0f 85 64 08 00 00    	jne    2387 <main+0x1237>
    1b23:	a1 20 3b 03 00       	mov    0x33b20,%eax
    1b28:	b9 07 00 00 00       	mov    $0x7,%ecx
    1b2d:	83 c0 3b             	add    $0x3b,%eax
    1b30:	89 c2                	mov    %eax,%edx
    1b32:	a3 20 3b 03 00       	mov    %eax,0x33b20
    1b37:	c1 fa 1f             	sar    $0x1f,%edx
    1b3a:	f7 f9                	idiv   %ecx
    1b3c:	83 fa 04             	cmp    $0x4,%edx
    1b3f:	8d 58 02             	lea    0x2(%eax),%ebx
    1b42:	0f 84 d8 f8 ff ff    	je     1420 <main+0x2d0>
    1b48:	8d 58 02             	lea    0x2(%eax),%ebx
    1b4b:	83 fa 05             	cmp    $0x5,%edx
    1b4e:	0f 84 cc f8 ff ff    	je     1420 <main+0x2d0>
    1b54:	8d 58 01             	lea    0x1(%eax),%ebx
    1b57:	83 fa 06             	cmp    $0x6,%edx
    1b5a:	0f 85 c0 f8 ff ff    	jne    1420 <main+0x2d0>
    1b60:	8d 58 02             	lea    0x2(%eax),%ebx
    1b63:	e9 b8 f8 ff ff       	jmp    1420 <main+0x2d0>
    1b68:	0f 84 c5 04 00 00    	je     2033 <main+0xee3>
    1b6e:	83 fe 02             	cmp    $0x2,%esi
    1b71:	0f 84 b8 09 00 00    	je     252f <main+0x13df>
    1b77:	83 fe 03             	cmp    $0x3,%esi
    1b7a:	0f 85 c5 07 00 00    	jne    2345 <main+0x11f5>
    1b80:	a1 20 3b 03 00       	mov    0x33b20,%eax
    1b85:	b9 07 00 00 00       	mov    $0x7,%ecx
    1b8a:	83 c0 3b             	add    $0x3b,%eax
    1b8d:	89 c2                	mov    %eax,%edx
    1b8f:	a3 20 3b 03 00       	mov    %eax,0x33b20
    1b94:	c1 fa 1f             	sar    $0x1f,%edx
    1b97:	f7 f9                	idiv   %ecx
    1b99:	83 fa 05             	cmp    $0x5,%edx
    1b9c:	8d 58 02             	lea    0x2(%eax),%ebx
    1b9f:	0f 84 7b f8 ff ff    	je     1420 <main+0x2d0>
    1ba5:	8d 58 01             	lea    0x1(%eax),%ebx
    1ba8:	83 fa 06             	cmp    $0x6,%edx
    1bab:	0f 85 6f f8 ff ff    	jne    1420 <main+0x2d0>
    1bb1:	8d 58 02             	lea    0x2(%eax),%ebx
    1bb4:	e9 67 f8 ff ff       	jmp    1420 <main+0x2d0>
    1bb9:	0f 84 18 04 00 00    	je     1fd7 <main+0xe87>
    1bbf:	83 fe 02             	cmp    $0x2,%esi
    1bc2:	0f 84 6c 08 00 00    	je     2434 <main+0x12e4>
    1bc8:	83 fe 03             	cmp    $0x3,%esi
    1bcb:	0f 85 c2 19 00 00    	jne    3593 <main+0x2443>
    1bd1:	8b 35 20 3b 03 00    	mov    0x33b20,%esi
    1bd7:	b9 07 00 00 00       	mov    $0x7,%ecx
    1bdc:	8d 46 3b             	lea    0x3b(%esi),%eax
    1bdf:	89 c2                	mov    %eax,%edx
    1be1:	a3 20 3b 03 00       	mov    %eax,0x33b20
    1be6:	c1 fa 1f             	sar    $0x1f,%edx
    1be9:	f7 f9                	idiv   %ecx
    1beb:	83 fa 06             	cmp    $0x6,%edx
    1bee:	8d 58 01             	lea    0x1(%eax),%ebx
    1bf1:	0f 85 29 f8 ff ff    	jne    1420 <main+0x2d0>
    1bf7:	8d 46 3c             	lea    0x3c(%esi),%eax
    1bfa:	89 c2                	mov    %eax,%edx
    1bfc:	a3 20 3b 03 00       	mov    %eax,0x33b20
    1c01:	c1 fa 1f             	sar    $0x1f,%edx
    1c04:	f7 f9                	idiv   %ecx
    1c06:	8d 58 01             	lea    0x1(%eax),%ebx
    1c09:	e9 12 f8 ff ff       	jmp    1420 <main+0x2d0>
    1c0e:	0f 84 50 04 00 00    	je     2064 <main+0xf14>
    1c14:	83 fe 02             	cmp    $0x2,%esi
    1c17:	0f 84 54 08 00 00    	je     2471 <main+0x1321>
    1c1d:	83 fe 03             	cmp    $0x3,%esi
    1c20:	0f 85 e8 05 00 00    	jne    220e <main+0x10be>
    1c26:	a1 20 3b 03 00       	mov    0x33b20,%eax
    1c2b:	b9 07 00 00 00       	mov    $0x7,%ecx
    1c30:	83 c0 3b             	add    $0x3b,%eax
    1c33:	89 c2                	mov    %eax,%edx
    1c35:	a3 20 3b 03 00       	mov    %eax,0x33b20
    1c3a:	c1 fa 1f             	sar    $0x1f,%edx
    1c3d:	f7 f9                	idiv   %ecx
    1c3f:	8d 58 01             	lea    0x1(%eax),%ebx
    1c42:	e9 d9 f7 ff ff       	jmp    1420 <main+0x2d0>
    1c47:	0f 84 30 04 00 00    	je     207d <main+0xf2d>
    1c4d:	83 fe 02             	cmp    $0x2,%esi
    1c50:	0f 84 b3 07 00 00    	je     2409 <main+0x12b9>
    1c56:	83 fe 03             	cmp    $0x3,%esi
    1c59:	0f 85 7b 05 00 00    	jne    21da <main+0x108a>
    1c5f:	a1 20 3b 03 00       	mov    0x33b20,%eax
    1c64:	b9 07 00 00 00       	mov    $0x7,%ecx
    1c69:	83 c0 3b             	add    $0x3b,%eax
    1c6c:	89 c2                	mov    %eax,%edx
    1c6e:	a3 20 3b 03 00       	mov    %eax,0x33b20
    1c73:	c1 fa 1f             	sar    $0x1f,%edx
    1c76:	f7 f9                	idiv   %ecx
    1c78:	85 d2                	test   %edx,%edx
    1c7a:	8d 58 01             	lea    0x1(%eax),%ebx
    1c7d:	0f 85 9d f7 ff ff    	jne    1420 <main+0x2d0>
    1c83:	89 c3                	mov    %eax,%ebx
    1c85:	e9 96 f7 ff ff       	jmp    1420 <main+0x2d0>
    1c8a:	0f 84 24 03 00 00    	je     1fb4 <main+0xe64>
    1c90:	83 fe 02             	cmp    $0x2,%esi
    1c93:	0f 84 f9 07 00 00    	je     2492 <main+0x1342>
    1c99:	83 fe 03             	cmp    $0x3,%esi
    1c9c:	0f 85 91 0f 00 00    	jne    2c33 <main+0x1ae3>
    1ca2:	a1 20 3b 03 00       	mov    0x33b20,%eax
    1ca7:	b9 07 00 00 00       	mov    $0x7,%ecx
    1cac:	83 c0 3b             	add    $0x3b,%eax
    1caf:	89 c2                	mov    %eax,%edx
    1cb1:	a3 20 3b 03 00       	mov    %eax,0x33b20
    1cb6:	c1 fa 1f             	sar    $0x1f,%edx
    1cb9:	f7 f9                	idiv   %ecx
    1cbb:	4a                   	dec    %edx
    1cbc:	8d 58 02             	lea    0x2(%eax),%ebx
    1cbf:	0f 85 5b f7 ff ff    	jne    1420 <main+0x2d0>
    1cc5:	8d 58 01             	lea    0x1(%eax),%ebx
    1cc8:	e9 53 f7 ff ff       	jmp    1420 <main+0x2d0>
    1ccd:	8b 44 24 3c          	mov    0x3c(%esp),%eax
    1cd1:	89 04 24             	mov    %eax,(%esp)
    1cd4:	e8 47 47 00 00       	call   6420 <window_close>
    1cd9:	c7 04 24 cd 58 02 00 	movl   $0x258cd,(%esp)
    1ce0:	e8 bb 1d 01 00       	call   13aa0 <printf>
    1ce5:	e9 8e fb ff ff       	jmp    1878 <main+0x728>
    1cea:	8d 44 24 44          	lea    0x44(%esp),%eax
    1cee:	c7 44 24 08 1a 58 02 	movl   $0x2581a,0x8(%esp)
    1cf5:	00 
    1cf6:	c7 44 24 04 07 00 00 	movl   $0x7,0x4(%esp)
    1cfd:	00 
    1cfe:	89 04 24             	mov    %eax,(%esp)
    1d01:	e8 9a b7 00 00       	call   d4a0 <str_cpy>
    1d06:	e9 8f f7 ff ff       	jmp    149a <main+0x34a>
    1d0b:	c7 04 24 08 59 02 00 	movl   $0x25908,(%esp)
    1d12:	e8 89 1d 01 00       	call   13aa0 <printf>
    1d17:	e9 5c fb ff ff       	jmp    1878 <main+0x728>
    1d1c:	8b 3d 20 3b 03 00    	mov    0x33b20,%edi
    1d22:	83 c7 1f             	add    $0x1f,%edi
    1d25:	89 f8                	mov    %edi,%eax
    1d27:	e9 b4 f6 ff ff       	jmp    13e0 <main+0x290>
    1d2c:	31 d2                	xor    %edx,%edx
    1d2e:	e9 28 f5 ff ff       	jmp    125b <main+0x10b>
    1d33:	8d 44 24 44          	lea    0x44(%esp),%eax
    1d37:	c7 44 24 08 21 58 02 	movl   $0x25821,0x8(%esp)
    1d3e:	00 
    1d3f:	c7 44 24 04 07 00 00 	movl   $0x7,0x4(%esp)
    1d46:	00 
    1d47:	89 04 24             	mov    %eax,(%esp)
    1d4a:	e8 51 b7 00 00       	call   d4a0 <str_cpy>
    1d4f:	e9 46 f7 ff ff       	jmp    149a <main+0x34a>
    1d54:	31 d2                	xor    %edx,%edx
    1d56:	e9 c8 f4 ff ff       	jmp    1223 <main+0xd3>
    1d5b:	8d 44 24 44          	lea    0x44(%esp),%eax
    1d5f:	c7 44 24 08 28 58 02 	movl   $0x25828,0x8(%esp)
    1d66:	00 
    1d67:	c7 44 24 04 08 00 00 	movl   $0x8,0x4(%esp)
    1d6e:	00 
    1d6f:	89 04 24             	mov    %eax,(%esp)
    1d72:	e8 29 b7 00 00       	call   d4a0 <str_cpy>
    1d77:	e9 1e f7 ff ff       	jmp    149a <main+0x34a>
    1d7c:	c7 04 24 5e 58 02 00 	movl   $0x2585e,(%esp)
    1d83:	e8 18 1d 01 00       	call   13aa0 <printf>
    1d88:	e9 eb fa ff ff       	jmp    1878 <main+0x728>
    1d8d:	8d 44 24 44          	lea    0x44(%esp),%eax
    1d91:	c7 44 24 08 30 58 02 	movl   $0x25830,0x8(%esp)
    1d98:	00 
    1d99:	c7 44 24 04 0a 00 00 	movl   $0xa,0x4(%esp)
    1da0:	00 
    1da1:	89 04 24             	mov    %eax,(%esp)
    1da4:	e8 f7 b6 00 00       	call   d4a0 <str_cpy>
    1da9:	e9 ec f6 ff ff       	jmp    149a <main+0x34a>
    1dae:	8d 44 24 44          	lea    0x44(%esp),%eax
    1db2:	c7 44 24 08 3a 58 02 	movl   $0x2583a,0x8(%esp)
    1db9:	00 
    1dba:	c7 44 24 04 09 00 00 	movl   $0x9,0x4(%esp)
    1dc1:	00 
    1dc2:	89 04 24             	mov    %eax,(%esp)
    1dc5:	e8 d6 b6 00 00       	call   d4a0 <str_cpy>
    1dca:	e9 cb f6 ff ff       	jmp    149a <main+0x34a>
    1dcf:	83 fe 04             	cmp    $0x4,%esi
    1dd2:	0f 85 f2 1c 00 00    	jne    3aca <main+0x297a>
    1dd8:	a1 20 3b 03 00       	mov    0x33b20,%eax
    1ddd:	83 c0 5a             	add    $0x5a,%eax
    1de0:	e9 23 f5 ff ff       	jmp    1308 <main+0x1b8>
    1de5:	8d 44 24 44          	lea    0x44(%esp),%eax
    1de9:	c7 44 24 08 43 58 02 	movl   $0x25843,0x8(%esp)
    1df0:	00 
    1df1:	c7 44 24 04 07 00 00 	movl   $0x7,0x4(%esp)
    1df8:	00 
    1df9:	89 04 24             	mov    %eax,(%esp)
    1dfc:	e8 9f b6 00 00       	call   d4a0 <str_cpy>
    1e01:	e9 94 f6 ff ff       	jmp    149a <main+0x34a>
    1e06:	8d 44 24 44          	lea    0x44(%esp),%eax
    1e0a:	c7 44 24 08 4a 58 02 	movl   $0x2584a,0x8(%esp)
    1e11:	00 
    1e12:	c7 44 24 04 09 00 00 	movl   $0x9,0x4(%esp)
    1e19:	00 
    1e1a:	89 04 24             	mov    %eax,(%esp)
    1e1d:	e8 7e b6 00 00       	call   d4a0 <str_cpy>
    1e22:	e9 73 f6 ff ff       	jmp    149a <main+0x34a>
    1e27:	a1 20 3b 03 00       	mov    0x33b20,%eax
    1e2c:	b9 07 00 00 00       	mov    $0x7,%ecx
    1e31:	83 c0 1f             	add    $0x1f,%eax
    1e34:	89 c2                	mov    %eax,%edx
    1e36:	a3 20 3b 03 00       	mov    %eax,0x33b20
    1e3b:	c1 fa 1f             	sar    $0x1f,%edx
    1e3e:	f7 f9                	idiv   %ecx
    1e40:	83 fa 04             	cmp    $0x4,%edx
    1e43:	8d 58 02             	lea    0x2(%eax),%ebx
    1e46:	0f 84 d4 f5 ff ff    	je     1420 <main+0x2d0>
    1e4c:	8d 58 02             	lea    0x2(%eax),%ebx
    1e4f:	83 fa 05             	cmp    $0x5,%edx
    1e52:	0f 84 c8 f5 ff ff    	je     1420 <main+0x2d0>
    1e58:	8d 58 01             	lea    0x1(%eax),%ebx
    1e5b:	83 fa 06             	cmp    $0x6,%edx
    1e5e:	0f 85 bc f5 ff ff    	jne    1420 <main+0x2d0>
    1e64:	8d 58 02             	lea    0x2(%eax),%ebx
    1e67:	e9 b4 f5 ff ff       	jmp    1420 <main+0x2d0>
    1e6c:	a1 20 3b 03 00       	mov    0x33b20,%eax
    1e71:	b9 07 00 00 00       	mov    $0x7,%ecx
    1e76:	83 c0 1f             	add    $0x1f,%eax
    1e79:	89 c2                	mov    %eax,%edx
    1e7b:	a3 20 3b 03 00       	mov    %eax,0x33b20
    1e80:	c1 fa 1f             	sar    $0x1f,%edx
    1e83:	f7 f9                	idiv   %ecx
    1e85:	85 d2                	test   %edx,%edx
    1e87:	8d 58 01             	lea    0x1(%eax),%ebx
    1e8a:	0f 85 90 f5 ff ff    	jne    1420 <main+0x2d0>
    1e90:	89 c3                	mov    %eax,%ebx
    1e92:	e9 89 f5 ff ff       	jmp    1420 <main+0x2d0>
    1e97:	a1 20 3b 03 00       	mov    0x33b20,%eax
    1e9c:	b9 07 00 00 00       	mov    $0x7,%ecx
    1ea1:	83 c0 1f             	add    $0x1f,%eax
    1ea4:	89 c2                	mov    %eax,%edx
    1ea6:	a3 20 3b 03 00       	mov    %eax,0x33b20
    1eab:	c1 fa 1f             	sar    $0x1f,%edx
    1eae:	f7 f9                	idiv   %ecx
    1eb0:	4a                   	dec    %edx
    1eb1:	8d 58 02             	lea    0x2(%eax),%ebx
    1eb4:	0f 85 66 f5 ff ff    	jne    1420 <main+0x2d0>
    1eba:	8d 58 01             	lea    0x1(%eax),%ebx
    1ebd:	e9 5e f5 ff ff       	jmp    1420 <main+0x2d0>
    1ec2:	a1 20 3b 03 00       	mov    0x33b20,%eax
    1ec7:	b9 07 00 00 00       	mov    $0x7,%ecx
    1ecc:	83 c0 1f             	add    $0x1f,%eax
    1ecf:	89 c2                	mov    %eax,%edx
    1ed1:	a3 20 3b 03 00       	mov    %eax,0x33b20
    1ed6:	c1 fa 1f             	sar    $0x1f,%edx
    1ed9:	f7 f9                	idiv   %ecx
    1edb:	8d 58 01             	lea    0x1(%eax),%ebx
    1ede:	e9 3d f5 ff ff       	jmp    1420 <main+0x2d0>
    1ee3:	8b 3d 20 3b 03 00    	mov    0x33b20,%edi
    1ee9:	b9 07 00 00 00       	mov    $0x7,%ecx
    1eee:	8d 77 1f             	lea    0x1f(%edi),%esi
    1ef1:	89 f2                	mov    %esi,%edx
    1ef3:	89 f0                	mov    %esi,%eax
    1ef5:	c1 fa 1f             	sar    $0x1f,%edx
    1ef8:	f7 f9                	idiv   %ecx
    1efa:	83 fa 06             	cmp    $0x6,%edx
    1efd:	0f 84 1c 07 00 00    	je     261f <main+0x14cf>
    1f03:	89 35 20 3b 03 00    	mov    %esi,0x33b20
    1f09:	8d 58 01             	lea    0x1(%eax),%ebx
    1f0c:	e9 0f f5 ff ff       	jmp    1420 <main+0x2d0>
    1f11:	a1 20 3b 03 00       	mov    0x33b20,%eax
    1f16:	b9 07 00 00 00       	mov    $0x7,%ecx
    1f1b:	83 c0 1f             	add    $0x1f,%eax
    1f1e:	89 c2                	mov    %eax,%edx
    1f20:	a3 20 3b 03 00       	mov    %eax,0x33b20
    1f25:	c1 fa 1f             	sar    $0x1f,%edx
    1f28:	f7 f9                	idiv   %ecx
    1f2a:	83 fa 01             	cmp    $0x1,%edx
    1f2d:	8d 58 02             	lea    0x2(%eax),%ebx
    1f30:	0f 87 ea f4 ff ff    	ja     1420 <main+0x2d0>
    1f36:	8d 58 01             	lea    0x1(%eax),%ebx
    1f39:	e9 e2 f4 ff ff       	jmp    1420 <main+0x2d0>
    1f3e:	a1 20 3b 03 00       	mov    0x33b20,%eax
    1f43:	b9 07 00 00 00       	mov    $0x7,%ecx
    1f48:	83 c0 1f             	add    $0x1f,%eax
    1f4b:	89 c2                	mov    %eax,%edx
    1f4d:	a3 20 3b 03 00       	mov    %eax,0x33b20
    1f52:	c1 fa 1f             	sar    $0x1f,%edx
    1f55:	f7 f9                	idiv   %ecx
    1f57:	83 fa 05             	cmp    $0x5,%edx
    1f5a:	8d 58 02             	lea    0x2(%eax),%ebx
    1f5d:	0f 84 bd f4 ff ff    	je     1420 <main+0x2d0>
    1f63:	8d 58 01             	lea    0x1(%eax),%ebx
    1f66:	83 fa 06             	cmp    $0x6,%edx
    1f69:	0f 85 b1 f4 ff ff    	jne    1420 <main+0x2d0>
    1f6f:	8d 58 02             	lea    0x2(%eax),%ebx
    1f72:	e9 a9 f4 ff ff       	jmp    1420 <main+0x2d0>
    1f77:	a1 20 3b 03 00       	mov    0x33b20,%eax
    1f7c:	b9 07 00 00 00       	mov    $0x7,%ecx
    1f81:	89 c2                	mov    %eax,%edx
    1f83:	c1 fa 1f             	sar    $0x1f,%edx
    1f86:	f7 f9                	idiv   %ecx
    1f88:	83 fa 04             	cmp    $0x4,%edx
    1f8b:	8d 58 02             	lea    0x2(%eax),%ebx
    1f8e:	0f 84 8c f4 ff ff    	je     1420 <main+0x2d0>
    1f94:	8d 58 02             	lea    0x2(%eax),%ebx
    1f97:	83 fa 05             	cmp    $0x5,%edx
    1f9a:	0f 84 80 f4 ff ff    	je     1420 <main+0x2d0>
    1fa0:	8d 58 01             	lea    0x1(%eax),%ebx
    1fa3:	83 fa 06             	cmp    $0x6,%edx
    1fa6:	0f 85 74 f4 ff ff    	jne    1420 <main+0x2d0>
    1fac:	8d 58 02             	lea    0x2(%eax),%ebx
    1faf:	e9 6c f4 ff ff       	jmp    1420 <main+0x2d0>
    1fb4:	a1 20 3b 03 00       	mov    0x33b20,%eax
    1fb9:	b9 07 00 00 00       	mov    $0x7,%ecx
    1fbe:	89 c2                	mov    %eax,%edx
    1fc0:	c1 fa 1f             	sar    $0x1f,%edx
    1fc3:	f7 f9                	idiv   %ecx
    1fc5:	4a                   	dec    %edx
    1fc6:	8d 58 02             	lea    0x2(%eax),%ebx
    1fc9:	0f 85 51 f4 ff ff    	jne    1420 <main+0x2d0>
    1fcf:	8d 58 01             	lea    0x1(%eax),%ebx
    1fd2:	e9 49 f4 ff ff       	jmp    1420 <main+0x2d0>
    1fd7:	8b 35 20 3b 03 00    	mov    0x33b20,%esi
    1fdd:	b9 07 00 00 00       	mov    $0x7,%ecx
    1fe2:	89 f2                	mov    %esi,%edx
    1fe4:	89 f0                	mov    %esi,%eax
    1fe6:	c1 fa 1f             	sar    $0x1f,%edx
    1fe9:	f7 f9                	idiv   %ecx
    1feb:	83 fa 06             	cmp    $0x6,%edx
    1fee:	8d 58 01             	lea    0x1(%eax),%ebx
    1ff1:	0f 85 29 f4 ff ff    	jne    1420 <main+0x2d0>
    1ff7:	8d 46 01             	lea    0x1(%esi),%eax
    1ffa:	89 c2                	mov    %eax,%edx
    1ffc:	a3 20 3b 03 00       	mov    %eax,0x33b20
    2001:	c1 fa 1f             	sar    $0x1f,%edx
    2004:	f7 f9                	idiv   %ecx
    2006:	8d 58 01             	lea    0x1(%eax),%ebx
    2009:	e9 12 f4 ff ff       	jmp    1420 <main+0x2d0>
    200e:	a1 20 3b 03 00       	mov    0x33b20,%eax
    2013:	b9 07 00 00 00       	mov    $0x7,%ecx
    2018:	89 c2                	mov    %eax,%edx
    201a:	c1 fa 1f             	sar    $0x1f,%edx
    201d:	f7 f9                	idiv   %ecx
    201f:	83 fa 01             	cmp    $0x1,%edx
    2022:	8d 58 02             	lea    0x2(%eax),%ebx
    2025:	0f 87 f5 f3 ff ff    	ja     1420 <main+0x2d0>
    202b:	8d 58 01             	lea    0x1(%eax),%ebx
    202e:	e9 ed f3 ff ff       	jmp    1420 <main+0x2d0>
    2033:	a1 20 3b 03 00       	mov    0x33b20,%eax
    2038:	b9 07 00 00 00       	mov    $0x7,%ecx
    203d:	89 c2                	mov    %eax,%edx
    203f:	c1 fa 1f             	sar    $0x1f,%edx
    2042:	f7 f9                	idiv   %ecx
    2044:	83 fa 05             	cmp    $0x5,%edx
    2047:	8d 58 02             	lea    0x2(%eax),%ebx
    204a:	0f 84 d0 f3 ff ff    	je     1420 <main+0x2d0>
    2050:	8d 58 01             	lea    0x1(%eax),%ebx
    2053:	83 fa 06             	cmp    $0x6,%edx
    2056:	0f 85 c4 f3 ff ff    	jne    1420 <main+0x2d0>
    205c:	8d 58 02             	lea    0x2(%eax),%ebx
    205f:	e9 bc f3 ff ff       	jmp    1420 <main+0x2d0>
    2064:	a1 20 3b 03 00       	mov    0x33b20,%eax
    2069:	b9 07 00 00 00       	mov    $0x7,%ecx
    206e:	89 c2                	mov    %eax,%edx
    2070:	c1 fa 1f             	sar    $0x1f,%edx
    2073:	f7 f9                	idiv   %ecx
    2075:	8d 58 01             	lea    0x1(%eax),%ebx
    2078:	e9 a3 f3 ff ff       	jmp    1420 <main+0x2d0>
    207d:	a1 20 3b 03 00       	mov    0x33b20,%eax
    2082:	b9 07 00 00 00       	mov    $0x7,%ecx
    2087:	89 c2                	mov    %eax,%edx
    2089:	c1 fa 1f             	sar    $0x1f,%edx
    208c:	f7 f9                	idiv   %ecx
    208e:	85 d2                	test   %edx,%edx
    2090:	8d 58 01             	lea    0x1(%eax),%ebx
    2093:	0f 85 87 f3 ff ff    	jne    1420 <main+0x2d0>
    2099:	89 c3                	mov    %eax,%ebx
    209b:	e9 80 f3 ff ff       	jmp    1420 <main+0x2d0>
    20a0:	c7 04 24 e8 58 02 00 	movl   $0x258e8,(%esp)
    20a7:	e8 f4 19 01 00       	call   13aa0 <printf>
    20ac:	e9 c7 f1 ff ff       	jmp    1278 <main+0x128>
    20b1:	a1 20 3b 03 00       	mov    0x33b20,%eax
    20b6:	b9 07 00 00 00       	mov    $0x7,%ecx
    20bb:	89 c2                	mov    %eax,%edx
    20bd:	c1 fa 1f             	sar    $0x1f,%edx
    20c0:	f7 f9                	idiv   %ecx
    20c2:	83 fa 01             	cmp    $0x1,%edx
    20c5:	8d 58 02             	lea    0x2(%eax),%ebx
    20c8:	0f 87 52 f3 ff ff    	ja     1420 <main+0x2d0>
    20ce:	8d 58 01             	lea    0x1(%eax),%ebx
    20d1:	e9 4a f3 ff ff       	jmp    1420 <main+0x2d0>
    20d6:	a1 20 3b 03 00       	mov    0x33b20,%eax
    20db:	b9 07 00 00 00       	mov    $0x7,%ecx
    20e0:	89 c2                	mov    %eax,%edx
    20e2:	c1 fa 1f             	sar    $0x1f,%edx
    20e5:	f7 f9                	idiv   %ecx
    20e7:	8d 58 01             	lea    0x1(%eax),%ebx
    20ea:	e9 31 f3 ff ff       	jmp    1420 <main+0x2d0>
    20ef:	a1 20 3b 03 00       	mov    0x33b20,%eax
    20f4:	b9 07 00 00 00       	mov    $0x7,%ecx
    20f9:	89 c2                	mov    %eax,%edx
    20fb:	c1 fa 1f             	sar    $0x1f,%edx
    20fe:	f7 f9                	idiv   %ecx
    2100:	85 d2                	test   %edx,%edx
    2102:	8d 58 01             	lea    0x1(%eax),%ebx
    2105:	0f 85 15 f3 ff ff    	jne    1420 <main+0x2d0>
    210b:	89 c3                	mov    %eax,%ebx
    210d:	e9 0e f3 ff ff       	jmp    1420 <main+0x2d0>
    2112:	a1 20 3b 03 00       	mov    0x33b20,%eax
    2117:	b9 07 00 00 00       	mov    $0x7,%ecx
    211c:	89 c2                	mov    %eax,%edx
    211e:	c1 fa 1f             	sar    $0x1f,%edx
    2121:	f7 f9                	idiv   %ecx
    2123:	4a                   	dec    %edx
    2124:	8d 58 02             	lea    0x2(%eax),%ebx
    2127:	0f 85 f3 f2 ff ff    	jne    1420 <main+0x2d0>
    212d:	8d 58 01             	lea    0x1(%eax),%ebx
    2130:	e9 eb f2 ff ff       	jmp    1420 <main+0x2d0>
    2135:	a1 20 3b 03 00       	mov    0x33b20,%eax
    213a:	b9 07 00 00 00       	mov    $0x7,%ecx
    213f:	89 c2                	mov    %eax,%edx
    2141:	c1 fa 1f             	sar    $0x1f,%edx
    2144:	f7 f9                	idiv   %ecx
    2146:	83 fa 05             	cmp    $0x5,%edx
    2149:	8d 58 02             	lea    0x2(%eax),%ebx
    214c:	0f 84 ce f2 ff ff    	je     1420 <main+0x2d0>
    2152:	8d 58 01             	lea    0x1(%eax),%ebx
    2155:	83 fa 06             	cmp    $0x6,%edx
    2158:	0f 85 c2 f2 ff ff    	jne    1420 <main+0x2d0>
    215e:	8d 58 02             	lea    0x2(%eax),%ebx
    2161:	e9 ba f2 ff ff       	jmp    1420 <main+0x2d0>
    2166:	8b 35 20 3b 03 00    	mov    0x33b20,%esi
    216c:	b9 07 00 00 00       	mov    $0x7,%ecx
    2171:	89 f2                	mov    %esi,%edx
    2173:	89 f0                	mov    %esi,%eax
    2175:	c1 fa 1f             	sar    $0x1f,%edx
    2178:	f7 f9                	idiv   %ecx
    217a:	83 fa 06             	cmp    $0x6,%edx
    217d:	8d 58 01             	lea    0x1(%eax),%ebx
    2180:	0f 85 9a f2 ff ff    	jne    1420 <main+0x2d0>
    2186:	8d 46 01             	lea    0x1(%esi),%eax
    2189:	89 c2                	mov    %eax,%edx
    218b:	a3 20 3b 03 00       	mov    %eax,0x33b20
    2190:	c1 fa 1f             	sar    $0x1f,%edx
    2193:	f7 f9                	idiv   %ecx
    2195:	8d 58 01             	lea    0x1(%eax),%ebx
    2198:	e9 83 f2 ff ff       	jmp    1420 <main+0x2d0>
    219d:	a1 20 3b 03 00       	mov    0x33b20,%eax
    21a2:	b9 07 00 00 00       	mov    $0x7,%ecx
    21a7:	89 c2                	mov    %eax,%edx
    21a9:	c1 fa 1f             	sar    $0x1f,%edx
    21ac:	f7 f9                	idiv   %ecx
    21ae:	83 fa 04             	cmp    $0x4,%edx
    21b1:	8d 58 02             	lea    0x2(%eax),%ebx
    21b4:	0f 84 66 f2 ff ff    	je     1420 <main+0x2d0>
    21ba:	8d 58 02             	lea    0x2(%eax),%ebx
    21bd:	83 fa 05             	cmp    $0x5,%edx
    21c0:	0f 84 5a f2 ff ff    	je     1420 <main+0x2d0>
    21c6:	8d 58 01             	lea    0x1(%eax),%ebx
    21c9:	83 fa 06             	cmp    $0x6,%edx
    21cc:	0f 85 4e f2 ff ff    	jne    1420 <main+0x2d0>
    21d2:	8d 58 02             	lea    0x2(%eax),%ebx
    21d5:	e9 46 f2 ff ff       	jmp    1420 <main+0x2d0>
    21da:	83 fe 04             	cmp    $0x4,%esi
    21dd:	0f 85 85 03 00 00    	jne    2568 <main+0x1418>
    21e3:	a1 20 3b 03 00       	mov    0x33b20,%eax
    21e8:	b9 07 00 00 00       	mov    $0x7,%ecx
    21ed:	83 c0 5a             	add    $0x5a,%eax
    21f0:	89 c2                	mov    %eax,%edx
    21f2:	a3 20 3b 03 00       	mov    %eax,0x33b20
    21f7:	c1 fa 1f             	sar    $0x1f,%edx
    21fa:	f7 f9                	idiv   %ecx
    21fc:	85 d2                	test   %edx,%edx
    21fe:	8d 58 01             	lea    0x1(%eax),%ebx
    2201:	0f 85 19 f2 ff ff    	jne    1420 <main+0x2d0>
    2207:	89 c3                	mov    %eax,%ebx
    2209:	e9 12 f2 ff ff       	jmp    1420 <main+0x2d0>
    220e:	83 fe 04             	cmp    $0x4,%esi
    2211:	0f 85 de 03 00 00    	jne    25f5 <main+0x14a5>
    2217:	a1 20 3b 03 00       	mov    0x33b20,%eax
    221c:	b9 07 00 00 00       	mov    $0x7,%ecx
    2221:	83 c0 5a             	add    $0x5a,%eax
    2224:	89 c2                	mov    %eax,%edx
    2226:	a3 20 3b 03 00       	mov    %eax,0x33b20
    222b:	c1 fa 1f             	sar    $0x1f,%edx
    222e:	f7 f9                	idiv   %ecx
    2230:	8d 58 01             	lea    0x1(%eax),%ebx
    2233:	e9 e8 f1 ff ff       	jmp    1420 <main+0x2d0>
    2238:	83 fe 04             	cmp    $0x4,%esi
    223b:	0f 85 dc 18 00 00    	jne    3b1d <main+0x29cd>
    2241:	a1 20 3b 03 00       	mov    0x33b20,%eax
    2246:	b9 07 00 00 00       	mov    $0x7,%ecx
    224b:	83 c0 5b             	add    $0x5b,%eax
    224e:	89 c2                	mov    %eax,%edx
    2250:	a3 20 3b 03 00       	mov    %eax,0x33b20
    2255:	c1 fa 1f             	sar    $0x1f,%edx
    2258:	f7 f9                	idiv   %ecx
    225a:	83 fa 05             	cmp    $0x5,%edx
    225d:	8d 58 02             	lea    0x2(%eax),%ebx
    2260:	0f 84 ba f1 ff ff    	je     1420 <main+0x2d0>
    2266:	8d 58 01             	lea    0x1(%eax),%ebx
    2269:	83 fa 06             	cmp    $0x6,%edx
    226c:	0f 85 ae f1 ff ff    	jne    1420 <main+0x2d0>
    2272:	8d 58 02             	lea    0x2(%eax),%ebx
    2275:	e9 a6 f1 ff ff       	jmp    1420 <main+0x2d0>
    227a:	83 fe 04             	cmp    $0x4,%esi
    227d:	0f 85 dc 18 00 00    	jne    3b5f <main+0x2a0f>
    2283:	a1 20 3b 03 00       	mov    0x33b20,%eax
    2288:	b9 07 00 00 00       	mov    $0x7,%ecx
    228d:	83 c0 5b             	add    $0x5b,%eax
    2290:	89 c2                	mov    %eax,%edx
    2292:	a3 20 3b 03 00       	mov    %eax,0x33b20
    2297:	c1 fa 1f             	sar    $0x1f,%edx
    229a:	f7 f9                	idiv   %ecx
    229c:	4a                   	dec    %edx
    229d:	8d 58 02             	lea    0x2(%eax),%ebx
    22a0:	0f 85 7a f1 ff ff    	jne    1420 <main+0x2d0>
    22a6:	8d 58 01             	lea    0x1(%eax),%ebx
    22a9:	e9 72 f1 ff ff       	jmp    1420 <main+0x2d0>
    22ae:	83 fe 04             	cmp    $0x4,%esi
    22b1:	0f 85 12 07 00 00    	jne    29c9 <main+0x1879>
    22b7:	a1 20 3b 03 00       	mov    0x33b20,%eax
    22bc:	b9 07 00 00 00       	mov    $0x7,%ecx
    22c1:	83 c0 5b             	add    $0x5b,%eax
    22c4:	89 c2                	mov    %eax,%edx
    22c6:	a3 20 3b 03 00       	mov    %eax,0x33b20
    22cb:	c1 fa 1f             	sar    $0x1f,%edx
    22ce:	f7 f9                	idiv   %ecx
    22d0:	8d 58 01             	lea    0x1(%eax),%ebx
    22d3:	e9 48 f1 ff ff       	jmp    1420 <main+0x2d0>
    22d8:	83 fe 04             	cmp    $0x4,%esi
    22db:	0f 85 e3 0f 00 00    	jne    32c4 <main+0x2174>
    22e1:	8b 3d 20 3b 03 00    	mov    0x33b20,%edi
    22e7:	b9 07 00 00 00       	mov    $0x7,%ecx
    22ec:	8d 77 5b             	lea    0x5b(%edi),%esi
    22ef:	89 f2                	mov    %esi,%edx
    22f1:	89 f0                	mov    %esi,%eax
    22f3:	c1 fa 1f             	sar    $0x1f,%edx
    22f6:	f7 f9                	idiv   %ecx
    22f8:	83 fa 06             	cmp    $0x6,%edx
    22fb:	0f 84 35 03 00 00    	je     2636 <main+0x14e6>
    2301:	89 35 20 3b 03 00    	mov    %esi,0x33b20
    2307:	8d 58 01             	lea    0x1(%eax),%ebx
    230a:	e9 11 f1 ff ff       	jmp    1420 <main+0x2d0>
    230f:	83 fe 04             	cmp    $0x4,%esi
    2312:	0f 85 8b 08 00 00    	jne    2ba3 <main+0x1a53>
    2318:	a1 20 3b 03 00       	mov    0x33b20,%eax
    231d:	b9 07 00 00 00       	mov    $0x7,%ecx
    2322:	83 c0 5b             	add    $0x5b,%eax
    2325:	89 c2                	mov    %eax,%edx
    2327:	a3 20 3b 03 00       	mov    %eax,0x33b20
    232c:	c1 fa 1f             	sar    $0x1f,%edx
    232f:	f7 f9                	idiv   %ecx
    2331:	83 fa 01             	cmp    $0x1,%edx
    2334:	8d 58 02             	lea    0x2(%eax),%ebx
    2337:	0f 87 e3 f0 ff ff    	ja     1420 <main+0x2d0>
    233d:	8d 58 01             	lea    0x1(%eax),%ebx
    2340:	e9 db f0 ff ff       	jmp    1420 <main+0x2d0>
    2345:	83 fe 04             	cmp    $0x4,%esi
    2348:	0f 85 65 02 00 00    	jne    25b3 <main+0x1463>
    234e:	a1 20 3b 03 00       	mov    0x33b20,%eax
    2353:	b9 07 00 00 00       	mov    $0x7,%ecx
    2358:	83 c0 5a             	add    $0x5a,%eax
    235b:	89 c2                	mov    %eax,%edx
    235d:	a3 20 3b 03 00       	mov    %eax,0x33b20
    2362:	c1 fa 1f             	sar    $0x1f,%edx
    2365:	f7 f9                	idiv   %ecx
    2367:	83 fa 05             	cmp    $0x5,%edx
    236a:	8d 58 02             	lea    0x2(%eax),%ebx
    236d:	0f 84 ad f0 ff ff    	je     1420 <main+0x2d0>
    2373:	8d 58 01             	lea    0x1(%eax),%ebx
    2376:	83 fa 06             	cmp    $0x6,%edx
    2379:	0f 85 a1 f0 ff ff    	jne    1420 <main+0x2d0>
    237f:	8d 58 02             	lea    0x2(%eax),%ebx
    2382:	e9 99 f0 ff ff       	jmp    1420 <main+0x2d0>
    2387:	83 fe 04             	cmp    $0x4,%esi
    238a:	0f 85 bd 02 00 00    	jne    264d <main+0x14fd>
    2390:	a1 20 3b 03 00       	mov    0x33b20,%eax
    2395:	b9 07 00 00 00       	mov    $0x7,%ecx
    239a:	83 c0 5a             	add    $0x5a,%eax
    239d:	89 c2                	mov    %eax,%edx
    239f:	a3 20 3b 03 00       	mov    %eax,0x33b20
    23a4:	c1 fa 1f             	sar    $0x1f,%edx
    23a7:	f7 f9                	idiv   %ecx
    23a9:	83 fa 04             	cmp    $0x4,%edx
    23ac:	8d 58 02             	lea    0x2(%eax),%ebx
    23af:	0f 84 6b f0 ff ff    	je     1420 <main+0x2d0>
    23b5:	8d 58 02             	lea    0x2(%eax),%ebx
    23b8:	83 fa 05             	cmp    $0x5,%edx
    23bb:	0f 84 5f f0 ff ff    	je     1420 <main+0x2d0>
    23c1:	8d 58 01             	lea    0x1(%eax),%ebx
    23c4:	83 fa 06             	cmp    $0x6,%edx
    23c7:	0f 85 53 f0 ff ff    	jne    1420 <main+0x2d0>
    23cd:	8d 58 02             	lea    0x2(%eax),%ebx
    23d0:	e9 4b f0 ff ff       	jmp    1420 <main+0x2d0>
    23d5:	83 fe 04             	cmp    $0x4,%esi
    23d8:	0f 85 89 08 00 00    	jne    2c67 <main+0x1b17>
    23de:	a1 20 3b 03 00       	mov    0x33b20,%eax
    23e3:	b9 07 00 00 00       	mov    $0x7,%ecx
    23e8:	83 c0 5b             	add    $0x5b,%eax
    23eb:	89 c2                	mov    %eax,%edx
    23ed:	a3 20 3b 03 00       	mov    %eax,0x33b20
    23f2:	c1 fa 1f             	sar    $0x1f,%edx
    23f5:	f7 f9                	idiv   %ecx
    23f7:	85 d2                	test   %edx,%edx
    23f9:	8d 58 01             	lea    0x1(%eax),%ebx
    23fc:	0f 85 1e f0 ff ff    	jne    1420 <main+0x2d0>
    2402:	89 c3                	mov    %eax,%ebx
    2404:	e9 17 f0 ff ff       	jmp    1420 <main+0x2d0>
    2409:	a1 20 3b 03 00       	mov    0x33b20,%eax
    240e:	b9 07 00 00 00       	mov    $0x7,%ecx
    2413:	83 c0 1f             	add    $0x1f,%eax
    2416:	89 c2                	mov    %eax,%edx
    2418:	a3 20 3b 03 00       	mov    %eax,0x33b20
    241d:	c1 fa 1f             	sar    $0x1f,%edx
    2420:	f7 f9                	idiv   %ecx
    2422:	85 d2                	test   %edx,%edx
    2424:	8d 58 01             	lea    0x1(%eax),%ebx
    2427:	0f 85 f3 ef ff ff    	jne    1420 <main+0x2d0>
    242d:	89 c3                	mov    %eax,%ebx
    242f:	e9 ec ef ff ff       	jmp    1420 <main+0x2d0>
    2434:	8b 35 20 3b 03 00    	mov    0x33b20,%esi
    243a:	b9 07 00 00 00       	mov    $0x7,%ecx
    243f:	8d 46 1f             	lea    0x1f(%esi),%eax
    2442:	89 c2                	mov    %eax,%edx
    2444:	a3 20 3b 03 00       	mov    %eax,0x33b20
    2449:	c1 fa 1f             	sar    $0x1f,%edx
    244c:	f7 f9                	idiv   %ecx
    244e:	83 fa 06             	cmp    $0x6,%edx
    2451:	8d 58 01             	lea    0x1(%eax),%ebx
    2454:	0f 85 c6 ef ff ff    	jne    1420 <main+0x2d0>
    245a:	8d 46 20             	lea    0x20(%esi),%eax
    245d:	89 c2                	mov    %eax,%edx
    245f:	a3 20 3b 03 00       	mov    %eax,0x33b20
    2464:	c1 fa 1f             	sar    $0x1f,%edx
    2467:	f7 f9                	idiv   %ecx
    2469:	8d 58 01             	lea    0x1(%eax),%ebx
    246c:	e9 af ef ff ff       	jmp    1420 <main+0x2d0>
    2471:	a1 20 3b 03 00       	mov    0x33b20,%eax
    2476:	b9 07 00 00 00       	mov    $0x7,%ecx
    247b:	83 c0 1f             	add    $0x1f,%eax
    247e:	89 c2                	mov    %eax,%edx
    2480:	a3 20 3b 03 00       	mov    %eax,0x33b20
    2485:	c1 fa 1f             	sar    $0x1f,%edx
    2488:	f7 f9                	idiv   %ecx
    248a:	8d 58 01             	lea    0x1(%eax),%ebx
    248d:	e9 8e ef ff ff       	jmp    1420 <main+0x2d0>
    2492:	a1 20 3b 03 00       	mov    0x33b20,%eax
    2497:	b9 07 00 00 00       	mov    $0x7,%ecx
    249c:	83 c0 1f             	add    $0x1f,%eax
    249f:	89 c2                	mov    %eax,%edx
    24a1:	a3 20 3b 03 00       	mov    %eax,0x33b20
    24a6:	c1 fa 1f             	sar    $0x1f,%edx
    24a9:	f7 f9                	idiv   %ecx
    24ab:	4a                   	dec    %edx
    24ac:	8d 58 02             	lea    0x2(%eax),%ebx
    24af:	0f 85 6b ef ff ff    	jne    1420 <main+0x2d0>
    24b5:	8d 58 01             	lea    0x1(%eax),%ebx
    24b8:	e9 63 ef ff ff       	jmp    1420 <main+0x2d0>
    24bd:	a1 20 3b 03 00       	mov    0x33b20,%eax
    24c2:	b9 07 00 00 00       	mov    $0x7,%ecx
    24c7:	83 c0 1f             	add    $0x1f,%eax
    24ca:	89 c2                	mov    %eax,%edx
    24cc:	a3 20 3b 03 00       	mov    %eax,0x33b20
    24d1:	c1 fa 1f             	sar    $0x1f,%edx
    24d4:	f7 f9                	idiv   %ecx
    24d6:	83 fa 01             	cmp    $0x1,%edx
    24d9:	8d 58 02             	lea    0x2(%eax),%ebx
    24dc:	0f 87 3e ef ff ff    	ja     1420 <main+0x2d0>
    24e2:	8d 58 01             	lea    0x1(%eax),%ebx
    24e5:	e9 36 ef ff ff       	jmp    1420 <main+0x2d0>
    24ea:	a1 20 3b 03 00       	mov    0x33b20,%eax
    24ef:	b9 07 00 00 00       	mov    $0x7,%ecx
    24f4:	83 c0 1f             	add    $0x1f,%eax
    24f7:	89 c2                	mov    %eax,%edx
    24f9:	a3 20 3b 03 00       	mov    %eax,0x33b20
    24fe:	c1 fa 1f             	sar    $0x1f,%edx
    2501:	f7 f9                	idiv   %ecx
    2503:	83 fa 04             	cmp    $0x4,%edx
    2506:	8d 58 02             	lea    0x2(%eax),%ebx
    2509:	0f 84 11 ef ff ff    	je     1420 <main+0x2d0>
    250f:	8d 58 02             	lea    0x2(%eax),%ebx
    2512:	83 fa 05             	cmp    $0x5,%edx
    2515:	0f 84 05 ef ff ff    	je     1420 <main+0x2d0>
    251b:	8d 58 01             	lea    0x1(%eax),%ebx
    251e:	83 fa 06             	cmp    $0x6,%edx
    2521:	0f 85 f9 ee ff ff    	jne    1420 <main+0x2d0>
    2527:	8d 58 02             	lea    0x2(%eax),%ebx
    252a:	e9 f1 ee ff ff       	jmp    1420 <main+0x2d0>
    252f:	a1 20 3b 03 00       	mov    0x33b20,%eax
    2534:	b9 07 00 00 00       	mov    $0x7,%ecx
    2539:	83 c0 1f             	add    $0x1f,%eax
    253c:	89 c2                	mov    %eax,%edx
    253e:	a3 20 3b 03 00       	mov    %eax,0x33b20
    2543:	c1 fa 1f             	sar    $0x1f,%edx
    2546:	f7 f9                	idiv   %ecx
    2548:	83 fa 05             	cmp    $0x5,%edx
    254b:	8d 58 02             	lea    0x2(%eax),%ebx
    254e:	0f 84 cc ee ff ff    	je     1420 <main+0x2d0>
    2554:	8d 58 01             	lea    0x1(%eax),%ebx
    2557:	83 fa 06             	cmp    $0x6,%edx
    255a:	0f 85 c0 ee ff ff    	jne    1420 <main+0x2d0>
    2560:	8d 58 02             	lea    0x2(%eax),%ebx
    2563:	e9 b8 ee ff ff       	jmp    1420 <main+0x2d0>
    2568:	83 fe 05             	cmp    $0x5,%esi
    256b:	0f 85 82 04 00 00    	jne    29f3 <main+0x18a3>
    2571:	a1 20 3b 03 00       	mov    0x33b20,%eax
    2576:	b9 07 00 00 00       	mov    $0x7,%ecx
    257b:	83 c0 78             	add    $0x78,%eax
    257e:	89 c2                	mov    %eax,%edx
    2580:	a3 20 3b 03 00       	mov    %eax,0x33b20
    2585:	c1 fa 1f             	sar    $0x1f,%edx
    2588:	f7 f9                	idiv   %ecx
    258a:	85 d2                	test   %edx,%edx
    258c:	8d 58 01             	lea    0x1(%eax),%ebx
    258f:	0f 85 8b ee ff ff    	jne    1420 <main+0x2d0>
    2595:	89 c3                	mov    %eax,%ebx
    2597:	e9 84 ee ff ff       	jmp    1420 <main+0x2d0>
    259c:	8d 47 3d             	lea    0x3d(%edi),%eax
    259f:	89 c2                	mov    %eax,%edx
    25a1:	a3 20 3b 03 00       	mov    %eax,0x33b20
    25a6:	c1 fa 1f             	sar    $0x1f,%edx
    25a9:	f7 f9                	idiv   %ecx
    25ab:	8d 58 01             	lea    0x1(%eax),%ebx
    25ae:	e9 6d ee ff ff       	jmp    1420 <main+0x2d0>
    25b3:	83 fe 05             	cmp    $0x5,%esi
    25b6:	0f 85 1d 10 00 00    	jne    35d9 <main+0x2489>
    25bc:	a1 20 3b 03 00       	mov    0x33b20,%eax
    25c1:	b9 07 00 00 00       	mov    $0x7,%ecx
    25c6:	83 c0 78             	add    $0x78,%eax
    25c9:	89 c2                	mov    %eax,%edx
    25cb:	a3 20 3b 03 00       	mov    %eax,0x33b20
    25d0:	c1 fa 1f             	sar    $0x1f,%edx
    25d3:	f7 f9                	idiv   %ecx
    25d5:	83 fa 05             	cmp    $0x5,%edx
    25d8:	8d 58 02             	lea    0x2(%eax),%ebx
    25db:	0f 84 3f ee ff ff    	je     1420 <main+0x2d0>
    25e1:	8d 58 01             	lea    0x1(%eax),%ebx
    25e4:	83 fa 06             	cmp    $0x6,%edx
    25e7:	0f 85 33 ee ff ff    	jne    1420 <main+0x2d0>
    25ed:	8d 58 02             	lea    0x2(%eax),%ebx
    25f0:	e9 2b ee ff ff       	jmp    1420 <main+0x2d0>
    25f5:	83 fe 05             	cmp    $0x5,%esi
    25f8:	0f 85 9d 00 00 00    	jne    269b <main+0x154b>
    25fe:	a1 20 3b 03 00       	mov    0x33b20,%eax
    2603:	b9 07 00 00 00       	mov    $0x7,%ecx
    2608:	83 c0 78             	add    $0x78,%eax
    260b:	89 c2                	mov    %eax,%edx
    260d:	a3 20 3b 03 00       	mov    %eax,0x33b20
    2612:	c1 fa 1f             	sar    $0x1f,%edx
    2615:	f7 f9                	idiv   %ecx
    2617:	8d 58 01             	lea    0x1(%eax),%ebx
    261a:	e9 01 ee ff ff       	jmp    1420 <main+0x2d0>
    261f:	8d 47 20             	lea    0x20(%edi),%eax
    2622:	89 c2                	mov    %eax,%edx
    2624:	a3 20 3b 03 00       	mov    %eax,0x33b20
    2629:	c1 fa 1f             	sar    $0x1f,%edx
    262c:	f7 f9                	idiv   %ecx
    262e:	8d 58 01             	lea    0x1(%eax),%ebx
    2631:	e9 ea ed ff ff       	jmp    1420 <main+0x2d0>
    2636:	8d 47 5c             	lea    0x5c(%edi),%eax
    2639:	89 c2                	mov    %eax,%edx
    263b:	a3 20 3b 03 00       	mov    %eax,0x33b20
    2640:	c1 fa 1f             	sar    $0x1f,%edx
    2643:	f7 f9                	idiv   %ecx
    2645:	8d 58 01             	lea    0x1(%eax),%ebx
    2648:	e9 d3 ed ff ff       	jmp    1420 <main+0x2d0>
    264d:	83 fe 05             	cmp    $0x5,%esi
    2650:	0f 85 5e 01 00 00    	jne    27b4 <main+0x1664>
    2656:	a1 20 3b 03 00       	mov    0x33b20,%eax
    265b:	b9 07 00 00 00       	mov    $0x7,%ecx
    2660:	83 c0 78             	add    $0x78,%eax
    2663:	89 c2                	mov    %eax,%edx
    2665:	a3 20 3b 03 00       	mov    %eax,0x33b20
    266a:	c1 fa 1f             	sar    $0x1f,%edx
    266d:	f7 f9                	idiv   %ecx
    266f:	83 fa 04             	cmp    $0x4,%edx
    2672:	8d 58 02             	lea    0x2(%eax),%ebx
    2675:	0f 84 a5 ed ff ff    	je     1420 <main+0x2d0>
    267b:	8d 58 02             	lea    0x2(%eax),%ebx
    267e:	83 fa 05             	cmp    $0x5,%edx
    2681:	0f 84 99 ed ff ff    	je     1420 <main+0x2d0>
    2687:	8d 58 01             	lea    0x1(%eax),%ebx
    268a:	83 fa 06             	cmp    $0x6,%edx
    268d:	0f 85 8d ed ff ff    	jne    1420 <main+0x2d0>
    2693:	8d 58 02             	lea    0x2(%eax),%ebx
    2696:	e9 85 ed ff ff       	jmp    1420 <main+0x2d0>
    269b:	31 db                	xor    %ebx,%ebx
    269d:	83 fe 06             	cmp    $0x6,%esi
    26a0:	75 23                	jne    26c5 <main+0x1575>
    26a2:	a1 20 3b 03 00       	mov    0x33b20,%eax
    26a7:	b9 07 00 00 00       	mov    $0x7,%ecx
    26ac:	05 97 00 00 00       	add    $0x97,%eax
    26b1:	89 c2                	mov    %eax,%edx
    26b3:	a3 20 3b 03 00       	mov    %eax,0x33b20
    26b8:	c1 fa 1f             	sar    $0x1f,%edx
    26bb:	f7 f9                	idiv   %ecx
    26bd:	8d 58 01             	lea    0x1(%eax),%ebx
    26c0:	e9 5b ed ff ff       	jmp    1420 <main+0x2d0>
    26c5:	83 fe 07             	cmp    $0x7,%esi
    26c8:	75 1e                	jne    26e8 <main+0x1598>
    26ca:	a1 20 3b 03 00       	mov    0x33b20,%eax
    26cf:	05 b5 00 00 00       	add    $0xb5,%eax
    26d4:	89 c2                	mov    %eax,%edx
    26d6:	a3 20 3b 03 00       	mov    %eax,0x33b20
    26db:	c1 fa 1f             	sar    $0x1f,%edx
    26de:	f7 fe                	idiv   %esi
    26e0:	8d 58 01             	lea    0x1(%eax),%ebx
    26e3:	e9 38 ed ff ff       	jmp    1420 <main+0x2d0>
    26e8:	83 fe 08             	cmp    $0x8,%esi
    26eb:	75 23                	jne    2710 <main+0x15c0>
    26ed:	a1 20 3b 03 00       	mov    0x33b20,%eax
    26f2:	b9 07 00 00 00       	mov    $0x7,%ecx
    26f7:	05 d4 00 00 00       	add    $0xd4,%eax
    26fc:	89 c2                	mov    %eax,%edx
    26fe:	a3 20 3b 03 00       	mov    %eax,0x33b20
    2703:	c1 fa 1f             	sar    $0x1f,%edx
    2706:	f7 f9                	idiv   %ecx
    2708:	8d 58 01             	lea    0x1(%eax),%ebx
    270b:	e9 10 ed ff ff       	jmp    1420 <main+0x2d0>
    2710:	83 fe 09             	cmp    $0x9,%esi
    2713:	75 23                	jne    2738 <main+0x15e8>
    2715:	a1 20 3b 03 00       	mov    0x33b20,%eax
    271a:	b9 07 00 00 00       	mov    $0x7,%ecx
    271f:	05 f3 00 00 00       	add    $0xf3,%eax
    2724:	89 c2                	mov    %eax,%edx
    2726:	a3 20 3b 03 00       	mov    %eax,0x33b20
    272b:	c1 fa 1f             	sar    $0x1f,%edx
    272e:	f7 f9                	idiv   %ecx
    2730:	8d 58 01             	lea    0x1(%eax),%ebx
    2733:	e9 e8 ec ff ff       	jmp    1420 <main+0x2d0>
    2738:	83 fe 0a             	cmp    $0xa,%esi
    273b:	75 23                	jne    2760 <main+0x1610>
    273d:	a1 20 3b 03 00       	mov    0x33b20,%eax
    2742:	b9 07 00 00 00       	mov    $0x7,%ecx
    2747:	05 11 01 00 00       	add    $0x111,%eax
    274c:	89 c2                	mov    %eax,%edx
    274e:	a3 20 3b 03 00       	mov    %eax,0x33b20
    2753:	c1 fa 1f             	sar    $0x1f,%edx
    2756:	f7 f9                	idiv   %ecx
    2758:	8d 58 01             	lea    0x1(%eax),%ebx
    275b:	e9 c0 ec ff ff       	jmp    1420 <main+0x2d0>
    2760:	83 fe 0b             	cmp    $0xb,%esi
    2763:	75 23                	jne    2788 <main+0x1638>
    2765:	a1 20 3b 03 00       	mov    0x33b20,%eax
    276a:	b9 07 00 00 00       	mov    $0x7,%ecx
    276f:	05 30 01 00 00       	add    $0x130,%eax
    2774:	89 c2                	mov    %eax,%edx
    2776:	a3 20 3b 03 00       	mov    %eax,0x33b20
    277b:	c1 fa 1f             	sar    $0x1f,%edx
    277e:	f7 f9                	idiv   %ecx
    2780:	8d 58 01             	lea    0x1(%eax),%ebx
    2783:	e9 98 ec ff ff       	jmp    1420 <main+0x2d0>
    2788:	83 fe 0c             	cmp    $0xc,%esi
    278b:	0f 85 8f ec ff ff    	jne    1420 <main+0x2d0>
    2791:	a1 20 3b 03 00       	mov    0x33b20,%eax
    2796:	b9 07 00 00 00       	mov    $0x7,%ecx
    279b:	05 4e 01 00 00       	add    $0x14e,%eax
    27a0:	89 c2                	mov    %eax,%edx
    27a2:	a3 20 3b 03 00       	mov    %eax,0x33b20
    27a7:	c1 fa 1f             	sar    $0x1f,%edx
    27aa:	f7 f9                	idiv   %ecx
    27ac:	8d 58 01             	lea    0x1(%eax),%ebx
    27af:	e9 6c ec ff ff       	jmp    1420 <main+0x2d0>
    27b4:	31 db                	xor    %ebx,%ebx
    27b6:	83 fe 06             	cmp    $0x6,%esi
    27b9:	75 47                	jne    2802 <main+0x16b2>
    27bb:	a1 20 3b 03 00       	mov    0x33b20,%eax
    27c0:	b9 07 00 00 00       	mov    $0x7,%ecx
    27c5:	05 97 00 00 00       	add    $0x97,%eax
    27ca:	89 c2                	mov    %eax,%edx
    27cc:	a3 20 3b 03 00       	mov    %eax,0x33b20
    27d1:	c1 fa 1f             	sar    $0x1f,%edx
    27d4:	f7 f9                	idiv   %ecx
    27d6:	83 fa 04             	cmp    $0x4,%edx
    27d9:	8d 58 02             	lea    0x2(%eax),%ebx
    27dc:	0f 84 3e ec ff ff    	je     1420 <main+0x2d0>
    27e2:	8d 58 02             	lea    0x2(%eax),%ebx
    27e5:	83 fa 05             	cmp    $0x5,%edx
    27e8:	0f 84 32 ec ff ff    	je     1420 <main+0x2d0>
    27ee:	8d 58 01             	lea    0x1(%eax),%ebx
    27f1:	83 fa 06             	cmp    $0x6,%edx
    27f4:	0f 85 26 ec ff ff    	jne    1420 <main+0x2d0>
    27fa:	8d 58 02             	lea    0x2(%eax),%ebx
    27fd:	e9 1e ec ff ff       	jmp    1420 <main+0x2d0>
    2802:	83 fe 07             	cmp    $0x7,%esi
    2805:	75 42                	jne    2849 <main+0x16f9>
    2807:	a1 20 3b 03 00       	mov    0x33b20,%eax
    280c:	05 b5 00 00 00       	add    $0xb5,%eax
    2811:	89 c2                	mov    %eax,%edx
    2813:	a3 20 3b 03 00       	mov    %eax,0x33b20
    2818:	c1 fa 1f             	sar    $0x1f,%edx
    281b:	f7 fe                	idiv   %esi
    281d:	83 fa 04             	cmp    $0x4,%edx
    2820:	8d 58 02             	lea    0x2(%eax),%ebx
    2823:	0f 84 f7 eb ff ff    	je     1420 <main+0x2d0>
    2829:	8d 58 02             	lea    0x2(%eax),%ebx
    282c:	83 fa 05             	cmp    $0x5,%edx
    282f:	0f 84 eb eb ff ff    	je     1420 <main+0x2d0>
    2835:	8d 58 01             	lea    0x1(%eax),%ebx
    2838:	83 fa 06             	cmp    $0x6,%edx
    283b:	0f 85 df eb ff ff    	jne    1420 <main+0x2d0>
    2841:	8d 58 02             	lea    0x2(%eax),%ebx
    2844:	e9 d7 eb ff ff       	jmp    1420 <main+0x2d0>
    2849:	83 fe 08             	cmp    $0x8,%esi
    284c:	75 47                	jne    2895 <main+0x1745>
    284e:	a1 20 3b 03 00       	mov    0x33b20,%eax
    2853:	b9 07 00 00 00       	mov    $0x7,%ecx
    2858:	05 d4 00 00 00       	add    $0xd4,%eax
    285d:	89 c2                	mov    %eax,%edx
    285f:	a3 20 3b 03 00       	mov    %eax,0x33b20
    2864:	c1 fa 1f             	sar    $0x1f,%edx
    2867:	f7 f9                	idiv   %ecx
    2869:	83 fa 04             	cmp    $0x4,%edx
    286c:	8d 58 02             	lea    0x2(%eax),%ebx
    286f:	0f 84 ab eb ff ff    	je     1420 <main+0x2d0>
    2875:	8d 58 02             	lea    0x2(%eax),%ebx
    2878:	83 fa 05             	cmp    $0x5,%edx
    287b:	0f 84 9f eb ff ff    	je     1420 <main+0x2d0>
    2881:	8d 58 01             	lea    0x1(%eax),%ebx
    2884:	83 fa 06             	cmp    $0x6,%edx
    2887:	0f 85 93 eb ff ff    	jne    1420 <main+0x2d0>
    288d:	8d 58 02             	lea    0x2(%eax),%ebx
    2890:	e9 8b eb ff ff       	jmp    1420 <main+0x2d0>
    2895:	83 fe 09             	cmp    $0x9,%esi
    2898:	75 47                	jne    28e1 <main+0x1791>
    289a:	a1 20 3b 03 00       	mov    0x33b20,%eax
    289f:	b9 07 00 00 00       	mov    $0x7,%ecx
    28a4:	05 f3 00 00 00       	add    $0xf3,%eax
    28a9:	89 c2                	mov    %eax,%edx
    28ab:	a3 20 3b 03 00       	mov    %eax,0x33b20
    28b0:	c1 fa 1f             	sar    $0x1f,%edx
    28b3:	f7 f9                	idiv   %ecx
    28b5:	83 fa 04             	cmp    $0x4,%edx
    28b8:	8d 58 02             	lea    0x2(%eax),%ebx
    28bb:	0f 84 5f eb ff ff    	je     1420 <main+0x2d0>
    28c1:	8d 58 02             	lea    0x2(%eax),%ebx
    28c4:	83 fa 05             	cmp    $0x5,%edx
    28c7:	0f 84 53 eb ff ff    	je     1420 <main+0x2d0>
    28cd:	8d 58 01             	lea    0x1(%eax),%ebx
    28d0:	83 fa 06             	cmp    $0x6,%edx
    28d3:	0f 85 47 eb ff ff    	jne    1420 <main+0x2d0>
    28d9:	8d 58 02             	lea    0x2(%eax),%ebx
    28dc:	e9 3f eb ff ff       	jmp    1420 <main+0x2d0>
    28e1:	83 fe 0a             	cmp    $0xa,%esi
    28e4:	75 47                	jne    292d <main+0x17dd>
    28e6:	a1 20 3b 03 00       	mov    0x33b20,%eax
    28eb:	b9 07 00 00 00       	mov    $0x7,%ecx
    28f0:	05 11 01 00 00       	add    $0x111,%eax
    28f5:	89 c2                	mov    %eax,%edx
    28f7:	a3 20 3b 03 00       	mov    %eax,0x33b20
    28fc:	c1 fa 1f             	sar    $0x1f,%edx
    28ff:	f7 f9                	idiv   %ecx
    2901:	83 fa 04             	cmp    $0x4,%edx
    2904:	8d 58 02             	lea    0x2(%eax),%ebx
    2907:	0f 84 13 eb ff ff    	je     1420 <main+0x2d0>
    290d:	8d 58 02             	lea    0x2(%eax),%ebx
    2910:	83 fa 05             	cmp    $0x5,%edx
    2913:	0f 84 07 eb ff ff    	je     1420 <main+0x2d0>
    2919:	8d 58 01             	lea    0x1(%eax),%ebx
    291c:	83 fa 06             	cmp    $0x6,%edx
    291f:	0f 85 fb ea ff ff    	jne    1420 <main+0x2d0>
    2925:	8d 58 02             	lea    0x2(%eax),%ebx
    2928:	e9 f3 ea ff ff       	jmp    1420 <main+0x2d0>
    292d:	83 fe 0b             	cmp    $0xb,%esi
    2930:	75 47                	jne    2979 <main+0x1829>
    2932:	a1 20 3b 03 00       	mov    0x33b20,%eax
    2937:	b9 07 00 00 00       	mov    $0x7,%ecx
    293c:	05 30 01 00 00       	add    $0x130,%eax
    2941:	89 c2                	mov    %eax,%edx
    2943:	a3 20 3b 03 00       	mov    %eax,0x33b20
    2948:	c1 fa 1f             	sar    $0x1f,%edx
    294b:	f7 f9                	idiv   %ecx
    294d:	83 fa 04             	cmp    $0x4,%edx
    2950:	8d 58 02             	lea    0x2(%eax),%ebx
    2953:	0f 84 c7 ea ff ff    	je     1420 <main+0x2d0>
    2959:	8d 58 02             	lea    0x2(%eax),%ebx
    295c:	83 fa 05             	cmp    $0x5,%edx
    295f:	0f 84 bb ea ff ff    	je     1420 <main+0x2d0>
    2965:	8d 58 01             	lea    0x1(%eax),%ebx
    2968:	83 fa 06             	cmp    $0x6,%edx
    296b:	0f 85 af ea ff ff    	jne    1420 <main+0x2d0>
    2971:	8d 58 02             	lea    0x2(%eax),%ebx
    2974:	e9 a7 ea ff ff       	jmp    1420 <main+0x2d0>
    2979:	83 fe 0c             	cmp    $0xc,%esi
    297c:	0f 85 9e ea ff ff    	jne    1420 <main+0x2d0>
    2982:	a1 20 3b 03 00       	mov    0x33b20,%eax
    2987:	b9 07 00 00 00       	mov    $0x7,%ecx
    298c:	05 4e 01 00 00       	add    $0x14e,%eax
    2991:	89 c2                	mov    %eax,%edx
    2993:	a3 20 3b 03 00       	mov    %eax,0x33b20
    2998:	c1 fa 1f             	sar    $0x1f,%edx
    299b:	f7 f9                	idiv   %ecx
    299d:	83 fa 04             	cmp    $0x4,%edx
    29a0:	8d 58 02             	lea    0x2(%eax),%ebx
    29a3:	0f 84 77 ea ff ff    	je     1420 <main+0x2d0>
    29a9:	8d 58 02             	lea    0x2(%eax),%ebx
    29ac:	83 fa 05             	cmp    $0x5,%edx
    29af:	0f 84 6b ea ff ff    	je     1420 <main+0x2d0>
    29b5:	8d 58 01             	lea    0x1(%eax),%ebx
    29b8:	83 fa 06             	cmp    $0x6,%edx
    29bb:	0f 85 5f ea ff ff    	jne    1420 <main+0x2d0>
    29c1:	8d 58 02             	lea    0x2(%eax),%ebx
    29c4:	e9 57 ea ff ff       	jmp    1420 <main+0x2d0>
    29c9:	83 fe 05             	cmp    $0x5,%esi
    29cc:	0f 85 80 01 00 00    	jne    2b52 <main+0x1a02>
    29d2:	a1 20 3b 03 00       	mov    0x33b20,%eax
    29d7:	b9 07 00 00 00       	mov    $0x7,%ecx
    29dc:	83 c0 79             	add    $0x79,%eax
    29df:	89 c2                	mov    %eax,%edx
    29e1:	a3 20 3b 03 00       	mov    %eax,0x33b20
    29e6:	c1 fa 1f             	sar    $0x1f,%edx
    29e9:	f7 f9                	idiv   %ecx
    29eb:	8d 58 01             	lea    0x1(%eax),%ebx
    29ee:	e9 2d ea ff ff       	jmp    1420 <main+0x2d0>
    29f3:	31 db                	xor    %ebx,%ebx
    29f5:	83 fe 06             	cmp    $0x6,%esi
    29f8:	75 2d                	jne    2a27 <main+0x18d7>
    29fa:	a1 20 3b 03 00       	mov    0x33b20,%eax
    29ff:	b9 07 00 00 00       	mov    $0x7,%ecx
    2a04:	05 97 00 00 00       	add    $0x97,%eax
    2a09:	89 c2                	mov    %eax,%edx
    2a0b:	a3 20 3b 03 00       	mov    %eax,0x33b20
    2a10:	c1 fa 1f             	sar    $0x1f,%edx
    2a13:	f7 f9                	idiv   %ecx
    2a15:	85 d2                	test   %edx,%edx
    2a17:	8d 58 01             	lea    0x1(%eax),%ebx
    2a1a:	0f 85 00 ea ff ff    	jne    1420 <main+0x2d0>
    2a20:	89 c3                	mov    %eax,%ebx
    2a22:	e9 f9 e9 ff ff       	jmp    1420 <main+0x2d0>
    2a27:	83 fe 07             	cmp    $0x7,%esi
    2a2a:	75 28                	jne    2a54 <main+0x1904>
    2a2c:	a1 20 3b 03 00       	mov    0x33b20,%eax
    2a31:	05 b5 00 00 00       	add    $0xb5,%eax
    2a36:	89 c2                	mov    %eax,%edx
    2a38:	a3 20 3b 03 00       	mov    %eax,0x33b20
    2a3d:	c1 fa 1f             	sar    $0x1f,%edx
    2a40:	f7 fe                	idiv   %esi
    2a42:	85 d2                	test   %edx,%edx
    2a44:	8d 58 01             	lea    0x1(%eax),%ebx
    2a47:	0f 85 d3 e9 ff ff    	jne    1420 <main+0x2d0>
    2a4d:	89 c3                	mov    %eax,%ebx
    2a4f:	e9 cc e9 ff ff       	jmp    1420 <main+0x2d0>
    2a54:	83 fe 08             	cmp    $0x8,%esi
    2a57:	75 2d                	jne    2a86 <main+0x1936>
    2a59:	a1 20 3b 03 00       	mov    0x33b20,%eax
    2a5e:	b9 07 00 00 00       	mov    $0x7,%ecx
    2a63:	05 d4 00 00 00       	add    $0xd4,%eax
    2a68:	89 c2                	mov    %eax,%edx
    2a6a:	a3 20 3b 03 00       	mov    %eax,0x33b20
    2a6f:	c1 fa 1f             	sar    $0x1f,%edx
    2a72:	f7 f9                	idiv   %ecx
    2a74:	85 d2                	test   %edx,%edx
    2a76:	8d 58 01             	lea    0x1(%eax),%ebx
    2a79:	0f 85 a1 e9 ff ff    	jne    1420 <main+0x2d0>
    2a7f:	89 c3                	mov    %eax,%ebx
    2a81:	e9 9a e9 ff ff       	jmp    1420 <main+0x2d0>
    2a86:	83 fe 09             	cmp    $0x9,%esi
    2a89:	75 2d                	jne    2ab8 <main+0x1968>
    2a8b:	a1 20 3b 03 00       	mov    0x33b20,%eax
    2a90:	b9 07 00 00 00       	mov    $0x7,%ecx
    2a95:	05 f3 00 00 00       	add    $0xf3,%eax
    2a9a:	89 c2                	mov    %eax,%edx
    2a9c:	a3 20 3b 03 00       	mov    %eax,0x33b20
    2aa1:	c1 fa 1f             	sar    $0x1f,%edx
    2aa4:	f7 f9                	idiv   %ecx
    2aa6:	85 d2                	test   %edx,%edx
    2aa8:	8d 58 01             	lea    0x1(%eax),%ebx
    2aab:	0f 85 6f e9 ff ff    	jne    1420 <main+0x2d0>
    2ab1:	89 c3                	mov    %eax,%ebx
    2ab3:	e9 68 e9 ff ff       	jmp    1420 <main+0x2d0>
    2ab8:	83 fe 0a             	cmp    $0xa,%esi
    2abb:	75 2d                	jne    2aea <main+0x199a>
    2abd:	a1 20 3b 03 00       	mov    0x33b20,%eax
    2ac2:	b9 07 00 00 00       	mov    $0x7,%ecx
    2ac7:	05 11 01 00 00       	add    $0x111,%eax
    2acc:	89 c2                	mov    %eax,%edx
    2ace:	a3 20 3b 03 00       	mov    %eax,0x33b20
    2ad3:	c1 fa 1f             	sar    $0x1f,%edx
    2ad6:	f7 f9                	idiv   %ecx
    2ad8:	85 d2                	test   %edx,%edx
    2ada:	8d 58 01             	lea    0x1(%eax),%ebx
    2add:	0f 85 3d e9 ff ff    	jne    1420 <main+0x2d0>
    2ae3:	89 c3                	mov    %eax,%ebx
    2ae5:	e9 36 e9 ff ff       	jmp    1420 <main+0x2d0>
    2aea:	83 fe 0b             	cmp    $0xb,%esi
    2aed:	75 2d                	jne    2b1c <main+0x19cc>
    2aef:	a1 20 3b 03 00       	mov    0x33b20,%eax
    2af4:	b9 07 00 00 00       	mov    $0x7,%ecx
    2af9:	05 30 01 00 00       	add    $0x130,%eax
    2afe:	89 c2                	mov    %eax,%edx
    2b00:	a3 20 3b 03 00       	mov    %eax,0x33b20
    2b05:	c1 fa 1f             	sar    $0x1f,%edx
    2b08:	f7 f9                	idiv   %ecx
    2b0a:	85 d2                	test   %edx,%edx
    2b0c:	8d 58 01             	lea    0x1(%eax),%ebx
    2b0f:	0f 85 0b e9 ff ff    	jne    1420 <main+0x2d0>
    2b15:	89 c3                	mov    %eax,%ebx
    2b17:	e9 04 e9 ff ff       	jmp    1420 <main+0x2d0>
    2b1c:	83 fe 0c             	cmp    $0xc,%esi
    2b1f:	0f 85 fb e8 ff ff    	jne    1420 <main+0x2d0>
    2b25:	a1 20 3b 03 00       	mov    0x33b20,%eax
    2b2a:	b9 07 00 00 00       	mov    $0x7,%ecx
    2b2f:	05 4e 01 00 00       	add    $0x14e,%eax
    2b34:	89 c2                	mov    %eax,%edx
    2b36:	a3 20 3b 03 00       	mov    %eax,0x33b20
    2b3b:	c1 fa 1f             	sar    $0x1f,%edx
    2b3e:	f7 f9                	idiv   %ecx
    2b40:	85 d2                	test   %edx,%edx
    2b42:	8d 58 01             	lea    0x1(%eax),%ebx
    2b45:	0f 85 d5 e8 ff ff    	jne    1420 <main+0x2d0>
    2b4b:	89 c3                	mov    %eax,%ebx
    2b4d:	e9 ce e8 ff ff       	jmp    1420 <main+0x2d0>
    2b52:	31 db                	xor    %ebx,%ebx
    2b54:	83 fe 06             	cmp    $0x6,%esi
    2b57:	75 23                	jne    2b7c <main+0x1a2c>
    2b59:	a1 20 3b 03 00       	mov    0x33b20,%eax
    2b5e:	b9 07 00 00 00       	mov    $0x7,%ecx
    2b63:	05 98 00 00 00       	add    $0x98,%eax
    2b68:	89 c2                	mov    %eax,%edx
    2b6a:	a3 20 3b 03 00       	mov    %eax,0x33b20
    2b6f:	c1 fa 1f             	sar    $0x1f,%edx
    2b72:	f7 f9                	idiv   %ecx
    2b74:	8d 58 01             	lea    0x1(%eax),%ebx
    2b77:	e9 a4 e8 ff ff       	jmp    1420 <main+0x2d0>
    2b7c:	83 fe 07             	cmp    $0x7,%esi
    2b7f:	0f 85 16 01 00 00    	jne    2c9b <main+0x1b4b>
    2b85:	a1 20 3b 03 00       	mov    0x33b20,%eax
    2b8a:	05 b6 00 00 00       	add    $0xb6,%eax
    2b8f:	89 c2                	mov    %eax,%edx
    2b91:	a3 20 3b 03 00       	mov    %eax,0x33b20
    2b96:	c1 fa 1f             	sar    $0x1f,%edx
    2b99:	f7 fe                	idiv   %esi
    2b9b:	8d 58 01             	lea    0x1(%eax),%ebx
    2b9e:	e9 7d e8 ff ff       	jmp    1420 <main+0x2d0>
    2ba3:	83 fe 05             	cmp    $0x5,%esi
    2ba6:	0f 85 1b 01 00 00    	jne    2cc7 <main+0x1b77>
    2bac:	a1 20 3b 03 00       	mov    0x33b20,%eax
    2bb1:	b9 07 00 00 00       	mov    $0x7,%ecx
    2bb6:	83 c0 79             	add    $0x79,%eax
    2bb9:	89 c2                	mov    %eax,%edx
    2bbb:	a3 20 3b 03 00       	mov    %eax,0x33b20
    2bc0:	c1 fa 1f             	sar    $0x1f,%edx
    2bc3:	f7 f9                	idiv   %ecx
    2bc5:	83 fa 01             	cmp    $0x1,%edx
    2bc8:	8d 58 02             	lea    0x2(%eax),%ebx
    2bcb:	0f 87 4f e8 ff ff    	ja     1420 <main+0x2d0>
    2bd1:	8d 58 01             	lea    0x1(%eax),%ebx
    2bd4:	e9 47 e8 ff ff       	jmp    1420 <main+0x2d0>
    2bd9:	83 fe 05             	cmp    $0x5,%esi
    2bdc:	75 10                	jne    2bee <main+0x1a9e>
    2bde:	8b 3d 20 3b 03 00    	mov    0x33b20,%edi
    2be4:	83 c7 79             	add    $0x79,%edi
    2be7:	89 f8                	mov    %edi,%eax
    2be9:	e9 f2 e7 ff ff       	jmp    13e0 <main+0x290>
    2bee:	83 fe 06             	cmp    $0x6,%esi
    2bf1:	75 13                	jne    2c06 <main+0x1ab6>
    2bf3:	8b 3d 20 3b 03 00    	mov    0x33b20,%edi
    2bf9:	81 c7 98 00 00 00    	add    $0x98,%edi
    2bff:	89 f8                	mov    %edi,%eax
    2c01:	e9 da e7 ff ff       	jmp    13e0 <main+0x290>
    2c06:	83 fe 07             	cmp    $0x7,%esi
    2c09:	0f 85 21 01 00 00    	jne    2d30 <main+0x1be0>
    2c0f:	a1 20 3b 03 00       	mov    0x33b20,%eax
    2c14:	05 b6 00 00 00       	add    $0xb6,%eax
    2c19:	89 c2                	mov    %eax,%edx
    2c1b:	c1 fa 1f             	sar    $0x1f,%edx
    2c1e:	f7 fe                	idiv   %esi
    2c20:	8d 04 11             	lea    (%ecx,%edx,1),%eax
    2c23:	89 c2                	mov    %eax,%edx
    2c25:	c1 fa 1f             	sar    $0x1f,%edx
    2c28:	f7 fe                	idiv   %esi
    2c2a:	89 54 24 38          	mov    %edx,0x38(%esp)
    2c2e:	e9 c8 e7 ff ff       	jmp    13fb <main+0x2ab>
    2c33:	83 fe 04             	cmp    $0x4,%esi
    2c36:	0f 85 10 01 00 00    	jne    2d4c <main+0x1bfc>
    2c3c:	a1 20 3b 03 00       	mov    0x33b20,%eax
    2c41:	b9 07 00 00 00       	mov    $0x7,%ecx
    2c46:	83 c0 5a             	add    $0x5a,%eax
    2c49:	89 c2                	mov    %eax,%edx
    2c4b:	a3 20 3b 03 00       	mov    %eax,0x33b20
    2c50:	c1 fa 1f             	sar    $0x1f,%edx
    2c53:	f7 f9                	idiv   %ecx
    2c55:	4a                   	dec    %edx
    2c56:	8d 58 02             	lea    0x2(%eax),%ebx
    2c59:	0f 85 c1 e7 ff ff    	jne    1420 <main+0x2d0>
    2c5f:	8d 58 01             	lea    0x1(%eax),%ebx
    2c62:	e9 b9 e7 ff ff       	jmp    1420 <main+0x2d0>
    2c67:	83 fe 05             	cmp    $0x5,%esi
    2c6a:	0f 85 10 01 00 00    	jne    2d80 <main+0x1c30>
    2c70:	a1 20 3b 03 00       	mov    0x33b20,%eax
    2c75:	b9 07 00 00 00       	mov    $0x7,%ecx
    2c7a:	83 c0 79             	add    $0x79,%eax
    2c7d:	89 c2                	mov    %eax,%edx
    2c7f:	a3 20 3b 03 00       	mov    %eax,0x33b20
    2c84:	c1 fa 1f             	sar    $0x1f,%edx
    2c87:	f7 f9                	idiv   %ecx
    2c89:	85 d2                	test   %edx,%edx
    2c8b:	8d 58 01             	lea    0x1(%eax),%ebx
    2c8e:	0f 85 8c e7 ff ff    	jne    1420 <main+0x2d0>
    2c94:	89 c3                	mov    %eax,%ebx
    2c96:	e9 85 e7 ff ff       	jmp    1420 <main+0x2d0>
    2c9b:	83 fe 08             	cmp    $0x8,%esi
    2c9e:	0f 85 41 01 00 00    	jne    2de5 <main+0x1c95>
    2ca4:	a1 20 3b 03 00       	mov    0x33b20,%eax
    2ca9:	b9 07 00 00 00       	mov    $0x7,%ecx
    2cae:	05 d5 00 00 00       	add    $0xd5,%eax
    2cb3:	89 c2                	mov    %eax,%edx
    2cb5:	a3 20 3b 03 00       	mov    %eax,0x33b20
    2cba:	c1 fa 1f             	sar    $0x1f,%edx
    2cbd:	f7 f9                	idiv   %ecx
    2cbf:	8d 58 01             	lea    0x1(%eax),%ebx
    2cc2:	e9 59 e7 ff ff       	jmp    1420 <main+0x2d0>
    2cc7:	31 db                	xor    %ebx,%ebx
    2cc9:	83 fe 06             	cmp    $0x6,%esi
    2ccc:	75 2f                	jne    2cfd <main+0x1bad>
    2cce:	a1 20 3b 03 00       	mov    0x33b20,%eax
    2cd3:	b9 07 00 00 00       	mov    $0x7,%ecx
    2cd8:	05 98 00 00 00       	add    $0x98,%eax
    2cdd:	89 c2                	mov    %eax,%edx
    2cdf:	a3 20 3b 03 00       	mov    %eax,0x33b20
    2ce4:	c1 fa 1f             	sar    $0x1f,%edx
    2ce7:	f7 f9                	idiv   %ecx
    2ce9:	83 fa 01             	cmp    $0x1,%edx
    2cec:	8d 58 02             	lea    0x2(%eax),%ebx
    2cef:	0f 87 2b e7 ff ff    	ja     1420 <main+0x2d0>
    2cf5:	8d 58 01             	lea    0x1(%eax),%ebx
    2cf8:	e9 23 e7 ff ff       	jmp    1420 <main+0x2d0>
    2cfd:	83 fe 07             	cmp    $0x7,%esi
    2d00:	0f 85 0b 01 00 00    	jne    2e11 <main+0x1cc1>
    2d06:	a1 20 3b 03 00       	mov    0x33b20,%eax
    2d0b:	05 b6 00 00 00       	add    $0xb6,%eax
    2d10:	89 c2                	mov    %eax,%edx
    2d12:	a3 20 3b 03 00       	mov    %eax,0x33b20
    2d17:	c1 fa 1f             	sar    $0x1f,%edx
    2d1a:	f7 fe                	idiv   %esi
    2d1c:	83 fa 01             	cmp    $0x1,%edx
    2d1f:	8d 58 02             	lea    0x2(%eax),%ebx
    2d22:	0f 87 f8 e6 ff ff    	ja     1420 <main+0x2d0>
    2d28:	8d 58 01             	lea    0x1(%eax),%ebx
    2d2b:	e9 f0 e6 ff ff       	jmp    1420 <main+0x2d0>
    2d30:	83 fe 08             	cmp    $0x8,%esi
    2d33:	0f 85 10 01 00 00    	jne    2e49 <main+0x1cf9>
    2d39:	8b 3d 20 3b 03 00    	mov    0x33b20,%edi
    2d3f:	81 c7 d5 00 00 00    	add    $0xd5,%edi
    2d45:	89 f8                	mov    %edi,%eax
    2d47:	e9 94 e6 ff ff       	jmp    13e0 <main+0x290>
    2d4c:	83 fe 05             	cmp    $0x5,%esi
    2d4f:	0f 85 10 01 00 00    	jne    2e65 <main+0x1d15>
    2d55:	a1 20 3b 03 00       	mov    0x33b20,%eax
    2d5a:	b9 07 00 00 00       	mov    $0x7,%ecx
    2d5f:	83 c0 78             	add    $0x78,%eax
    2d62:	89 c2                	mov    %eax,%edx
    2d64:	a3 20 3b 03 00       	mov    %eax,0x33b20
    2d69:	c1 fa 1f             	sar    $0x1f,%edx
    2d6c:	f7 f9                	idiv   %ecx
    2d6e:	4a                   	dec    %edx
    2d6f:	8d 58 02             	lea    0x2(%eax),%ebx
    2d72:	0f 85 a8 e6 ff ff    	jne    1420 <main+0x2d0>
    2d78:	8d 58 01             	lea    0x1(%eax),%ebx
    2d7b:	e9 a0 e6 ff ff       	jmp    1420 <main+0x2d0>
    2d80:	31 db                	xor    %ebx,%ebx
    2d82:	83 fe 06             	cmp    $0x6,%esi
    2d85:	75 2d                	jne    2db4 <main+0x1c64>
    2d87:	a1 20 3b 03 00       	mov    0x33b20,%eax
    2d8c:	b9 07 00 00 00       	mov    $0x7,%ecx
    2d91:	05 98 00 00 00       	add    $0x98,%eax
    2d96:	89 c2                	mov    %eax,%edx
    2d98:	a3 20 3b 03 00       	mov    %eax,0x33b20
    2d9d:	c1 fa 1f             	sar    $0x1f,%edx
    2da0:	f7 f9                	idiv   %ecx
    2da2:	85 d2                	test   %edx,%edx
    2da4:	8d 58 01             	lea    0x1(%eax),%ebx
    2da7:	0f 85 73 e6 ff ff    	jne    1420 <main+0x2d0>
    2dad:	89 c3                	mov    %eax,%ebx
    2daf:	e9 6c e6 ff ff       	jmp    1420 <main+0x2d0>
    2db4:	83 fe 07             	cmp    $0x7,%esi
    2db7:	0f 85 e0 00 00 00    	jne    2e9d <main+0x1d4d>
    2dbd:	a1 20 3b 03 00       	mov    0x33b20,%eax
    2dc2:	05 b6 00 00 00       	add    $0xb6,%eax
    2dc7:	89 c2                	mov    %eax,%edx
    2dc9:	a3 20 3b 03 00       	mov    %eax,0x33b20
    2dce:	c1 fa 1f             	sar    $0x1f,%edx
    2dd1:	f7 fe                	idiv   %esi
    2dd3:	85 d2                	test   %edx,%edx
    2dd5:	8d 58 01             	lea    0x1(%eax),%ebx
    2dd8:	0f 85 42 e6 ff ff    	jne    1420 <main+0x2d0>
    2dde:	89 c3                	mov    %eax,%ebx
    2de0:	e9 3b e6 ff ff       	jmp    1420 <main+0x2d0>
    2de5:	83 fe 09             	cmp    $0x9,%esi
    2de8:	0f 85 e5 00 00 00    	jne    2ed3 <main+0x1d83>
    2dee:	a1 20 3b 03 00       	mov    0x33b20,%eax
    2df3:	b9 07 00 00 00       	mov    $0x7,%ecx
    2df8:	05 f4 00 00 00       	add    $0xf4,%eax
    2dfd:	89 c2                	mov    %eax,%edx
    2dff:	a3 20 3b 03 00       	mov    %eax,0x33b20
    2e04:	c1 fa 1f             	sar    $0x1f,%edx
    2e07:	f7 f9                	idiv   %ecx
    2e09:	8d 58 01             	lea    0x1(%eax),%ebx
    2e0c:	e9 0f e6 ff ff       	jmp    1420 <main+0x2d0>
    2e11:	83 fe 08             	cmp    $0x8,%esi
    2e14:	0f 85 e5 00 00 00    	jne    2eff <main+0x1daf>
    2e1a:	a1 20 3b 03 00       	mov    0x33b20,%eax
    2e1f:	b9 07 00 00 00       	mov    $0x7,%ecx
    2e24:	05 d5 00 00 00       	add    $0xd5,%eax
    2e29:	89 c2                	mov    %eax,%edx
    2e2b:	a3 20 3b 03 00       	mov    %eax,0x33b20
    2e30:	c1 fa 1f             	sar    $0x1f,%edx
    2e33:	f7 f9                	idiv   %ecx
    2e35:	83 fa 01             	cmp    $0x1,%edx
    2e38:	8d 58 02             	lea    0x2(%eax),%ebx
    2e3b:	0f 87 df e5 ff ff    	ja     1420 <main+0x2d0>
    2e41:	8d 58 01             	lea    0x1(%eax),%ebx
    2e44:	e9 d7 e5 ff ff       	jmp    1420 <main+0x2d0>
    2e49:	83 fe 09             	cmp    $0x9,%esi
    2e4c:	0f 85 e5 00 00 00    	jne    2f37 <main+0x1de7>
    2e52:	8b 3d 20 3b 03 00    	mov    0x33b20,%edi
    2e58:	81 c7 f4 00 00 00    	add    $0xf4,%edi
    2e5e:	89 f8                	mov    %edi,%eax
    2e60:	e9 7b e5 ff ff       	jmp    13e0 <main+0x290>
    2e65:	31 db                	xor    %ebx,%ebx
    2e67:	83 fe 06             	cmp    $0x6,%esi
    2e6a:	0f 85 e3 00 00 00    	jne    2f53 <main+0x1e03>
    2e70:	a1 20 3b 03 00       	mov    0x33b20,%eax
    2e75:	b9 07 00 00 00       	mov    $0x7,%ecx
    2e7a:	05 97 00 00 00       	add    $0x97,%eax
    2e7f:	89 c2                	mov    %eax,%edx
    2e81:	a3 20 3b 03 00       	mov    %eax,0x33b20
    2e86:	c1 fa 1f             	sar    $0x1f,%edx
    2e89:	f7 f9                	idiv   %ecx
    2e8b:	4a                   	dec    %edx
    2e8c:	8d 58 02             	lea    0x2(%eax),%ebx
    2e8f:	0f 85 8b e5 ff ff    	jne    1420 <main+0x2d0>
    2e95:	8d 58 01             	lea    0x1(%eax),%ebx
    2e98:	e9 83 e5 ff ff       	jmp    1420 <main+0x2d0>
    2e9d:	83 fe 08             	cmp    $0x8,%esi
    2ea0:	0f 85 de 00 00 00    	jne    2f84 <main+0x1e34>
    2ea6:	a1 20 3b 03 00       	mov    0x33b20,%eax
    2eab:	b9 07 00 00 00       	mov    $0x7,%ecx
    2eb0:	05 d5 00 00 00       	add    $0xd5,%eax
    2eb5:	89 c2                	mov    %eax,%edx
    2eb7:	a3 20 3b 03 00       	mov    %eax,0x33b20
    2ebc:	c1 fa 1f             	sar    $0x1f,%edx
    2ebf:	f7 f9                	idiv   %ecx
    2ec1:	85 d2                	test   %edx,%edx
    2ec3:	8d 58 01             	lea    0x1(%eax),%ebx
    2ec6:	0f 85 54 e5 ff ff    	jne    1420 <main+0x2d0>
    2ecc:	89 c3                	mov    %eax,%ebx
    2ece:	e9 4d e5 ff ff       	jmp    1420 <main+0x2d0>
    2ed3:	83 fe 0a             	cmp    $0xa,%esi
    2ed6:	0f 85 de 00 00 00    	jne    2fba <main+0x1e6a>
    2edc:	a1 20 3b 03 00       	mov    0x33b20,%eax
    2ee1:	b9 07 00 00 00       	mov    $0x7,%ecx
    2ee6:	05 12 01 00 00       	add    $0x112,%eax
    2eeb:	89 c2                	mov    %eax,%edx
    2eed:	a3 20 3b 03 00       	mov    %eax,0x33b20
    2ef2:	c1 fa 1f             	sar    $0x1f,%edx
    2ef5:	f7 f9                	idiv   %ecx
    2ef7:	8d 58 01             	lea    0x1(%eax),%ebx
    2efa:	e9 21 e5 ff ff       	jmp    1420 <main+0x2d0>
    2eff:	83 fe 09             	cmp    $0x9,%esi
    2f02:	0f 85 de 00 00 00    	jne    2fe6 <main+0x1e96>
    2f08:	a1 20 3b 03 00       	mov    0x33b20,%eax
    2f0d:	b9 07 00 00 00       	mov    $0x7,%ecx
    2f12:	05 f4 00 00 00       	add    $0xf4,%eax
    2f17:	89 c2                	mov    %eax,%edx
    2f19:	a3 20 3b 03 00       	mov    %eax,0x33b20
    2f1e:	c1 fa 1f             	sar    $0x1f,%edx
    2f21:	f7 f9                	idiv   %ecx
    2f23:	83 fa 01             	cmp    $0x1,%edx
    2f26:	8d 58 02             	lea    0x2(%eax),%ebx
    2f29:	0f 87 f1 e4 ff ff    	ja     1420 <main+0x2d0>
    2f2f:	8d 58 01             	lea    0x1(%eax),%ebx
    2f32:	e9 e9 e4 ff ff       	jmp    1420 <main+0x2d0>
    2f37:	83 fe 0a             	cmp    $0xa,%esi
    2f3a:	0f 85 de 00 00 00    	jne    301e <main+0x1ece>
    2f40:	8b 3d 20 3b 03 00    	mov    0x33b20,%edi
    2f46:	81 c7 12 01 00 00    	add    $0x112,%edi
    2f4c:	89 f8                	mov    %edi,%eax
    2f4e:	e9 8d e4 ff ff       	jmp    13e0 <main+0x290>
    2f53:	83 fe 07             	cmp    $0x7,%esi
    2f56:	0f 85 de 00 00 00    	jne    303a <main+0x1eea>
    2f5c:	a1 20 3b 03 00       	mov    0x33b20,%eax
    2f61:	05 b5 00 00 00       	add    $0xb5,%eax
    2f66:	89 c2                	mov    %eax,%edx
    2f68:	a3 20 3b 03 00       	mov    %eax,0x33b20
    2f6d:	c1 fa 1f             	sar    $0x1f,%edx
    2f70:	f7 fe                	idiv   %esi
    2f72:	4a                   	dec    %edx
    2f73:	8d 58 02             	lea    0x2(%eax),%ebx
    2f76:	0f 85 a4 e4 ff ff    	jne    1420 <main+0x2d0>
    2f7c:	8d 58 01             	lea    0x1(%eax),%ebx
    2f7f:	e9 9c e4 ff ff       	jmp    1420 <main+0x2d0>
    2f84:	83 fe 09             	cmp    $0x9,%esi
    2f87:	0f 85 e3 00 00 00    	jne    3070 <main+0x1f20>
    2f8d:	a1 20 3b 03 00       	mov    0x33b20,%eax
    2f92:	b9 07 00 00 00       	mov    $0x7,%ecx
    2f97:	05 f4 00 00 00       	add    $0xf4,%eax
    2f9c:	89 c2                	mov    %eax,%edx
    2f9e:	a3 20 3b 03 00       	mov    %eax,0x33b20
    2fa3:	c1 fa 1f             	sar    $0x1f,%edx
    2fa6:	f7 f9                	idiv   %ecx
    2fa8:	85 d2                	test   %edx,%edx
    2faa:	8d 58 01             	lea    0x1(%eax),%ebx
    2fad:	0f 85 6d e4 ff ff    	jne    1420 <main+0x2d0>
    2fb3:	89 c3                	mov    %eax,%ebx
    2fb5:	e9 66 e4 ff ff       	jmp    1420 <main+0x2d0>
    2fba:	83 fe 0b             	cmp    $0xb,%esi
    2fbd:	0f 85 e3 00 00 00    	jne    30a6 <main+0x1f56>
    2fc3:	a1 20 3b 03 00       	mov    0x33b20,%eax
    2fc8:	b9 07 00 00 00       	mov    $0x7,%ecx
    2fcd:	05 31 01 00 00       	add    $0x131,%eax
    2fd2:	89 c2                	mov    %eax,%edx
    2fd4:	a3 20 3b 03 00       	mov    %eax,0x33b20
    2fd9:	c1 fa 1f             	sar    $0x1f,%edx
    2fdc:	f7 f9                	idiv   %ecx
    2fde:	8d 58 01             	lea    0x1(%eax),%ebx
    2fe1:	e9 3a e4 ff ff       	jmp    1420 <main+0x2d0>
    2fe6:	83 fe 0a             	cmp    $0xa,%esi
    2fe9:	0f 85 e3 00 00 00    	jne    30d2 <main+0x1f82>
    2fef:	a1 20 3b 03 00       	mov    0x33b20,%eax
    2ff4:	b9 07 00 00 00       	mov    $0x7,%ecx
    2ff9:	05 12 01 00 00       	add    $0x112,%eax
    2ffe:	89 c2                	mov    %eax,%edx
    3000:	a3 20 3b 03 00       	mov    %eax,0x33b20
    3005:	c1 fa 1f             	sar    $0x1f,%edx
    3008:	f7 f9                	idiv   %ecx
    300a:	83 fa 01             	cmp    $0x1,%edx
    300d:	8d 58 02             	lea    0x2(%eax),%ebx
    3010:	0f 87 0a e4 ff ff    	ja     1420 <main+0x2d0>
    3016:	8d 58 01             	lea    0x1(%eax),%ebx
    3019:	e9 02 e4 ff ff       	jmp    1420 <main+0x2d0>
    301e:	83 fe 0b             	cmp    $0xb,%esi
    3021:	0f 85 7b 01 00 00    	jne    31a2 <main+0x2052>
    3027:	8b 3d 20 3b 03 00    	mov    0x33b20,%edi
    302d:	81 c7 31 01 00 00    	add    $0x131,%edi
    3033:	89 f8                	mov    %edi,%eax
    3035:	e9 a6 e3 ff ff       	jmp    13e0 <main+0x290>
    303a:	83 fe 08             	cmp    $0x8,%esi
    303d:	0f 85 c3 00 00 00    	jne    3106 <main+0x1fb6>
    3043:	a1 20 3b 03 00       	mov    0x33b20,%eax
    3048:	b9 07 00 00 00       	mov    $0x7,%ecx
    304d:	05 d4 00 00 00       	add    $0xd4,%eax
    3052:	89 c2                	mov    %eax,%edx
    3054:	a3 20 3b 03 00       	mov    %eax,0x33b20
    3059:	c1 fa 1f             	sar    $0x1f,%edx
    305c:	f7 f9                	idiv   %ecx
    305e:	4a                   	dec    %edx
    305f:	8d 58 02             	lea    0x2(%eax),%ebx
    3062:	0f 85 b8 e3 ff ff    	jne    1420 <main+0x2d0>
    3068:	8d 58 01             	lea    0x1(%eax),%ebx
    306b:	e9 b0 e3 ff ff       	jmp    1420 <main+0x2d0>
    3070:	83 fe 0a             	cmp    $0xa,%esi
    3073:	0f 85 45 01 00 00    	jne    31be <main+0x206e>
    3079:	a1 20 3b 03 00       	mov    0x33b20,%eax
    307e:	b9 07 00 00 00       	mov    $0x7,%ecx
    3083:	05 12 01 00 00       	add    $0x112,%eax
    3088:	89 c2                	mov    %eax,%edx
    308a:	a3 20 3b 03 00       	mov    %eax,0x33b20
    308f:	c1 fa 1f             	sar    $0x1f,%edx
    3092:	f7 f9                	idiv   %ecx
    3094:	85 d2                	test   %edx,%edx
    3096:	8d 58 01             	lea    0x1(%eax),%ebx
    3099:	0f 85 81 e3 ff ff    	jne    1420 <main+0x2d0>
    309f:	89 c3                	mov    %eax,%ebx
    30a1:	e9 7a e3 ff ff       	jmp    1420 <main+0x2d0>
    30a6:	83 fe 0c             	cmp    $0xc,%esi
    30a9:	0f 85 71 e3 ff ff    	jne    1420 <main+0x2d0>
    30af:	a1 20 3b 03 00       	mov    0x33b20,%eax
    30b4:	b9 07 00 00 00       	mov    $0x7,%ecx
    30b9:	05 4f 01 00 00       	add    $0x14f,%eax
    30be:	89 c2                	mov    %eax,%edx
    30c0:	a3 20 3b 03 00       	mov    %eax,0x33b20
    30c5:	c1 fa 1f             	sar    $0x1f,%edx
    30c8:	f7 f9                	idiv   %ecx
    30ca:	8d 58 01             	lea    0x1(%eax),%ebx
    30cd:	e9 4e e3 ff ff       	jmp    1420 <main+0x2d0>
    30d2:	83 fe 0b             	cmp    $0xb,%esi
    30d5:	75 61                	jne    3138 <main+0x1fe8>
    30d7:	a1 20 3b 03 00       	mov    0x33b20,%eax
    30dc:	b9 07 00 00 00       	mov    $0x7,%ecx
    30e1:	05 31 01 00 00       	add    $0x131,%eax
    30e6:	89 c2                	mov    %eax,%edx
    30e8:	a3 20 3b 03 00       	mov    %eax,0x33b20
    30ed:	c1 fa 1f             	sar    $0x1f,%edx
    30f0:	f7 f9                	idiv   %ecx
    30f2:	83 fa 01             	cmp    $0x1,%edx
    30f5:	8d 58 02             	lea    0x2(%eax),%ebx
    30f8:	0f 87 22 e3 ff ff    	ja     1420 <main+0x2d0>
    30fe:	8d 58 01             	lea    0x1(%eax),%ebx
    3101:	e9 1a e3 ff ff       	jmp    1420 <main+0x2d0>
    3106:	83 fe 09             	cmp    $0x9,%esi
    3109:	75 65                	jne    3170 <main+0x2020>
    310b:	a1 20 3b 03 00       	mov    0x33b20,%eax
    3110:	b9 07 00 00 00       	mov    $0x7,%ecx
    3115:	05 f3 00 00 00       	add    $0xf3,%eax
    311a:	89 c2                	mov    %eax,%edx
    311c:	a3 20 3b 03 00       	mov    %eax,0x33b20
    3121:	c1 fa 1f             	sar    $0x1f,%edx
    3124:	f7 f9                	idiv   %ecx
    3126:	4a                   	dec    %edx
    3127:	8d 58 02             	lea    0x2(%eax),%ebx
    312a:	0f 85 f0 e2 ff ff    	jne    1420 <main+0x2d0>
    3130:	8d 58 01             	lea    0x1(%eax),%ebx
    3133:	e9 e8 e2 ff ff       	jmp    1420 <main+0x2d0>
    3138:	83 fe 0c             	cmp    $0xc,%esi
    313b:	0f 85 df e2 ff ff    	jne    1420 <main+0x2d0>
    3141:	a1 20 3b 03 00       	mov    0x33b20,%eax
    3146:	b9 07 00 00 00       	mov    $0x7,%ecx
    314b:	05 4f 01 00 00       	add    $0x14f,%eax
    3150:	89 c2                	mov    %eax,%edx
    3152:	a3 20 3b 03 00       	mov    %eax,0x33b20
    3157:	c1 fa 1f             	sar    $0x1f,%edx
    315a:	f7 f9                	idiv   %ecx
    315c:	83 fa 01             	cmp    $0x1,%edx
    315f:	8d 58 02             	lea    0x2(%eax),%ebx
    3162:	0f 87 b8 e2 ff ff    	ja     1420 <main+0x2d0>
    3168:	8d 58 01             	lea    0x1(%eax),%ebx
    316b:	e9 b0 e2 ff ff       	jmp    1420 <main+0x2d0>
    3170:	83 fe 0a             	cmp    $0xa,%esi
    3173:	75 7b                	jne    31f0 <main+0x20a0>
    3175:	a1 20 3b 03 00       	mov    0x33b20,%eax
    317a:	b9 07 00 00 00       	mov    $0x7,%ecx
    317f:	05 11 01 00 00       	add    $0x111,%eax
    3184:	89 c2                	mov    %eax,%edx
    3186:	a3 20 3b 03 00       	mov    %eax,0x33b20
    318b:	c1 fa 1f             	sar    $0x1f,%edx
    318e:	f7 f9                	idiv   %ecx
    3190:	4a                   	dec    %edx
    3191:	8d 58 02             	lea    0x2(%eax),%ebx
    3194:	0f 85 86 e2 ff ff    	jne    1420 <main+0x2d0>
    319a:	8d 58 01             	lea    0x1(%eax),%ebx
    319d:	e9 7e e2 ff ff       	jmp    1420 <main+0x2d0>
    31a2:	83 fe 0c             	cmp    $0xc,%esi
    31a5:	0f 85 50 e2 ff ff    	jne    13fb <main+0x2ab>
    31ab:	8b 3d 20 3b 03 00    	mov    0x33b20,%edi
    31b1:	81 c7 4f 01 00 00    	add    $0x14f,%edi
    31b7:	89 f8                	mov    %edi,%eax
    31b9:	e9 22 e2 ff ff       	jmp    13e0 <main+0x290>
    31be:	83 fe 0b             	cmp    $0xb,%esi
    31c1:	75 5f                	jne    3222 <main+0x20d2>
    31c3:	a1 20 3b 03 00       	mov    0x33b20,%eax
    31c8:	b9 07 00 00 00       	mov    $0x7,%ecx
    31cd:	05 31 01 00 00       	add    $0x131,%eax
    31d2:	89 c2                	mov    %eax,%edx
    31d4:	a3 20 3b 03 00       	mov    %eax,0x33b20
    31d9:	c1 fa 1f             	sar    $0x1f,%edx
    31dc:	f7 f9                	idiv   %ecx
    31de:	85 d2                	test   %edx,%edx
    31e0:	8d 58 01             	lea    0x1(%eax),%ebx
    31e3:	0f 85 37 e2 ff ff    	jne    1420 <main+0x2d0>
    31e9:	89 c3                	mov    %eax,%ebx
    31eb:	e9 30 e2 ff ff       	jmp    1420 <main+0x2d0>
    31f0:	83 fe 0b             	cmp    $0xb,%esi
    31f3:	75 63                	jne    3258 <main+0x2108>
    31f5:	a1 20 3b 03 00       	mov    0x33b20,%eax
    31fa:	b9 07 00 00 00       	mov    $0x7,%ecx
    31ff:	05 30 01 00 00       	add    $0x130,%eax
    3204:	89 c2                	mov    %eax,%edx
    3206:	a3 20 3b 03 00       	mov    %eax,0x33b20
    320b:	c1 fa 1f             	sar    $0x1f,%edx
    320e:	f7 f9                	idiv   %ecx
    3210:	4a                   	dec    %edx
    3211:	8d 58 02             	lea    0x2(%eax),%ebx
    3214:	0f 85 06 e2 ff ff    	jne    1420 <main+0x2d0>
    321a:	8d 58 01             	lea    0x1(%eax),%ebx
    321d:	e9 fe e1 ff ff       	jmp    1420 <main+0x2d0>
    3222:	83 fe 0c             	cmp    $0xc,%esi
    3225:	0f 85 f5 e1 ff ff    	jne    1420 <main+0x2d0>
    322b:	a1 20 3b 03 00       	mov    0x33b20,%eax
    3230:	b9 07 00 00 00       	mov    $0x7,%ecx
    3235:	05 4f 01 00 00       	add    $0x14f,%eax
    323a:	89 c2                	mov    %eax,%edx
    323c:	a3 20 3b 03 00       	mov    %eax,0x33b20
    3241:	c1 fa 1f             	sar    $0x1f,%edx
    3244:	f7 f9                	idiv   %ecx
    3246:	85 d2                	test   %edx,%edx
    3248:	8d 58 01             	lea    0x1(%eax),%ebx
    324b:	0f 85 cf e1 ff ff    	jne    1420 <main+0x2d0>
    3251:	89 c3                	mov    %eax,%ebx
    3253:	e9 c8 e1 ff ff       	jmp    1420 <main+0x2d0>
    3258:	83 fe 0c             	cmp    $0xc,%esi
    325b:	0f 85 bf e1 ff ff    	jne    1420 <main+0x2d0>
    3261:	a1 20 3b 03 00       	mov    0x33b20,%eax
    3266:	b9 07 00 00 00       	mov    $0x7,%ecx
    326b:	05 4e 01 00 00       	add    $0x14e,%eax
    3270:	89 c2                	mov    %eax,%edx
    3272:	a3 20 3b 03 00       	mov    %eax,0x33b20
    3277:	c1 fa 1f             	sar    $0x1f,%edx
    327a:	f7 f9                	idiv   %ecx
    327c:	4a                   	dec    %edx
    327d:	8d 58 02             	lea    0x2(%eax),%ebx
    3280:	0f 85 9a e1 ff ff    	jne    1420 <main+0x2d0>
    3286:	8d 58 01             	lea    0x1(%eax),%ebx
    3289:	e9 92 e1 ff ff       	jmp    1420 <main+0x2d0>
    328e:	83 fe 04             	cmp    $0x4,%esi
    3291:	0f 85 0c 01 00 00    	jne    33a3 <main+0x2253>
    3297:	a1 20 3b 03 00       	mov    0x33b20,%eax
    329c:	b9 07 00 00 00       	mov    $0x7,%ecx
    32a1:	83 c0 5a             	add    $0x5a,%eax
    32a4:	89 c2                	mov    %eax,%edx
    32a6:	a3 20 3b 03 00       	mov    %eax,0x33b20
    32ab:	c1 fa 1f             	sar    $0x1f,%edx
    32ae:	f7 f9                	idiv   %ecx
    32b0:	83 fa 01             	cmp    $0x1,%edx
    32b3:	8d 58 02             	lea    0x2(%eax),%ebx
    32b6:	0f 87 64 e1 ff ff    	ja     1420 <main+0x2d0>
    32bc:	8d 58 01             	lea    0x1(%eax),%ebx
    32bf:	e9 5c e1 ff ff       	jmp    1420 <main+0x2d0>
    32c4:	83 fe 05             	cmp    $0x5,%esi
    32c7:	75 41                	jne    330a <main+0x21ba>
    32c9:	8b 3d 20 3b 03 00    	mov    0x33b20,%edi
    32cf:	b9 07 00 00 00       	mov    $0x7,%ecx
    32d4:	8d 77 79             	lea    0x79(%edi),%esi
    32d7:	89 f2                	mov    %esi,%edx
    32d9:	89 f0                	mov    %esi,%eax
    32db:	c1 fa 1f             	sar    $0x1f,%edx
    32de:	f7 f9                	idiv   %ecx
    32e0:	83 fa 06             	cmp    $0x6,%edx
    32e3:	74 0e                	je     32f3 <main+0x21a3>
    32e5:	89 35 20 3b 03 00    	mov    %esi,0x33b20
    32eb:	8d 58 01             	lea    0x1(%eax),%ebx
    32ee:	e9 2d e1 ff ff       	jmp    1420 <main+0x2d0>
    32f3:	8d 47 7a             	lea    0x7a(%edi),%eax
    32f6:	89 c2                	mov    %eax,%edx
    32f8:	a3 20 3b 03 00       	mov    %eax,0x33b20
    32fd:	c1 fa 1f             	sar    $0x1f,%edx
    3300:	f7 f9                	idiv   %ecx
    3302:	8d 58 01             	lea    0x1(%eax),%ebx
    3305:	e9 16 e1 ff ff       	jmp    1420 <main+0x2d0>
    330a:	31 db                	xor    %ebx,%ebx
    330c:	83 fe 06             	cmp    $0x6,%esi
    330f:	75 2d                	jne    333e <main+0x21ee>
    3311:	8b 3d 20 3b 03 00    	mov    0x33b20,%edi
    3317:	b9 07 00 00 00       	mov    $0x7,%ecx
    331c:	8d b7 98 00 00 00    	lea    0x98(%edi),%esi
    3322:	89 f2                	mov    %esi,%edx
    3324:	89 f0                	mov    %esi,%eax
    3326:	c1 fa 1f             	sar    $0x1f,%edx
    3329:	f7 f9                	idiv   %ecx
    332b:	83 fa 06             	cmp    $0x6,%edx
    332e:	74 3f                	je     336f <main+0x221f>
    3330:	89 35 20 3b 03 00    	mov    %esi,0x33b20
    3336:	8d 58 01             	lea    0x1(%eax),%ebx
    3339:	e9 e2 e0 ff ff       	jmp    1420 <main+0x2d0>
    333e:	83 fe 07             	cmp    $0x7,%esi
    3341:	0f 85 92 00 00 00    	jne    33d9 <main+0x2289>
    3347:	8b 3d 20 3b 03 00    	mov    0x33b20,%edi
    334d:	8d 8f b6 00 00 00    	lea    0xb6(%edi),%ecx
    3353:	89 ca                	mov    %ecx,%edx
    3355:	89 c8                	mov    %ecx,%eax
    3357:	c1 fa 1f             	sar    $0x1f,%edx
    335a:	f7 fe                	idiv   %esi
    335c:	83 fa 06             	cmp    $0x6,%edx
    335f:	74 28                	je     3389 <main+0x2239>
    3361:	89 0d 20 3b 03 00    	mov    %ecx,0x33b20
    3367:	8d 58 01             	lea    0x1(%eax),%ebx
    336a:	e9 b1 e0 ff ff       	jmp    1420 <main+0x2d0>
    336f:	8d 87 99 00 00 00    	lea    0x99(%edi),%eax
    3375:	89 c2                	mov    %eax,%edx
    3377:	a3 20 3b 03 00       	mov    %eax,0x33b20
    337c:	c1 fa 1f             	sar    $0x1f,%edx
    337f:	f7 f9                	idiv   %ecx
    3381:	8d 58 01             	lea    0x1(%eax),%ebx
    3384:	e9 97 e0 ff ff       	jmp    1420 <main+0x2d0>
    3389:	8d 87 b7 00 00 00    	lea    0xb7(%edi),%eax
    338f:	89 c2                	mov    %eax,%edx
    3391:	a3 20 3b 03 00       	mov    %eax,0x33b20
    3396:	c1 fa 1f             	sar    $0x1f,%edx
    3399:	f7 fe                	idiv   %esi
    339b:	8d 58 01             	lea    0x1(%eax),%ebx
    339e:	e9 7d e0 ff ff       	jmp    1420 <main+0x2d0>
    33a3:	83 fe 05             	cmp    $0x5,%esi
    33a6:	0f 85 ad 01 00 00    	jne    3559 <main+0x2409>
    33ac:	a1 20 3b 03 00       	mov    0x33b20,%eax
    33b1:	b9 07 00 00 00       	mov    $0x7,%ecx
    33b6:	83 c0 78             	add    $0x78,%eax
    33b9:	89 c2                	mov    %eax,%edx
    33bb:	a3 20 3b 03 00       	mov    %eax,0x33b20
    33c0:	c1 fa 1f             	sar    $0x1f,%edx
    33c3:	f7 f9                	idiv   %ecx
    33c5:	83 fa 01             	cmp    $0x1,%edx
    33c8:	8d 58 02             	lea    0x2(%eax),%ebx
    33cb:	0f 87 4f e0 ff ff    	ja     1420 <main+0x2d0>
    33d1:	8d 58 01             	lea    0x1(%eax),%ebx
    33d4:	e9 47 e0 ff ff       	jmp    1420 <main+0x2d0>
    33d9:	83 fe 08             	cmp    $0x8,%esi
    33dc:	75 47                	jne    3425 <main+0x22d5>
    33de:	8b 3d 20 3b 03 00    	mov    0x33b20,%edi
    33e4:	b9 07 00 00 00       	mov    $0x7,%ecx
    33e9:	8d b7 d5 00 00 00    	lea    0xd5(%edi),%esi
    33ef:	89 f2                	mov    %esi,%edx
    33f1:	89 f0                	mov    %esi,%eax
    33f3:	c1 fa 1f             	sar    $0x1f,%edx
    33f6:	f7 f9                	idiv   %ecx
    33f8:	83 fa 06             	cmp    $0x6,%edx
    33fb:	74 0e                	je     340b <main+0x22bb>
    33fd:	89 35 20 3b 03 00    	mov    %esi,0x33b20
    3403:	8d 58 01             	lea    0x1(%eax),%ebx
    3406:	e9 15 e0 ff ff       	jmp    1420 <main+0x2d0>
    340b:	8d 87 d6 00 00 00    	lea    0xd6(%edi),%eax
    3411:	89 c2                	mov    %eax,%edx
    3413:	a3 20 3b 03 00       	mov    %eax,0x33b20
    3418:	c1 fa 1f             	sar    $0x1f,%edx
    341b:	f7 f9                	idiv   %ecx
    341d:	8d 58 01             	lea    0x1(%eax),%ebx
    3420:	e9 fb df ff ff       	jmp    1420 <main+0x2d0>
    3425:	83 fe 09             	cmp    $0x9,%esi
    3428:	75 47                	jne    3471 <main+0x2321>
    342a:	8b 3d 20 3b 03 00    	mov    0x33b20,%edi
    3430:	b9 07 00 00 00       	mov    $0x7,%ecx
    3435:	8d b7 f4 00 00 00    	lea    0xf4(%edi),%esi
    343b:	89 f2                	mov    %esi,%edx
    343d:	89 f0                	mov    %esi,%eax
    343f:	c1 fa 1f             	sar    $0x1f,%edx
    3442:	f7 f9                	idiv   %ecx
    3444:	83 fa 06             	cmp    $0x6,%edx
    3447:	74 0e                	je     3457 <main+0x2307>
    3449:	89 35 20 3b 03 00    	mov    %esi,0x33b20
    344f:	8d 58 01             	lea    0x1(%eax),%ebx
    3452:	e9 c9 df ff ff       	jmp    1420 <main+0x2d0>
    3457:	8d 87 f5 00 00 00    	lea    0xf5(%edi),%eax
    345d:	89 c2                	mov    %eax,%edx
    345f:	a3 20 3b 03 00       	mov    %eax,0x33b20
    3464:	c1 fa 1f             	sar    $0x1f,%edx
    3467:	f7 f9                	idiv   %ecx
    3469:	8d 58 01             	lea    0x1(%eax),%ebx
    346c:	e9 af df ff ff       	jmp    1420 <main+0x2d0>
    3471:	83 fe 0a             	cmp    $0xa,%esi
    3474:	75 47                	jne    34bd <main+0x236d>
    3476:	8b 3d 20 3b 03 00    	mov    0x33b20,%edi
    347c:	b9 07 00 00 00       	mov    $0x7,%ecx
    3481:	8d b7 12 01 00 00    	lea    0x112(%edi),%esi
    3487:	89 f2                	mov    %esi,%edx
    3489:	89 f0                	mov    %esi,%eax
    348b:	c1 fa 1f             	sar    $0x1f,%edx
    348e:	f7 f9                	idiv   %ecx
    3490:	83 fa 06             	cmp    $0x6,%edx
    3493:	74 0e                	je     34a3 <main+0x2353>
    3495:	89 35 20 3b 03 00    	mov    %esi,0x33b20
    349b:	8d 58 01             	lea    0x1(%eax),%ebx
    349e:	e9 7d df ff ff       	jmp    1420 <main+0x2d0>
    34a3:	8d 87 13 01 00 00    	lea    0x113(%edi),%eax
    34a9:	89 c2                	mov    %eax,%edx
    34ab:	a3 20 3b 03 00       	mov    %eax,0x33b20
    34b0:	c1 fa 1f             	sar    $0x1f,%edx
    34b3:	f7 f9                	idiv   %ecx
    34b5:	8d 58 01             	lea    0x1(%eax),%ebx
    34b8:	e9 63 df ff ff       	jmp    1420 <main+0x2d0>
    34bd:	83 fe 0b             	cmp    $0xb,%esi
    34c0:	75 47                	jne    3509 <main+0x23b9>
    34c2:	8b 3d 20 3b 03 00    	mov    0x33b20,%edi
    34c8:	b9 07 00 00 00       	mov    $0x7,%ecx
    34cd:	8d b7 31 01 00 00    	lea    0x131(%edi),%esi
    34d3:	89 f2                	mov    %esi,%edx
    34d5:	89 f0                	mov    %esi,%eax
    34d7:	c1 fa 1f             	sar    $0x1f,%edx
    34da:	f7 f9                	idiv   %ecx
    34dc:	83 fa 06             	cmp    $0x6,%edx
    34df:	74 0e                	je     34ef <main+0x239f>
    34e1:	89 35 20 3b 03 00    	mov    %esi,0x33b20
    34e7:	8d 58 01             	lea    0x1(%eax),%ebx
    34ea:	e9 31 df ff ff       	jmp    1420 <main+0x2d0>
    34ef:	8d 87 32 01 00 00    	lea    0x132(%edi),%eax
    34f5:	89 c2                	mov    %eax,%edx
    34f7:	a3 20 3b 03 00       	mov    %eax,0x33b20
    34fc:	c1 fa 1f             	sar    $0x1f,%edx
    34ff:	f7 f9                	idiv   %ecx
    3501:	8d 58 01             	lea    0x1(%eax),%ebx
    3504:	e9 17 df ff ff       	jmp    1420 <main+0x2d0>
    3509:	83 fe 0c             	cmp    $0xc,%esi
    350c:	0f 85 0e df ff ff    	jne    1420 <main+0x2d0>
    3512:	8b 3d 20 3b 03 00    	mov    0x33b20,%edi
    3518:	b9 07 00 00 00       	mov    $0x7,%ecx
    351d:	8d b7 4f 01 00 00    	lea    0x14f(%edi),%esi
    3523:	89 f2                	mov    %esi,%edx
    3525:	89 f0                	mov    %esi,%eax
    3527:	c1 fa 1f             	sar    $0x1f,%edx
    352a:	f7 f9                	idiv   %ecx
    352c:	83 fa 06             	cmp    $0x6,%edx
    352f:	74 0e                	je     353f <main+0x23ef>
    3531:	89 35 20 3b 03 00    	mov    %esi,0x33b20
    3537:	8d 58 01             	lea    0x1(%eax),%ebx
    353a:	e9 e1 de ff ff       	jmp    1420 <main+0x2d0>
    353f:	8d 87 50 01 00 00    	lea    0x150(%edi),%eax
    3545:	89 c2                	mov    %eax,%edx
    3547:	a3 20 3b 03 00       	mov    %eax,0x33b20
    354c:	c1 fa 1f             	sar    $0x1f,%edx
    354f:	f7 f9                	idiv   %ecx
    3551:	8d 58 01             	lea    0x1(%eax),%ebx
    3554:	e9 c7 de ff ff       	jmp    1420 <main+0x2d0>
    3559:	31 db                	xor    %ebx,%ebx
    355b:	83 fe 06             	cmp    $0x6,%esi
    355e:	0f 85 36 02 00 00    	jne    379a <main+0x264a>
    3564:	a1 20 3b 03 00       	mov    0x33b20,%eax
    3569:	b9 07 00 00 00       	mov    $0x7,%ecx
    356e:	05 97 00 00 00       	add    $0x97,%eax
    3573:	89 c2                	mov    %eax,%edx
    3575:	a3 20 3b 03 00       	mov    %eax,0x33b20
    357a:	c1 fa 1f             	sar    $0x1f,%edx
    357d:	f7 f9                	idiv   %ecx
    357f:	83 fa 01             	cmp    $0x1,%edx
    3582:	8d 58 02             	lea    0x2(%eax),%ebx
    3585:	0f 87 95 de ff ff    	ja     1420 <main+0x2d0>
    358b:	8d 58 01             	lea    0x1(%eax),%ebx
    358e:	e9 8d de ff ff       	jmp    1420 <main+0x2d0>
    3593:	83 fe 04             	cmp    $0x4,%esi
    3596:	0f 85 2d 02 00 00    	jne    37c9 <main+0x2679>
    359c:	8b 35 20 3b 03 00    	mov    0x33b20,%esi
    35a2:	b9 07 00 00 00       	mov    $0x7,%ecx
    35a7:	8d 46 5a             	lea    0x5a(%esi),%eax
    35aa:	89 c2                	mov    %eax,%edx
    35ac:	a3 20 3b 03 00       	mov    %eax,0x33b20
    35b1:	c1 fa 1f             	sar    $0x1f,%edx
    35b4:	f7 f9                	idiv   %ecx
    35b6:	83 fa 06             	cmp    $0x6,%edx
    35b9:	8d 58 01             	lea    0x1(%eax),%ebx
    35bc:	0f 85 5e de ff ff    	jne    1420 <main+0x2d0>
    35c2:	8d 46 5b             	lea    0x5b(%esi),%eax
    35c5:	89 c2                	mov    %eax,%edx
    35c7:	a3 20 3b 03 00       	mov    %eax,0x33b20
    35cc:	c1 fa 1f             	sar    $0x1f,%edx
    35cf:	f7 f9                	idiv   %ecx
    35d1:	8d 58 01             	lea    0x1(%eax),%ebx
    35d4:	e9 47 de ff ff       	jmp    1420 <main+0x2d0>
    35d9:	31 db                	xor    %ebx,%ebx
    35db:	83 fe 06             	cmp    $0x6,%esi
    35de:	75 3b                	jne    361b <main+0x24cb>
    35e0:	a1 20 3b 03 00       	mov    0x33b20,%eax
    35e5:	b9 07 00 00 00       	mov    $0x7,%ecx
    35ea:	05 97 00 00 00       	add    $0x97,%eax
    35ef:	89 c2                	mov    %eax,%edx
    35f1:	a3 20 3b 03 00       	mov    %eax,0x33b20
    35f6:	c1 fa 1f             	sar    $0x1f,%edx
    35f9:	f7 f9                	idiv   %ecx
    35fb:	83 fa 05             	cmp    $0x5,%edx
    35fe:	8d 58 02             	lea    0x2(%eax),%ebx
    3601:	0f 84 19 de ff ff    	je     1420 <main+0x2d0>
    3607:	8d 58 01             	lea    0x1(%eax),%ebx
    360a:	83 fa 06             	cmp    $0x6,%edx
    360d:	0f 85 0d de ff ff    	jne    1420 <main+0x2d0>
    3613:	8d 58 02             	lea    0x2(%eax),%ebx
    3616:	e9 05 de ff ff       	jmp    1420 <main+0x2d0>
    361b:	83 fe 07             	cmp    $0x7,%esi
    361e:	75 36                	jne    3656 <main+0x2506>
    3620:	a1 20 3b 03 00       	mov    0x33b20,%eax
    3625:	05 b5 00 00 00       	add    $0xb5,%eax
    362a:	89 c2                	mov    %eax,%edx
    362c:	a3 20 3b 03 00       	mov    %eax,0x33b20
    3631:	c1 fa 1f             	sar    $0x1f,%edx
    3634:	f7 fe                	idiv   %esi
    3636:	83 fa 05             	cmp    $0x5,%edx
    3639:	8d 58 02             	lea    0x2(%eax),%ebx
    363c:	0f 84 de dd ff ff    	je     1420 <main+0x2d0>
    3642:	8d 58 01             	lea    0x1(%eax),%ebx
    3645:	83 fa 06             	cmp    $0x6,%edx
    3648:	0f 85 d2 dd ff ff    	jne    1420 <main+0x2d0>
    364e:	8d 58 02             	lea    0x2(%eax),%ebx
    3651:	e9 ca dd ff ff       	jmp    1420 <main+0x2d0>
    3656:	83 fe 08             	cmp    $0x8,%esi
    3659:	75 3b                	jne    3696 <main+0x2546>
    365b:	a1 20 3b 03 00       	mov    0x33b20,%eax
    3660:	b9 07 00 00 00       	mov    $0x7,%ecx
    3665:	05 d4 00 00 00       	add    $0xd4,%eax
    366a:	89 c2                	mov    %eax,%edx
    366c:	a3 20 3b 03 00       	mov    %eax,0x33b20
    3671:	c1 fa 1f             	sar    $0x1f,%edx
    3674:	f7 f9                	idiv   %ecx
    3676:	83 fa 05             	cmp    $0x5,%edx
    3679:	8d 58 02             	lea    0x2(%eax),%ebx
    367c:	0f 84 9e dd ff ff    	je     1420 <main+0x2d0>
    3682:	8d 58 01             	lea    0x1(%eax),%ebx
    3685:	83 fa 06             	cmp    $0x6,%edx
    3688:	0f 85 92 dd ff ff    	jne    1420 <main+0x2d0>
    368e:	8d 58 02             	lea    0x2(%eax),%ebx
    3691:	e9 8a dd ff ff       	jmp    1420 <main+0x2d0>
    3696:	83 fe 09             	cmp    $0x9,%esi
    3699:	75 3b                	jne    36d6 <main+0x2586>
    369b:	a1 20 3b 03 00       	mov    0x33b20,%eax
    36a0:	b9 07 00 00 00       	mov    $0x7,%ecx
    36a5:	05 f3 00 00 00       	add    $0xf3,%eax
    36aa:	89 c2                	mov    %eax,%edx
    36ac:	a3 20 3b 03 00       	mov    %eax,0x33b20
    36b1:	c1 fa 1f             	sar    $0x1f,%edx
    36b4:	f7 f9                	idiv   %ecx
    36b6:	83 fa 05             	cmp    $0x5,%edx
    36b9:	8d 58 02             	lea    0x2(%eax),%ebx
    36bc:	0f 84 5e dd ff ff    	je     1420 <main+0x2d0>
    36c2:	8d 58 01             	lea    0x1(%eax),%ebx
    36c5:	83 fa 06             	cmp    $0x6,%edx
    36c8:	0f 85 52 dd ff ff    	jne    1420 <main+0x2d0>
    36ce:	8d 58 02             	lea    0x2(%eax),%ebx
    36d1:	e9 4a dd ff ff       	jmp    1420 <main+0x2d0>
    36d6:	83 fe 0a             	cmp    $0xa,%esi
    36d9:	75 3b                	jne    3716 <main+0x25c6>
    36db:	a1 20 3b 03 00       	mov    0x33b20,%eax
    36e0:	b9 07 00 00 00       	mov    $0x7,%ecx
    36e5:	05 11 01 00 00       	add    $0x111,%eax
    36ea:	89 c2                	mov    %eax,%edx
    36ec:	a3 20 3b 03 00       	mov    %eax,0x33b20
    36f1:	c1 fa 1f             	sar    $0x1f,%edx
    36f4:	f7 f9                	idiv   %ecx
    36f6:	83 fa 05             	cmp    $0x5,%edx
    36f9:	8d 58 02             	lea    0x2(%eax),%ebx
    36fc:	0f 84 1e dd ff ff    	je     1420 <main+0x2d0>
    3702:	8d 58 01             	lea    0x1(%eax),%ebx
    3705:	83 fa 06             	cmp    $0x6,%edx
    3708:	0f 85 12 dd ff ff    	jne    1420 <main+0x2d0>
    370e:	8d 58 02             	lea    0x2(%eax),%ebx
    3711:	e9 0a dd ff ff       	jmp    1420 <main+0x2d0>
    3716:	83 fe 0b             	cmp    $0xb,%esi
    3719:	75 3b                	jne    3756 <main+0x2606>
    371b:	a1 20 3b 03 00       	mov    0x33b20,%eax
    3720:	b9 07 00 00 00       	mov    $0x7,%ecx
    3725:	05 30 01 00 00       	add    $0x130,%eax
    372a:	89 c2                	mov    %eax,%edx
    372c:	a3 20 3b 03 00       	mov    %eax,0x33b20
    3731:	c1 fa 1f             	sar    $0x1f,%edx
    3734:	f7 f9                	idiv   %ecx
    3736:	83 fa 05             	cmp    $0x5,%edx
    3739:	8d 58 02             	lea    0x2(%eax),%ebx
    373c:	0f 84 de dc ff ff    	je     1420 <main+0x2d0>
    3742:	8d 58 01             	lea    0x1(%eax),%ebx
    3745:	83 fa 06             	cmp    $0x6,%edx
    3748:	0f 85 d2 dc ff ff    	jne    1420 <main+0x2d0>
    374e:	8d 58 02             	lea    0x2(%eax),%ebx
    3751:	e9 ca dc ff ff       	jmp    1420 <main+0x2d0>
    3756:	83 fe 0c             	cmp    $0xc,%esi
    3759:	0f 85 c1 dc ff ff    	jne    1420 <main+0x2d0>
    375f:	a1 20 3b 03 00       	mov    0x33b20,%eax
    3764:	b9 07 00 00 00       	mov    $0x7,%ecx
    3769:	05 4e 01 00 00       	add    $0x14e,%eax
    376e:	89 c2                	mov    %eax,%edx
    3770:	a3 20 3b 03 00       	mov    %eax,0x33b20
    3775:	c1 fa 1f             	sar    $0x1f,%edx
    3778:	f7 f9                	idiv   %ecx
    377a:	83 fa 05             	cmp    $0x5,%edx
    377d:	8d 58 02             	lea    0x2(%eax),%ebx
    3780:	0f 84 9a dc ff ff    	je     1420 <main+0x2d0>
    3786:	8d 58 01             	lea    0x1(%eax),%ebx
    3789:	83 fa 06             	cmp    $0x6,%edx
    378c:	0f 85 8e dc ff ff    	jne    1420 <main+0x2d0>
    3792:	8d 58 02             	lea    0x2(%eax),%ebx
    3795:	e9 86 dc ff ff       	jmp    1420 <main+0x2d0>
    379a:	83 fe 07             	cmp    $0x7,%esi
    379d:	75 6c                	jne    380b <main+0x26bb>
    379f:	a1 20 3b 03 00       	mov    0x33b20,%eax
    37a4:	05 b5 00 00 00       	add    $0xb5,%eax
    37a9:	89 c2                	mov    %eax,%edx
    37ab:	a3 20 3b 03 00       	mov    %eax,0x33b20
    37b0:	c1 fa 1f             	sar    $0x1f,%edx
    37b3:	f7 fe                	idiv   %esi
    37b5:	83 fa 01             	cmp    $0x1,%edx
    37b8:	8d 58 02             	lea    0x2(%eax),%ebx
    37bb:	0f 87 5f dc ff ff    	ja     1420 <main+0x2d0>
    37c1:	8d 58 01             	lea    0x1(%eax),%ebx
    37c4:	e9 57 dc ff ff       	jmp    1420 <main+0x2d0>
    37c9:	83 fe 05             	cmp    $0x5,%esi
    37cc:	75 71                	jne    383f <main+0x26ef>
    37ce:	8b 35 20 3b 03 00    	mov    0x33b20,%esi
    37d4:	b9 07 00 00 00       	mov    $0x7,%ecx
    37d9:	8d 46 78             	lea    0x78(%esi),%eax
    37dc:	89 c2                	mov    %eax,%edx
    37de:	a3 20 3b 03 00       	mov    %eax,0x33b20
    37e3:	c1 fa 1f             	sar    $0x1f,%edx
    37e6:	f7 f9                	idiv   %ecx
    37e8:	83 fa 06             	cmp    $0x6,%edx
    37eb:	8d 58 01             	lea    0x1(%eax),%ebx
    37ee:	0f 85 2c dc ff ff    	jne    1420 <main+0x2d0>
    37f4:	8d 46 79             	lea    0x79(%esi),%eax
    37f7:	89 c2                	mov    %eax,%edx
    37f9:	a3 20 3b 03 00       	mov    %eax,0x33b20
    37fe:	c1 fa 1f             	sar    $0x1f,%edx
    3801:	f7 f9                	idiv   %ecx
    3803:	8d 58 01             	lea    0x1(%eax),%ebx
    3806:	e9 15 dc ff ff       	jmp    1420 <main+0x2d0>
    380b:	83 fe 08             	cmp    $0x8,%esi
    380e:	75 79                	jne    3889 <main+0x2739>
    3810:	a1 20 3b 03 00       	mov    0x33b20,%eax
    3815:	b9 07 00 00 00       	mov    $0x7,%ecx
    381a:	05 d4 00 00 00       	add    $0xd4,%eax
    381f:	89 c2                	mov    %eax,%edx
    3821:	a3 20 3b 03 00       	mov    %eax,0x33b20
    3826:	c1 fa 1f             	sar    $0x1f,%edx
    3829:	f7 f9                	idiv   %ecx
    382b:	83 fa 01             	cmp    $0x1,%edx
    382e:	8d 58 02             	lea    0x2(%eax),%ebx
    3831:	0f 87 e9 db ff ff    	ja     1420 <main+0x2d0>
    3837:	8d 58 01             	lea    0x1(%eax),%ebx
    383a:	e9 e1 db ff ff       	jmp    1420 <main+0x2d0>
    383f:	31 db                	xor    %ebx,%ebx
    3841:	83 fe 06             	cmp    $0x6,%esi
    3844:	75 77                	jne    38bd <main+0x276d>
    3846:	8b 35 20 3b 03 00    	mov    0x33b20,%esi
    384c:	b9 07 00 00 00       	mov    $0x7,%ecx
    3851:	8d 86 97 00 00 00    	lea    0x97(%esi),%eax
    3857:	89 c2                	mov    %eax,%edx
    3859:	a3 20 3b 03 00       	mov    %eax,0x33b20
    385e:	c1 fa 1f             	sar    $0x1f,%edx
    3861:	f7 f9                	idiv   %ecx
    3863:	83 fa 06             	cmp    $0x6,%edx
    3866:	8d 58 01             	lea    0x1(%eax),%ebx
    3869:	0f 85 b1 db ff ff    	jne    1420 <main+0x2d0>
    386f:	8d 86 98 00 00 00    	lea    0x98(%esi),%eax
    3875:	89 c2                	mov    %eax,%edx
    3877:	a3 20 3b 03 00       	mov    %eax,0x33b20
    387c:	c1 fa 1f             	sar    $0x1f,%edx
    387f:	f7 f9                	idiv   %ecx
    3881:	8d 58 01             	lea    0x1(%eax),%ebx
    3884:	e9 97 db ff ff       	jmp    1420 <main+0x2d0>
    3889:	83 fe 09             	cmp    $0x9,%esi
    388c:	75 72                	jne    3900 <main+0x27b0>
    388e:	a1 20 3b 03 00       	mov    0x33b20,%eax
    3893:	b9 07 00 00 00       	mov    $0x7,%ecx
    3898:	05 f3 00 00 00       	add    $0xf3,%eax
    389d:	89 c2                	mov    %eax,%edx
    389f:	a3 20 3b 03 00       	mov    %eax,0x33b20
    38a4:	c1 fa 1f             	sar    $0x1f,%edx
    38a7:	f7 f9                	idiv   %ecx
    38a9:	83 fa 01             	cmp    $0x1,%edx
    38ac:	8d 58 02             	lea    0x2(%eax),%ebx
    38af:	0f 87 6b db ff ff    	ja     1420 <main+0x2d0>
    38b5:	8d 58 01             	lea    0x1(%eax),%ebx
    38b8:	e9 63 db ff ff       	jmp    1420 <main+0x2d0>
    38bd:	83 fe 07             	cmp    $0x7,%esi
    38c0:	75 72                	jne    3934 <main+0x27e4>
    38c2:	8b 0d 20 3b 03 00    	mov    0x33b20,%ecx
    38c8:	8d 81 b5 00 00 00    	lea    0xb5(%ecx),%eax
    38ce:	89 c2                	mov    %eax,%edx
    38d0:	a3 20 3b 03 00       	mov    %eax,0x33b20
    38d5:	c1 fa 1f             	sar    $0x1f,%edx
    38d8:	f7 fe                	idiv   %esi
    38da:	83 fa 06             	cmp    $0x6,%edx
    38dd:	8d 58 01             	lea    0x1(%eax),%ebx
    38e0:	0f 85 3a db ff ff    	jne    1420 <main+0x2d0>
    38e6:	8d 81 b6 00 00 00    	lea    0xb6(%ecx),%eax
    38ec:	89 c2                	mov    %eax,%edx
    38ee:	a3 20 3b 03 00       	mov    %eax,0x33b20
    38f3:	c1 fa 1f             	sar    $0x1f,%edx
    38f6:	f7 fe                	idiv   %esi
    38f8:	8d 58 01             	lea    0x1(%eax),%ebx
    38fb:	e9 20 db ff ff       	jmp    1420 <main+0x2d0>
    3900:	83 fe 0a             	cmp    $0xa,%esi
    3903:	75 77                	jne    397c <main+0x282c>
    3905:	a1 20 3b 03 00       	mov    0x33b20,%eax
    390a:	b9 07 00 00 00       	mov    $0x7,%ecx
    390f:	05 11 01 00 00       	add    $0x111,%eax
    3914:	89 c2                	mov    %eax,%edx
    3916:	a3 20 3b 03 00       	mov    %eax,0x33b20
    391b:	c1 fa 1f             	sar    $0x1f,%edx
    391e:	f7 f9                	idiv   %ecx
    3920:	83 fa 01             	cmp    $0x1,%edx
    3923:	8d 58 02             	lea    0x2(%eax),%ebx
    3926:	0f 87 f4 da ff ff    	ja     1420 <main+0x2d0>
    392c:	8d 58 01             	lea    0x1(%eax),%ebx
    392f:	e9 ec da ff ff       	jmp    1420 <main+0x2d0>
    3934:	83 fe 08             	cmp    $0x8,%esi
    3937:	75 77                	jne    39b0 <main+0x2860>
    3939:	8b 35 20 3b 03 00    	mov    0x33b20,%esi
    393f:	b9 07 00 00 00       	mov    $0x7,%ecx
    3944:	8d 86 d4 00 00 00    	lea    0xd4(%esi),%eax
    394a:	89 c2                	mov    %eax,%edx
    394c:	a3 20 3b 03 00       	mov    %eax,0x33b20
    3951:	c1 fa 1f             	sar    $0x1f,%edx
    3954:	f7 f9                	idiv   %ecx
    3956:	83 fa 06             	cmp    $0x6,%edx
    3959:	8d 58 01             	lea    0x1(%eax),%ebx
    395c:	0f 85 be da ff ff    	jne    1420 <main+0x2d0>
    3962:	8d 86 d5 00 00 00    	lea    0xd5(%esi),%eax
    3968:	89 c2                	mov    %eax,%edx
    396a:	a3 20 3b 03 00       	mov    %eax,0x33b20
    396f:	c1 fa 1f             	sar    $0x1f,%edx
    3972:	f7 f9                	idiv   %ecx
    3974:	8d 58 01             	lea    0x1(%eax),%ebx
    3977:	e9 a4 da ff ff       	jmp    1420 <main+0x2d0>
    397c:	83 fe 0b             	cmp    $0xb,%esi
    397f:	75 77                	jne    39f8 <main+0x28a8>
    3981:	a1 20 3b 03 00       	mov    0x33b20,%eax
    3986:	b9 07 00 00 00       	mov    $0x7,%ecx
    398b:	05 30 01 00 00       	add    $0x130,%eax
    3990:	89 c2                	mov    %eax,%edx
    3992:	a3 20 3b 03 00       	mov    %eax,0x33b20
    3997:	c1 fa 1f             	sar    $0x1f,%edx
    399a:	f7 f9                	idiv   %ecx
    399c:	83 fa 01             	cmp    $0x1,%edx
    399f:	8d 58 02             	lea    0x2(%eax),%ebx
    39a2:	0f 87 78 da ff ff    	ja     1420 <main+0x2d0>
    39a8:	8d 58 01             	lea    0x1(%eax),%ebx
    39ab:	e9 70 da ff ff       	jmp    1420 <main+0x2d0>
    39b0:	83 fe 09             	cmp    $0x9,%esi
    39b3:	75 7b                	jne    3a30 <main+0x28e0>
    39b5:	8b 35 20 3b 03 00    	mov    0x33b20,%esi
    39bb:	b9 07 00 00 00       	mov    $0x7,%ecx
    39c0:	8d 86 f3 00 00 00    	lea    0xf3(%esi),%eax
    39c6:	89 c2                	mov    %eax,%edx
    39c8:	a3 20 3b 03 00       	mov    %eax,0x33b20
    39cd:	c1 fa 1f             	sar    $0x1f,%edx
    39d0:	f7 f9                	idiv   %ecx
    39d2:	83 fa 06             	cmp    $0x6,%edx
    39d5:	8d 58 01             	lea    0x1(%eax),%ebx
    39d8:	0f 85 42 da ff ff    	jne    1420 <main+0x2d0>
    39de:	8d 86 f4 00 00 00    	lea    0xf4(%esi),%eax
    39e4:	89 c2                	mov    %eax,%edx
    39e6:	a3 20 3b 03 00       	mov    %eax,0x33b20
    39eb:	c1 fa 1f             	sar    $0x1f,%edx
    39ee:	f7 f9                	idiv   %ecx
    39f0:	8d 58 01             	lea    0x1(%eax),%ebx
    39f3:	e9 28 da ff ff       	jmp    1420 <main+0x2d0>
    39f8:	83 fe 0c             	cmp    $0xc,%esi
    39fb:	0f 85 1f da ff ff    	jne    1420 <main+0x2d0>
    3a01:	a1 20 3b 03 00       	mov    0x33b20,%eax
    3a06:	b9 07 00 00 00       	mov    $0x7,%ecx
    3a0b:	05 4e 01 00 00       	add    $0x14e,%eax
    3a10:	89 c2                	mov    %eax,%edx
    3a12:	a3 20 3b 03 00       	mov    %eax,0x33b20
    3a17:	c1 fa 1f             	sar    $0x1f,%edx
    3a1a:	f7 f9                	idiv   %ecx
    3a1c:	83 fa 01             	cmp    $0x1,%edx
    3a1f:	8d 58 02             	lea    0x2(%eax),%ebx
    3a22:	0f 87 f8 d9 ff ff    	ja     1420 <main+0x2d0>
    3a28:	8d 58 01             	lea    0x1(%eax),%ebx
    3a2b:	e9 f0 d9 ff ff       	jmp    1420 <main+0x2d0>
    3a30:	83 fe 0a             	cmp    $0xa,%esi
    3a33:	0f 85 5a 01 00 00    	jne    3b93 <main+0x2a43>
    3a39:	8b 35 20 3b 03 00    	mov    0x33b20,%esi
    3a3f:	b9 07 00 00 00       	mov    $0x7,%ecx
    3a44:	8d 86 11 01 00 00    	lea    0x111(%esi),%eax
    3a4a:	89 c2                	mov    %eax,%edx
    3a4c:	a3 20 3b 03 00       	mov    %eax,0x33b20
    3a51:	c1 fa 1f             	sar    $0x1f,%edx
    3a54:	f7 f9                	idiv   %ecx
    3a56:	83 fa 06             	cmp    $0x6,%edx
    3a59:	8d 58 01             	lea    0x1(%eax),%ebx
    3a5c:	0f 85 be d9 ff ff    	jne    1420 <main+0x2d0>
    3a62:	8d 86 12 01 00 00    	lea    0x112(%esi),%eax
    3a68:	89 c2                	mov    %eax,%edx
    3a6a:	a3 20 3b 03 00       	mov    %eax,0x33b20
    3a6f:	c1 fa 1f             	sar    $0x1f,%edx
    3a72:	f7 f9                	idiv   %ecx
    3a74:	8d 58 01             	lea    0x1(%eax),%ebx
    3a77:	e9 a4 d9 ff ff       	jmp    1420 <main+0x2d0>
    3a7c:	83 fe 04             	cmp    $0x4,%esi
    3a7f:	0f 85 5a 01 00 00    	jne    3bdf <main+0x2a8f>
    3a85:	a1 20 3b 03 00       	mov    0x33b20,%eax
    3a8a:	b9 07 00 00 00       	mov    $0x7,%ecx
    3a8f:	83 c0 5b             	add    $0x5b,%eax
    3a92:	89 c2                	mov    %eax,%edx
    3a94:	a3 20 3b 03 00       	mov    %eax,0x33b20
    3a99:	c1 fa 1f             	sar    $0x1f,%edx
    3a9c:	f7 f9                	idiv   %ecx
    3a9e:	83 fa 04             	cmp    $0x4,%edx
    3aa1:	8d 58 02             	lea    0x2(%eax),%ebx
    3aa4:	0f 84 76 d9 ff ff    	je     1420 <main+0x2d0>
    3aaa:	8d 58 02             	lea    0x2(%eax),%ebx
    3aad:	83 fa 05             	cmp    $0x5,%edx
    3ab0:	0f 84 6a d9 ff ff    	je     1420 <main+0x2d0>
    3ab6:	8d 58 01             	lea    0x1(%eax),%ebx
    3ab9:	83 fa 06             	cmp    $0x6,%edx
    3abc:	0f 85 5e d9 ff ff    	jne    1420 <main+0x2d0>
    3ac2:	8d 58 02             	lea    0x2(%eax),%ebx
    3ac5:	e9 56 d9 ff ff       	jmp    1420 <main+0x2d0>
    3aca:	83 fe 05             	cmp    $0x5,%esi
    3acd:	75 0d                	jne    3adc <main+0x298c>
    3acf:	a1 20 3b 03 00       	mov    0x33b20,%eax
    3ad4:	83 c0 78             	add    $0x78,%eax
    3ad7:	e9 2c d8 ff ff       	jmp    1308 <main+0x1b8>
    3adc:	83 fe 06             	cmp    $0x6,%esi
    3adf:	75 0f                	jne    3af0 <main+0x29a0>
    3ae1:	a1 20 3b 03 00       	mov    0x33b20,%eax
    3ae6:	05 97 00 00 00       	add    $0x97,%eax
    3aeb:	e9 18 d8 ff ff       	jmp    1308 <main+0x1b8>
    3af0:	83 fe 07             	cmp    $0x7,%esi
    3af3:	0f 85 34 01 00 00    	jne    3c2d <main+0x2add>
    3af9:	a1 20 3b 03 00       	mov    0x33b20,%eax
    3afe:	05 b5 00 00 00       	add    $0xb5,%eax
    3b03:	89 c2                	mov    %eax,%edx
    3b05:	c1 fa 1f             	sar    $0x1f,%edx
    3b08:	f7 fe                	idiv   %esi
    3b0a:	8d 04 11             	lea    (%ecx,%edx,1),%eax
    3b0d:	89 c2                	mov    %eax,%edx
    3b0f:	c1 fa 1f             	sar    $0x1f,%edx
    3b12:	f7 fe                	idiv   %esi
    3b14:	89 54 24 38          	mov    %edx,0x38(%esp)
    3b18:	e9 05 d8 ff ff       	jmp    1322 <main+0x1d2>
    3b1d:	83 fe 05             	cmp    $0x5,%esi
    3b20:	0f 85 1f 01 00 00    	jne    3c45 <main+0x2af5>
    3b26:	a1 20 3b 03 00       	mov    0x33b20,%eax
    3b2b:	b9 07 00 00 00       	mov    $0x7,%ecx
    3b30:	83 c0 79             	add    $0x79,%eax
    3b33:	89 c2                	mov    %eax,%edx
    3b35:	a3 20 3b 03 00       	mov    %eax,0x33b20
    3b3a:	c1 fa 1f             	sar    $0x1f,%edx
    3b3d:	f7 f9                	idiv   %ecx
    3b3f:	83 fa 05             	cmp    $0x5,%edx
    3b42:	8d 58 02             	lea    0x2(%eax),%ebx
    3b45:	0f 84 d5 d8 ff ff    	je     1420 <main+0x2d0>
    3b4b:	8d 58 01             	lea    0x1(%eax),%ebx
    3b4e:	83 fa 06             	cmp    $0x6,%edx
    3b51:	0f 85 c9 d8 ff ff    	jne    1420 <main+0x2d0>
    3b57:	8d 58 02             	lea    0x2(%eax),%ebx
    3b5a:	e9 c1 d8 ff ff       	jmp    1420 <main+0x2d0>
    3b5f:	83 fe 05             	cmp    $0x5,%esi
    3b62:	0f 85 5e 01 00 00    	jne    3cc6 <main+0x2b76>
    3b68:	a1 20 3b 03 00       	mov    0x33b20,%eax
    3b6d:	b9 07 00 00 00       	mov    $0x7,%ecx
    3b72:	83 c0 79             	add    $0x79,%eax
    3b75:	89 c2                	mov    %eax,%edx
    3b77:	a3 20 3b 03 00       	mov    %eax,0x33b20
    3b7c:	c1 fa 1f             	sar    $0x1f,%edx
    3b7f:	f7 f9                	idiv   %ecx
    3b81:	4a                   	dec    %edx
    3b82:	8d 58 02             	lea    0x2(%eax),%ebx
    3b85:	0f 85 95 d8 ff ff    	jne    1420 <main+0x2d0>
    3b8b:	8d 58 01             	lea    0x1(%eax),%ebx
    3b8e:	e9 8d d8 ff ff       	jmp    1420 <main+0x2d0>
    3b93:	83 fe 0b             	cmp    $0xb,%esi
    3b96:	0f 85 8f 01 00 00    	jne    3d2b <main+0x2bdb>
    3b9c:	8b 35 20 3b 03 00    	mov    0x33b20,%esi
    3ba2:	b9 07 00 00 00       	mov    $0x7,%ecx
    3ba7:	8d 86 30 01 00 00    	lea    0x130(%esi),%eax
    3bad:	89 c2                	mov    %eax,%edx
    3baf:	a3 20 3b 03 00       	mov    %eax,0x33b20
    3bb4:	c1 fa 1f             	sar    $0x1f,%edx
    3bb7:	f7 f9                	idiv   %ecx
    3bb9:	83 fa 06             	cmp    $0x6,%edx
    3bbc:	8d 58 01             	lea    0x1(%eax),%ebx
    3bbf:	0f 85 5b d8 ff ff    	jne    1420 <main+0x2d0>
    3bc5:	8d 86 31 01 00 00    	lea    0x131(%esi),%eax
    3bcb:	89 c2                	mov    %eax,%edx
    3bcd:	a3 20 3b 03 00       	mov    %eax,0x33b20
    3bd2:	c1 fa 1f             	sar    $0x1f,%edx
    3bd5:	f7 f9                	idiv   %ecx
    3bd7:	8d 58 01             	lea    0x1(%eax),%ebx
    3bda:	e9 41 d8 ff ff       	jmp    1420 <main+0x2d0>
    3bdf:	83 fe 05             	cmp    $0x5,%esi
    3be2:	0f 85 8f 01 00 00    	jne    3d77 <main+0x2c27>
    3be8:	a1 20 3b 03 00       	mov    0x33b20,%eax
    3bed:	b9 07 00 00 00       	mov    $0x7,%ecx
    3bf2:	83 c0 79             	add    $0x79,%eax
    3bf5:	89 c2                	mov    %eax,%edx
    3bf7:	a3 20 3b 03 00       	mov    %eax,0x33b20
    3bfc:	c1 fa 1f             	sar    $0x1f,%edx
    3bff:	f7 f9                	idiv   %ecx
    3c01:	83 fa 04             	cmp    $0x4,%edx
    3c04:	8d 58 02             	lea    0x2(%eax),%ebx
    3c07:	0f 84 13 d8 ff ff    	je     1420 <main+0x2d0>
    3c0d:	8d 58 02             	lea    0x2(%eax),%ebx
    3c10:	83 fa 05             	cmp    $0x5,%edx
    3c13:	0f 84 07 d8 ff ff    	je     1420 <main+0x2d0>
    3c19:	8d 58 01             	lea    0x1(%eax),%ebx
    3c1c:	83 fa 06             	cmp    $0x6,%edx
    3c1f:	0f 85 fb d7 ff ff    	jne    1420 <main+0x2d0>
    3c25:	8d 58 02             	lea    0x2(%eax),%ebx
    3c28:	e9 f3 d7 ff ff       	jmp    1420 <main+0x2d0>
    3c2d:	83 fe 08             	cmp    $0x8,%esi
    3c30:	0f 85 72 04 00 00    	jne    40a8 <main+0x2f58>
    3c36:	a1 20 3b 03 00       	mov    0x33b20,%eax
    3c3b:	05 d4 00 00 00       	add    $0xd4,%eax
    3c40:	e9 c3 d6 ff ff       	jmp    1308 <main+0x1b8>
    3c45:	31 db                	xor    %ebx,%ebx
    3c47:	83 fe 06             	cmp    $0x6,%esi
    3c4a:	75 3b                	jne    3c87 <main+0x2b37>
    3c4c:	a1 20 3b 03 00       	mov    0x33b20,%eax
    3c51:	b9 07 00 00 00       	mov    $0x7,%ecx
    3c56:	05 98 00 00 00       	add    $0x98,%eax
    3c5b:	89 c2                	mov    %eax,%edx
    3c5d:	a3 20 3b 03 00       	mov    %eax,0x33b20
    3c62:	c1 fa 1f             	sar    $0x1f,%edx
    3c65:	f7 f9                	idiv   %ecx
    3c67:	83 fa 05             	cmp    $0x5,%edx
    3c6a:	8d 58 02             	lea    0x2(%eax),%ebx
    3c6d:	0f 84 ad d7 ff ff    	je     1420 <main+0x2d0>
    3c73:	8d 58 01             	lea    0x1(%eax),%ebx
    3c76:	83 fa 06             	cmp    $0x6,%edx
    3c79:	0f 85 a1 d7 ff ff    	jne    1420 <main+0x2d0>
    3c7f:	8d 58 02             	lea    0x2(%eax),%ebx
    3c82:	e9 99 d7 ff ff       	jmp    1420 <main+0x2d0>
    3c87:	83 fe 07             	cmp    $0x7,%esi
    3c8a:	0f 85 39 01 00 00    	jne    3dc9 <main+0x2c79>
    3c90:	a1 20 3b 03 00       	mov    0x33b20,%eax
    3c95:	05 b6 00 00 00       	add    $0xb6,%eax
    3c9a:	89 c2                	mov    %eax,%edx
    3c9c:	a3 20 3b 03 00       	mov    %eax,0x33b20
    3ca1:	c1 fa 1f             	sar    $0x1f,%edx
    3ca4:	f7 fe                	idiv   %esi
    3ca6:	83 fa 05             	cmp    $0x5,%edx
    3ca9:	8d 58 02             	lea    0x2(%eax),%ebx
    3cac:	0f 84 6e d7 ff ff    	je     1420 <main+0x2d0>
    3cb2:	8d 58 01             	lea    0x1(%eax),%ebx
    3cb5:	83 fa 06             	cmp    $0x6,%edx
    3cb8:	0f 85 62 d7 ff ff    	jne    1420 <main+0x2d0>
    3cbe:	8d 58 02             	lea    0x2(%eax),%ebx
    3cc1:	e9 5a d7 ff ff       	jmp    1420 <main+0x2d0>
    3cc6:	31 db                	xor    %ebx,%ebx
    3cc8:	83 fe 06             	cmp    $0x6,%esi
    3ccb:	75 2d                	jne    3cfa <main+0x2baa>
    3ccd:	a1 20 3b 03 00       	mov    0x33b20,%eax
    3cd2:	b9 07 00 00 00       	mov    $0x7,%ecx
    3cd7:	05 98 00 00 00       	add    $0x98,%eax
    3cdc:	89 c2                	mov    %eax,%edx
    3cde:	a3 20 3b 03 00       	mov    %eax,0x33b20
    3ce3:	c1 fa 1f             	sar    $0x1f,%edx
    3ce6:	f7 f9                	idiv   %ecx
    3ce8:	4a                   	dec    %edx
    3ce9:	8d 58 02             	lea    0x2(%eax),%ebx
    3cec:	0f 85 2e d7 ff ff    	jne    1420 <main+0x2d0>
    3cf2:	8d 58 01             	lea    0x1(%eax),%ebx
    3cf5:	e9 26 d7 ff ff       	jmp    1420 <main+0x2d0>
    3cfa:	83 fe 07             	cmp    $0x7,%esi
    3cfd:	0f 85 bd 03 00 00    	jne    40c0 <main+0x2f70>
    3d03:	a1 20 3b 03 00       	mov    0x33b20,%eax
    3d08:	05 b6 00 00 00       	add    $0xb6,%eax
    3d0d:	89 c2                	mov    %eax,%edx
    3d0f:	a3 20 3b 03 00       	mov    %eax,0x33b20
    3d14:	c1 fa 1f             	sar    $0x1f,%edx
    3d17:	f7 fe                	idiv   %esi
    3d19:	4a                   	dec    %edx
    3d1a:	8d 58 02             	lea    0x2(%eax),%ebx
    3d1d:	0f 85 fd d6 ff ff    	jne    1420 <main+0x2d0>
    3d23:	8d 58 01             	lea    0x1(%eax),%ebx
    3d26:	e9 f5 d6 ff ff       	jmp    1420 <main+0x2d0>
    3d2b:	83 fe 0c             	cmp    $0xc,%esi
    3d2e:	0f 85 ec d6 ff ff    	jne    1420 <main+0x2d0>
    3d34:	8b 35 20 3b 03 00    	mov    0x33b20,%esi
    3d3a:	b9 07 00 00 00       	mov    $0x7,%ecx
    3d3f:	8d 86 4e 01 00 00    	lea    0x14e(%esi),%eax
    3d45:	89 c2                	mov    %eax,%edx
    3d47:	a3 20 3b 03 00       	mov    %eax,0x33b20
    3d4c:	c1 fa 1f             	sar    $0x1f,%edx
    3d4f:	f7 f9                	idiv   %ecx
    3d51:	83 fa 06             	cmp    $0x6,%edx
    3d54:	8d 58 01             	lea    0x1(%eax),%ebx
    3d57:	0f 85 c3 d6 ff ff    	jne    1420 <main+0x2d0>
    3d5d:	8d 86 4f 01 00 00    	lea    0x14f(%esi),%eax
    3d63:	89 c2                	mov    %eax,%edx
    3d65:	a3 20 3b 03 00       	mov    %eax,0x33b20
    3d6a:	c1 fa 1f             	sar    $0x1f,%edx
    3d6d:	f7 f9                	idiv   %ecx
    3d6f:	8d 58 01             	lea    0x1(%eax),%ebx
    3d72:	e9 a9 d6 ff ff       	jmp    1420 <main+0x2d0>
    3d77:	31 db                	xor    %ebx,%ebx
    3d79:	83 fe 06             	cmp    $0x6,%esi
    3d7c:	0f 85 8b 00 00 00    	jne    3e0d <main+0x2cbd>
    3d82:	a1 20 3b 03 00       	mov    0x33b20,%eax
    3d87:	b9 07 00 00 00       	mov    $0x7,%ecx
    3d8c:	05 98 00 00 00       	add    $0x98,%eax
    3d91:	89 c2                	mov    %eax,%edx
    3d93:	a3 20 3b 03 00       	mov    %eax,0x33b20
    3d98:	c1 fa 1f             	sar    $0x1f,%edx
    3d9b:	f7 f9                	idiv   %ecx
    3d9d:	83 fa 04             	cmp    $0x4,%edx
    3da0:	8d 58 02             	lea    0x2(%eax),%ebx
    3da3:	0f 84 77 d6 ff ff    	je     1420 <main+0x2d0>
    3da9:	8d 58 02             	lea    0x2(%eax),%ebx
    3dac:	83 fa 05             	cmp    $0x5,%edx
    3daf:	0f 84 6b d6 ff ff    	je     1420 <main+0x2d0>
    3db5:	8d 58 01             	lea    0x1(%eax),%ebx
    3db8:	83 fa 06             	cmp    $0x6,%edx
    3dbb:	0f 85 5f d6 ff ff    	jne    1420 <main+0x2d0>
    3dc1:	8d 58 02             	lea    0x2(%eax),%ebx
    3dc4:	e9 57 d6 ff ff       	jmp    1420 <main+0x2d0>
    3dc9:	83 fe 08             	cmp    $0x8,%esi
    3dcc:	0f 85 86 00 00 00    	jne    3e58 <main+0x2d08>
    3dd2:	a1 20 3b 03 00       	mov    0x33b20,%eax
    3dd7:	b9 07 00 00 00       	mov    $0x7,%ecx
    3ddc:	05 d5 00 00 00       	add    $0xd5,%eax
    3de1:	89 c2                	mov    %eax,%edx
    3de3:	a3 20 3b 03 00       	mov    %eax,0x33b20
    3de8:	c1 fa 1f             	sar    $0x1f,%edx
    3deb:	f7 f9                	idiv   %ecx
    3ded:	83 fa 05             	cmp    $0x5,%edx
    3df0:	8d 58 02             	lea    0x2(%eax),%ebx
    3df3:	0f 84 27 d6 ff ff    	je     1420 <main+0x2d0>
    3df9:	8d 58 01             	lea    0x1(%eax),%ebx
    3dfc:	83 fa 06             	cmp    $0x6,%edx
    3dff:	0f 85 1b d6 ff ff    	jne    1420 <main+0x2d0>
    3e05:	8d 58 02             	lea    0x2(%eax),%ebx
    3e08:	e9 13 d6 ff ff       	jmp    1420 <main+0x2d0>
    3e0d:	83 fe 07             	cmp    $0x7,%esi
    3e10:	0f 85 86 00 00 00    	jne    3e9c <main+0x2d4c>
    3e16:	a1 20 3b 03 00       	mov    0x33b20,%eax
    3e1b:	05 b6 00 00 00       	add    $0xb6,%eax
    3e20:	89 c2                	mov    %eax,%edx
    3e22:	a3 20 3b 03 00       	mov    %eax,0x33b20
    3e27:	c1 fa 1f             	sar    $0x1f,%edx
    3e2a:	f7 fe                	idiv   %esi
    3e2c:	83 fa 04             	cmp    $0x4,%edx
    3e2f:	8d 58 02             	lea    0x2(%eax),%ebx
    3e32:	0f 84 e8 d5 ff ff    	je     1420 <main+0x2d0>
    3e38:	8d 58 02             	lea    0x2(%eax),%ebx
    3e3b:	83 fa 05             	cmp    $0x5,%edx
    3e3e:	0f 84 dc d5 ff ff    	je     1420 <main+0x2d0>
    3e44:	8d 58 01             	lea    0x1(%eax),%ebx
    3e47:	83 fa 06             	cmp    $0x6,%edx
    3e4a:	0f 85 d0 d5 ff ff    	jne    1420 <main+0x2d0>
    3e50:	8d 58 02             	lea    0x2(%eax),%ebx
    3e53:	e9 c8 d5 ff ff       	jmp    1420 <main+0x2d0>
    3e58:	83 fe 09             	cmp    $0x9,%esi
    3e5b:	0f 85 8b 00 00 00    	jne    3eec <main+0x2d9c>
    3e61:	a1 20 3b 03 00       	mov    0x33b20,%eax
    3e66:	b9 07 00 00 00       	mov    $0x7,%ecx
    3e6b:	05 f4 00 00 00       	add    $0xf4,%eax
    3e70:	89 c2                	mov    %eax,%edx
    3e72:	a3 20 3b 03 00       	mov    %eax,0x33b20
    3e77:	c1 fa 1f             	sar    $0x1f,%edx
    3e7a:	f7 f9                	idiv   %ecx
    3e7c:	83 fa 05             	cmp    $0x5,%edx
    3e7f:	8d 58 02             	lea    0x2(%eax),%ebx
    3e82:	0f 84 98 d5 ff ff    	je     1420 <main+0x2d0>
    3e88:	8d 58 01             	lea    0x1(%eax),%ebx
    3e8b:	83 fa 06             	cmp    $0x6,%edx
    3e8e:	0f 85 8c d5 ff ff    	jne    1420 <main+0x2d0>
    3e94:	8d 58 02             	lea    0x2(%eax),%ebx
    3e97:	e9 84 d5 ff ff       	jmp    1420 <main+0x2d0>
    3e9c:	83 fe 08             	cmp    $0x8,%esi
    3e9f:	0f 85 8b 00 00 00    	jne    3f30 <main+0x2de0>
    3ea5:	a1 20 3b 03 00       	mov    0x33b20,%eax
    3eaa:	b9 07 00 00 00       	mov    $0x7,%ecx
    3eaf:	05 d5 00 00 00       	add    $0xd5,%eax
    3eb4:	89 c2                	mov    %eax,%edx
    3eb6:	a3 20 3b 03 00       	mov    %eax,0x33b20
    3ebb:	c1 fa 1f             	sar    $0x1f,%edx
    3ebe:	f7 f9                	idiv   %ecx
    3ec0:	83 fa 04             	cmp    $0x4,%edx
    3ec3:	8d 58 02             	lea    0x2(%eax),%ebx
    3ec6:	0f 84 54 d5 ff ff    	je     1420 <main+0x2d0>
    3ecc:	8d 58 02             	lea    0x2(%eax),%ebx
    3ecf:	83 fa 05             	cmp    $0x5,%edx
    3ed2:	0f 84 48 d5 ff ff    	je     1420 <main+0x2d0>
    3ed8:	8d 58 01             	lea    0x1(%eax),%ebx
    3edb:	83 fa 06             	cmp    $0x6,%edx
    3ede:	0f 85 3c d5 ff ff    	jne    1420 <main+0x2d0>
    3ee4:	8d 58 02             	lea    0x2(%eax),%ebx
    3ee7:	e9 34 d5 ff ff       	jmp    1420 <main+0x2d0>
    3eec:	83 fe 0a             	cmp    $0xa,%esi
    3eef:	0f 85 8b 00 00 00    	jne    3f80 <main+0x2e30>
    3ef5:	a1 20 3b 03 00       	mov    0x33b20,%eax
    3efa:	b9 07 00 00 00       	mov    $0x7,%ecx
    3eff:	05 12 01 00 00       	add    $0x112,%eax
    3f04:	89 c2                	mov    %eax,%edx
    3f06:	a3 20 3b 03 00       	mov    %eax,0x33b20
    3f0b:	c1 fa 1f             	sar    $0x1f,%edx
    3f0e:	f7 f9                	idiv   %ecx
    3f10:	83 fa 05             	cmp    $0x5,%edx
    3f13:	8d 58 02             	lea    0x2(%eax),%ebx
    3f16:	0f 84 04 d5 ff ff    	je     1420 <main+0x2d0>
    3f1c:	8d 58 01             	lea    0x1(%eax),%ebx
    3f1f:	83 fa 06             	cmp    $0x6,%edx
    3f22:	0f 85 f8 d4 ff ff    	jne    1420 <main+0x2d0>
    3f28:	8d 58 02             	lea    0x2(%eax),%ebx
    3f2b:	e9 f0 d4 ff ff       	jmp    1420 <main+0x2d0>
    3f30:	83 fe 09             	cmp    $0x9,%esi
    3f33:	0f 85 8b 00 00 00    	jne    3fc4 <main+0x2e74>
    3f39:	a1 20 3b 03 00       	mov    0x33b20,%eax
    3f3e:	b9 07 00 00 00       	mov    $0x7,%ecx
    3f43:	05 f4 00 00 00       	add    $0xf4,%eax
    3f48:	89 c2                	mov    %eax,%edx
    3f4a:	a3 20 3b 03 00       	mov    %eax,0x33b20
    3f4f:	c1 fa 1f             	sar    $0x1f,%edx
    3f52:	f7 f9                	idiv   %ecx
    3f54:	83 fa 04             	cmp    $0x4,%edx
    3f57:	8d 58 02             	lea    0x2(%eax),%ebx
    3f5a:	0f 84 c0 d4 ff ff    	je     1420 <main+0x2d0>
    3f60:	8d 58 02             	lea    0x2(%eax),%ebx
    3f63:	83 fa 05             	cmp    $0x5,%edx
    3f66:	0f 84 b4 d4 ff ff    	je     1420 <main+0x2d0>
    3f6c:	8d 58 01             	lea    0x1(%eax),%ebx
    3f6f:	83 fa 06             	cmp    $0x6,%edx
    3f72:	0f 85 a8 d4 ff ff    	jne    1420 <main+0x2d0>
    3f78:	8d 58 02             	lea    0x2(%eax),%ebx
    3f7b:	e9 a0 d4 ff ff       	jmp    1420 <main+0x2d0>
    3f80:	83 fe 0b             	cmp    $0xb,%esi
    3f83:	0f 85 8b 00 00 00    	jne    4014 <main+0x2ec4>
    3f89:	a1 20 3b 03 00       	mov    0x33b20,%eax
    3f8e:	b9 07 00 00 00       	mov    $0x7,%ecx
    3f93:	05 31 01 00 00       	add    $0x131,%eax
    3f98:	89 c2                	mov    %eax,%edx
    3f9a:	a3 20 3b 03 00       	mov    %eax,0x33b20
    3f9f:	c1 fa 1f             	sar    $0x1f,%edx
    3fa2:	f7 f9                	idiv   %ecx
    3fa4:	83 fa 05             	cmp    $0x5,%edx
    3fa7:	8d 58 02             	lea    0x2(%eax),%ebx
    3faa:	0f 84 70 d4 ff ff    	je     1420 <main+0x2d0>
    3fb0:	8d 58 01             	lea    0x1(%eax),%ebx
    3fb3:	83 fa 06             	cmp    $0x6,%edx
    3fb6:	0f 85 64 d4 ff ff    	jne    1420 <main+0x2d0>
    3fbc:	8d 58 02             	lea    0x2(%eax),%ebx
    3fbf:	e9 5c d4 ff ff       	jmp    1420 <main+0x2d0>
    3fc4:	83 fe 0a             	cmp    $0xa,%esi
    3fc7:	0f 85 8b 00 00 00    	jne    4058 <main+0x2f08>
    3fcd:	a1 20 3b 03 00       	mov    0x33b20,%eax
    3fd2:	b9 07 00 00 00       	mov    $0x7,%ecx
    3fd7:	05 12 01 00 00       	add    $0x112,%eax
    3fdc:	89 c2                	mov    %eax,%edx
    3fde:	a3 20 3b 03 00       	mov    %eax,0x33b20
    3fe3:	c1 fa 1f             	sar    $0x1f,%edx
    3fe6:	f7 f9                	idiv   %ecx
    3fe8:	83 fa 04             	cmp    $0x4,%edx
    3feb:	8d 58 02             	lea    0x2(%eax),%ebx
    3fee:	0f 84 2c d4 ff ff    	je     1420 <main+0x2d0>
    3ff4:	8d 58 02             	lea    0x2(%eax),%ebx
    3ff7:	83 fa 05             	cmp    $0x5,%edx
    3ffa:	0f 84 20 d4 ff ff    	je     1420 <main+0x2d0>
    4000:	8d 58 01             	lea    0x1(%eax),%ebx
    4003:	83 fa 06             	cmp    $0x6,%edx
    4006:	0f 85 14 d4 ff ff    	jne    1420 <main+0x2d0>
    400c:	8d 58 02             	lea    0x2(%eax),%ebx
    400f:	e9 0c d4 ff ff       	jmp    1420 <main+0x2d0>
    4014:	83 fe 0c             	cmp    $0xc,%esi
    4017:	0f 85 03 d4 ff ff    	jne    1420 <main+0x2d0>
    401d:	a1 20 3b 03 00       	mov    0x33b20,%eax
    4022:	b9 07 00 00 00       	mov    $0x7,%ecx
    4027:	05 4f 01 00 00       	add    $0x14f,%eax
    402c:	89 c2                	mov    %eax,%edx
    402e:	a3 20 3b 03 00       	mov    %eax,0x33b20
    4033:	c1 fa 1f             	sar    $0x1f,%edx
    4036:	f7 f9                	idiv   %ecx
    4038:	83 fa 05             	cmp    $0x5,%edx
    403b:	8d 58 02             	lea    0x2(%eax),%ebx
    403e:	0f 84 dc d3 ff ff    	je     1420 <main+0x2d0>
    4044:	8d 58 01             	lea    0x1(%eax),%ebx
    4047:	83 fa 06             	cmp    $0x6,%edx
    404a:	0f 85 d0 d3 ff ff    	jne    1420 <main+0x2d0>
    4050:	8d 58 02             	lea    0x2(%eax),%ebx
    4053:	e9 c8 d3 ff ff       	jmp    1420 <main+0x2d0>
    4058:	83 fe 0b             	cmp    $0xb,%esi
    405b:	0f 85 95 00 00 00    	jne    40f6 <main+0x2fa6>
    4061:	a1 20 3b 03 00       	mov    0x33b20,%eax
    4066:	b9 07 00 00 00       	mov    $0x7,%ecx
    406b:	05 31 01 00 00       	add    $0x131,%eax
    4070:	89 c2                	mov    %eax,%edx
    4072:	a3 20 3b 03 00       	mov    %eax,0x33b20
    4077:	c1 fa 1f             	sar    $0x1f,%edx
    407a:	f7 f9                	idiv   %ecx
    407c:	83 fa 04             	cmp    $0x4,%edx
    407f:	8d 58 02             	lea    0x2(%eax),%ebx
    4082:	0f 84 98 d3 ff ff    	je     1420 <main+0x2d0>
    4088:	8d 58 02             	lea    0x2(%eax),%ebx
    408b:	83 fa 05             	cmp    $0x5,%edx
    408e:	0f 84 8c d3 ff ff    	je     1420 <main+0x2d0>
    4094:	8d 58 01             	lea    0x1(%eax),%ebx
    4097:	83 fa 06             	cmp    $0x6,%edx
    409a:	0f 85 80 d3 ff ff    	jne    1420 <main+0x2d0>
    40a0:	8d 58 02             	lea    0x2(%eax),%ebx
    40a3:	e9 78 d3 ff ff       	jmp    1420 <main+0x2d0>
    40a8:	83 fe 09             	cmp    $0x9,%esi
    40ab:	0f 85 95 00 00 00    	jne    4146 <main+0x2ff6>
    40b1:	a1 20 3b 03 00       	mov    0x33b20,%eax
    40b6:	05 f3 00 00 00       	add    $0xf3,%eax
    40bb:	e9 48 d2 ff ff       	jmp    1308 <main+0x1b8>
    40c0:	83 fe 08             	cmp    $0x8,%esi
    40c3:	0f 85 91 00 00 00    	jne    415a <main+0x300a>
    40c9:	a1 20 3b 03 00       	mov    0x33b20,%eax
    40ce:	b9 07 00 00 00       	mov    $0x7,%ecx
    40d3:	05 d5 00 00 00       	add    $0xd5,%eax
    40d8:	89 c2                	mov    %eax,%edx
    40da:	a3 20 3b 03 00       	mov    %eax,0x33b20
    40df:	c1 fa 1f             	sar    $0x1f,%edx
    40e2:	f7 f9                	idiv   %ecx
    40e4:	4a                   	dec    %edx
    40e5:	8d 58 02             	lea    0x2(%eax),%ebx
    40e8:	0f 85 32 d3 ff ff    	jne    1420 <main+0x2d0>
    40ee:	8d 58 01             	lea    0x1(%eax),%ebx
    40f1:	e9 2a d3 ff ff       	jmp    1420 <main+0x2d0>
    40f6:	83 fe 0c             	cmp    $0xc,%esi
    40f9:	0f 85 21 d3 ff ff    	jne    1420 <main+0x2d0>
    40ff:	a1 20 3b 03 00       	mov    0x33b20,%eax
    4104:	b9 07 00 00 00       	mov    $0x7,%ecx
    4109:	05 4f 01 00 00       	add    $0x14f,%eax
    410e:	89 c2                	mov    %eax,%edx
    4110:	a3 20 3b 03 00       	mov    %eax,0x33b20
    4115:	c1 fa 1f             	sar    $0x1f,%edx
    4118:	f7 f9                	idiv   %ecx
    411a:	83 fa 04             	cmp    $0x4,%edx
    411d:	8d 58 02             	lea    0x2(%eax),%ebx
    4120:	0f 84 fa d2 ff ff    	je     1420 <main+0x2d0>
    4126:	8d 58 02             	lea    0x2(%eax),%ebx
    4129:	83 fa 05             	cmp    $0x5,%edx
    412c:	0f 84 ee d2 ff ff    	je     1420 <main+0x2d0>
    4132:	8d 58 01             	lea    0x1(%eax),%ebx
    4135:	83 fa 06             	cmp    $0x6,%edx
    4138:	0f 85 e2 d2 ff ff    	jne    1420 <main+0x2d0>
    413e:	8d 58 02             	lea    0x2(%eax),%ebx
    4141:	e9 da d2 ff ff       	jmp    1420 <main+0x2d0>
    4146:	83 fe 0a             	cmp    $0xa,%esi
    4149:	75 41                	jne    418c <main+0x303c>
    414b:	a1 20 3b 03 00       	mov    0x33b20,%eax
    4150:	05 11 01 00 00       	add    $0x111,%eax
    4155:	e9 ae d1 ff ff       	jmp    1308 <main+0x1b8>
    415a:	83 fe 09             	cmp    $0x9,%esi
    415d:	75 41                	jne    41a0 <main+0x3050>
    415f:	a1 20 3b 03 00       	mov    0x33b20,%eax
    4164:	b9 07 00 00 00       	mov    $0x7,%ecx
    4169:	05 f4 00 00 00       	add    $0xf4,%eax
    416e:	89 c2                	mov    %eax,%edx
    4170:	a3 20 3b 03 00       	mov    %eax,0x33b20
    4175:	c1 fa 1f             	sar    $0x1f,%edx
    4178:	f7 f9                	idiv   %ecx
    417a:	4a                   	dec    %edx
    417b:	8d 58 02             	lea    0x2(%eax),%ebx
    417e:	0f 85 9c d2 ff ff    	jne    1420 <main+0x2d0>
    4184:	8d 58 01             	lea    0x1(%eax),%ebx
    4187:	e9 94 d2 ff ff       	jmp    1420 <main+0x2d0>
    418c:	83 fe 0b             	cmp    $0xb,%esi
    418f:	75 41                	jne    41d2 <main+0x3082>
    4191:	a1 20 3b 03 00       	mov    0x33b20,%eax
    4196:	05 30 01 00 00       	add    $0x130,%eax
    419b:	e9 68 d1 ff ff       	jmp    1308 <main+0x1b8>
    41a0:	83 fe 0a             	cmp    $0xa,%esi
    41a3:	75 45                	jne    41ea <main+0x309a>
    41a5:	a1 20 3b 03 00       	mov    0x33b20,%eax
    41aa:	b9 07 00 00 00       	mov    $0x7,%ecx
    41af:	05 12 01 00 00       	add    $0x112,%eax
    41b4:	89 c2                	mov    %eax,%edx
    41b6:	a3 20 3b 03 00       	mov    %eax,0x33b20
    41bb:	c1 fa 1f             	sar    $0x1f,%edx
    41be:	f7 f9                	idiv   %ecx
    41c0:	4a                   	dec    %edx
    41c1:	8d 58 02             	lea    0x2(%eax),%ebx
    41c4:	0f 85 56 d2 ff ff    	jne    1420 <main+0x2d0>
    41ca:	8d 58 01             	lea    0x1(%eax),%ebx
    41cd:	e9 4e d2 ff ff       	jmp    1420 <main+0x2d0>
    41d2:	83 fe 0c             	cmp    $0xc,%esi
    41d5:	0f 85 47 d1 ff ff    	jne    1322 <main+0x1d2>
    41db:	a1 20 3b 03 00       	mov    0x33b20,%eax
    41e0:	05 4e 01 00 00       	add    $0x14e,%eax
    41e5:	e9 1e d1 ff ff       	jmp    1308 <main+0x1b8>
    41ea:	83 fe 0b             	cmp    $0xb,%esi
    41ed:	75 2d                	jne    421c <main+0x30cc>
    41ef:	a1 20 3b 03 00       	mov    0x33b20,%eax
    41f4:	b9 07 00 00 00       	mov    $0x7,%ecx
    41f9:	05 31 01 00 00       	add    $0x131,%eax
    41fe:	89 c2                	mov    %eax,%edx
    4200:	a3 20 3b 03 00       	mov    %eax,0x33b20
    4205:	c1 fa 1f             	sar    $0x1f,%edx
    4208:	f7 f9                	idiv   %ecx
    420a:	4a                   	dec    %edx
    420b:	8d 58 02             	lea    0x2(%eax),%ebx
    420e:	0f 85 0c d2 ff ff    	jne    1420 <main+0x2d0>
    4214:	8d 58 01             	lea    0x1(%eax),%ebx
    4217:	e9 04 d2 ff ff       	jmp    1420 <main+0x2d0>
    421c:	83 fe 0c             	cmp    $0xc,%esi
    421f:	0f 85 fb d1 ff ff    	jne    1420 <main+0x2d0>
    4225:	a1 20 3b 03 00       	mov    0x33b20,%eax
    422a:	b9 07 00 00 00       	mov    $0x7,%ecx
    422f:	05 4f 01 00 00       	add    $0x14f,%eax
    4234:	89 c2                	mov    %eax,%edx
    4236:	a3 20 3b 03 00       	mov    %eax,0x33b20
    423b:	c1 fa 1f             	sar    $0x1f,%edx
    423e:	f7 f9                	idiv   %ecx
    4240:	4a                   	dec    %edx
    4241:	8d 58 02             	lea    0x2(%eax),%ebx
    4244:	0f 85 d6 d1 ff ff    	jne    1420 <main+0x2d0>
    424a:	8d 58 01             	lea    0x1(%eax),%ebx
    424d:	e9 ce d1 ff ff       	jmp    1420 <main+0x2d0>
    4252:	66 90                	xchg   %ax,%ax
    4254:	66 90                	xchg   %ax,%ax
    4256:	66 90                	xchg   %ax,%ax
    4258:	66 90                	xchg   %ax,%ax
    425a:	66 90                	xchg   %ax,%ax
    425c:	66 90                	xchg   %ax,%ax
    425e:	66 90                	xchg   %ax,%ax

00004260 <grid_reconfigure>:
    4260:	55                   	push   %ebp
    4261:	89 e5                	mov    %esp,%ebp
    4263:	5d                   	pop    %ebp
    4264:	c3                   	ret    
    4265:	8d 74 26 00          	lea    0x0(%esi,%eiz,1),%esi
    4269:	8d bc 27 00 00 00 00 	lea    0x0(%edi,%eiz,1),%edi

00004270 <grid_handle_keyboard_event>:
    4270:	55                   	push   %ebp
    4271:	89 e5                	mov    %esp,%ebp
    4273:	5d                   	pop    %ebp
    4274:	c3                   	ret    
    4275:	8d 74 26 00          	lea    0x0(%esi,%eiz,1),%esi
    4279:	8d bc 27 00 00 00 00 	lea    0x0(%edi,%eiz,1),%edi

00004280 <grid_handle_position_event>:
    4280:	55                   	push   %ebp
    4281:	31 d2                	xor    %edx,%edx
    4283:	89 e5                	mov    %esp,%ebp
    4285:	57                   	push   %edi
    4286:	56                   	push   %esi
    4287:	53                   	push   %ebx
    4288:	83 ec 1c             	sub    $0x1c,%esp
    428b:	8b 4d 08             	mov    0x8(%ebp),%ecx
    428e:	8b 59 5c             	mov    0x5c(%ecx),%ebx
    4291:	8b 41 24             	mov    0x24(%ecx),%eax
    4294:	f7 f3                	div    %ebx
    4296:	89 c6                	mov    %eax,%esi
    4298:	85 c0                	test   %eax,%eax
    429a:	74 64                	je     4300 <grid_handle_position_event+0x80>
    429c:	31 d2                	xor    %edx,%edx
    429e:	8b 79 60             	mov    0x60(%ecx),%edi
    42a1:	8b 41 20             	mov    0x20(%ecx),%eax
    42a4:	f7 f7                	div    %edi
    42a6:	89 45 e4             	mov    %eax,-0x1c(%ebp)
    42a9:	85 c0                	test   %eax,%eax
    42ab:	74 53                	je     4300 <grid_handle_position_event+0x80>
    42ad:	8b 45 1c             	mov    0x1c(%ebp),%eax
    42b0:	8b 51 1c             	mov    0x1c(%ecx),%edx
    42b3:	89 45 e0             	mov    %eax,-0x20(%ebp)
    42b6:	29 d0                	sub    %edx,%eax
    42b8:	31 d2                	xor    %edx,%edx
    42ba:	f7 f6                	div    %esi
    42bc:	89 45 dc             	mov    %eax,-0x24(%ebp)
    42bf:	8b 75 18             	mov    0x18(%ebp),%esi
    42c2:	8b 41 18             	mov    0x18(%ecx),%eax
    42c5:	3b 5d dc             	cmp    -0x24(%ebp),%ebx
    42c8:	76 36                	jbe    4300 <grid_handle_position_event+0x80>
    42ca:	89 f2                	mov    %esi,%edx
    42cc:	29 c2                	sub    %eax,%edx
    42ce:	89 d0                	mov    %edx,%eax
    42d0:	31 d2                	xor    %edx,%edx
    42d2:	f7 75 e4             	divl   -0x1c(%ebp)
    42d5:	39 c7                	cmp    %eax,%edi
    42d7:	76 27                	jbe    4300 <grid_handle_position_event+0x80>
    42d9:	8b 55 dc             	mov    -0x24(%ebp),%edx
    42dc:	0f af d7             	imul   %edi,%edx
    42df:	01 d0                	add    %edx,%eax
    42e1:	8b 51 64             	mov    0x64(%ecx),%edx
    42e4:	8d 04 82             	lea    (%edx,%eax,4),%eax
    42e7:	85 c0                	test   %eax,%eax
    42e9:	74 15                	je     4300 <grid_handle_position_event+0x80>
    42eb:	8b 00                	mov    (%eax),%eax
    42ed:	85 c0                	test   %eax,%eax
    42ef:	74 0f                	je     4300 <grid_handle_position_event+0x80>
    42f1:	89 45 08             	mov    %eax,0x8(%ebp)
    42f4:	8b 40 54             	mov    0x54(%eax),%eax
    42f7:	83 c4 1c             	add    $0x1c,%esp
    42fa:	5b                   	pop    %ebx
    42fb:	5e                   	pop    %esi
    42fc:	5f                   	pop    %edi
    42fd:	5d                   	pop    %ebp
    42fe:	ff e0                	jmp    *%eax
    4300:	83 c4 1c             	add    $0x1c,%esp
    4303:	5b                   	pop    %ebx
    4304:	5e                   	pop    %esi
    4305:	5f                   	pop    %edi
    4306:	5d                   	pop    %ebp
    4307:	c3                   	ret    
    4308:	90                   	nop
    4309:	8d b4 26 00 00 00 00 	lea    0x0(%esi,%eiz,1),%esi

00004310 <grid_add>:
    4310:	55                   	push   %ebp
    4311:	89 e5                	mov    %esp,%ebp
    4313:	57                   	push   %edi
    4314:	56                   	push   %esi
    4315:	53                   	push   %ebx
    4316:	83 ec 3c             	sub    $0x3c,%esp
    4319:	8b 5d 08             	mov    0x8(%ebp),%ebx
    431c:	8b 55 10             	mov    0x10(%ebp),%edx
    431f:	8b 45 18             	mov    0x18(%ebp),%eax
    4322:	8b 75 0c             	mov    0xc(%ebp),%esi
    4325:	01 d0                	add    %edx,%eax
    4327:	8b 5b 5c             	mov    0x5c(%ebx),%ebx
    432a:	89 45 dc             	mov    %eax,-0x24(%ebp)
    432d:	89 5d d4             	mov    %ebx,-0x2c(%ebp)
    4330:	39 d8                	cmp    %ebx,%eax
    4332:	0f 87 ae 00 00 00    	ja     43e6 <grid_add+0xd6>
    4338:	8b 45 08             	mov    0x8(%ebp),%eax
    433b:	8b 7d 1c             	mov    0x1c(%ebp),%edi
    433e:	8b 4d 14             	mov    0x14(%ebp),%ecx
    4341:	01 f9                	add    %edi,%ecx
    4343:	8b 78 60             	mov    0x60(%eax),%edi
    4346:	39 f9                	cmp    %edi,%ecx
    4348:	0f 87 b4 00 00 00    	ja     4402 <grid_add+0xf2>
    434e:	89 c3                	mov    %eax,%ebx
    4350:	89 46 08             	mov    %eax,0x8(%esi)
    4353:	83 c0 0c             	add    $0xc,%eax
    4356:	3b 55 dc             	cmp    -0x24(%ebp),%edx
    4359:	89 46 04             	mov    %eax,0x4(%esi)
    435c:	8b 43 0c             	mov    0xc(%ebx),%eax
    435f:	89 06                	mov    %eax,(%esi)
    4361:	8b 43 0c             	mov    0xc(%ebx),%eax
    4364:	89 73 0c             	mov    %esi,0xc(%ebx)
    4367:	89 70 04             	mov    %esi,0x4(%eax)
    436a:	8b 43 14             	mov    0x14(%ebx),%eax
    436d:	89 46 14             	mov    %eax,0x14(%esi)
    4370:	73 6c                	jae    43de <grid_add+0xce>
    4372:	8d 04 bd 00 00 00 00 	lea    0x0(,%edi,4),%eax
    4379:	8b 5d 14             	mov    0x14(%ebp),%ebx
    437c:	89 45 d8             	mov    %eax,-0x28(%ebp)
    437f:	89 d0                	mov    %edx,%eax
    4381:	0f af c7             	imul   %edi,%eax
    4384:	01 d8                	add    %ebx,%eax
    4386:	89 55 e4             	mov    %edx,-0x1c(%ebp)
    4389:	c1 e0 02             	shl    $0x2,%eax
    438c:	89 45 e0             	mov    %eax,-0x20(%ebp)
    438f:	90                   	nop
    4390:	39 4d 14             	cmp    %ecx,0x14(%ebp)
    4393:	73 2f                	jae    43c4 <grid_add+0xb4>
    4395:	8b 45 e4             	mov    -0x1c(%ebp),%eax
    4398:	39 45 d4             	cmp    %eax,-0x2c(%ebp)
    439b:	76 27                	jbe    43c4 <grid_add+0xb4>
    439d:	8b 55 e0             	mov    -0x20(%ebp),%edx
    43a0:	8b 45 14             	mov    0x14(%ebp),%eax
    43a3:	89 4d d0             	mov    %ecx,-0x30(%ebp)
    43a6:	66 90                	xchg   %ax,%ax
    43a8:	39 c7                	cmp    %eax,%edi
    43aa:	76 0c                	jbe    43b8 <grid_add+0xa8>
    43ac:	8b 5d 08             	mov    0x8(%ebp),%ebx
    43af:	8b 4b 64             	mov    0x64(%ebx),%ecx
    43b2:	01 d1                	add    %edx,%ecx
    43b4:	74 02                	je     43b8 <grid_add+0xa8>
    43b6:	89 31                	mov    %esi,(%ecx)
    43b8:	40                   	inc    %eax
    43b9:	83 c2 04             	add    $0x4,%edx
    43bc:	3b 45 d0             	cmp    -0x30(%ebp),%eax
    43bf:	75 e7                	jne    43a8 <grid_add+0x98>
    43c1:	8b 4d d0             	mov    -0x30(%ebp),%ecx
    43c4:	8b 5d e4             	mov    -0x1c(%ebp),%ebx
    43c7:	8b 55 e0             	mov    -0x20(%ebp),%edx
    43ca:	43                   	inc    %ebx
    43cb:	8b 45 d8             	mov    -0x28(%ebp),%eax
    43ce:	89 5d e4             	mov    %ebx,-0x1c(%ebp)
    43d1:	01 c2                	add    %eax,%edx
    43d3:	8b 5d dc             	mov    -0x24(%ebp),%ebx
    43d6:	89 55 e0             	mov    %edx,-0x20(%ebp)
    43d9:	39 5d e4             	cmp    %ebx,-0x1c(%ebp)
    43dc:	75 b2                	jne    4390 <grid_add+0x80>
    43de:	83 c4 3c             	add    $0x3c,%esp
    43e1:	5b                   	pop    %ebx
    43e2:	5e                   	pop    %esi
    43e3:	5f                   	pop    %edi
    43e4:	5d                   	pop    %ebp
    43e5:	c3                   	ret    
    43e6:	c7 44 24 08 c0 00 00 	movl   $0xc0,0x8(%esp)
    43ed:	00 
    43ee:	c7 44 24 04 64 59 02 	movl   $0x25964,0x4(%esp)
    43f5:	00 
    43f6:	c7 04 24 6b 59 02 00 	movl   $0x2596b,(%esp)
    43fd:	e8 be f1 01 00       	call   235c0 <assert_abort>
    4402:	c7 44 24 08 c1 00 00 	movl   $0xc1,0x8(%esp)
    4409:	00 
    440a:	c7 44 24 04 64 59 02 	movl   $0x25964,0x4(%esp)
    4411:	00 
    4412:	c7 04 24 84 59 02 00 	movl   $0x25984,(%esp)
    4419:	e8 a2 f1 01 00       	call   235c0 <assert_abort>
    441e:	66 90                	xchg   %ax,%ax

00004420 <grid_rearrange>:
    4420:	55                   	push   %ebp
    4421:	89 e5                	mov    %esp,%ebp
    4423:	57                   	push   %edi
    4424:	56                   	push   %esi
    4425:	53                   	push   %ebx
    4426:	83 ec 5c             	sub    $0x5c,%esp
    4429:	8b 45 18             	mov    0x18(%ebp),%eax
    442c:	8b 4d 10             	mov    0x10(%ebp),%ecx
    442f:	8b 75 08             	mov    0x8(%ebp),%esi
    4432:	89 44 24 10          	mov    %eax,0x10(%esp)
    4436:	89 4c 24 08          	mov    %ecx,0x8(%esp)
    443a:	8b 45 14             	mov    0x14(%ebp),%eax
    443d:	8b 4d 0c             	mov    0xc(%ebp),%ecx
    4440:	89 44 24 0c          	mov    %eax,0xc(%esp)
    4444:	89 4c 24 04          	mov    %ecx,0x4(%esp)
    4448:	89 34 24             	mov    %esi,(%esp)
    444b:	e8 80 0b 00 00       	call   4fd0 <widget_modify>
    4450:	8b 46 14             	mov    0x14(%esi),%eax
    4453:	89 04 24             	mov    %eax,(%esp)
    4456:	e8 75 1f 00 00       	call   63d0 <window_claim>
    445b:	89 45 e4             	mov    %eax,-0x1c(%ebp)
    445e:	85 c0                	test   %eax,%eax
    4460:	0f 84 00 02 00 00    	je     4666 <grid_rearrange+0x246>
    4466:	8b 5e 1c             	mov    0x1c(%esi),%ebx
    4469:	8b 4e 24             	mov    0x24(%esi),%ecx
    446c:	01 d9                	add    %ebx,%ecx
    446e:	39 cb                	cmp    %ecx,%ebx
    4470:	73 58                	jae    44ca <grid_rearrange+0xaa>
    4472:	8b 46 18             	mov    0x18(%esi),%eax
    4475:	8b 56 20             	mov    0x20(%esi),%edx
    4478:	01 c2                	add    %eax,%edx
    447a:	89 cf                	mov    %ecx,%edi
    447c:	89 d1                	mov    %edx,%ecx
    447e:	89 c2                	mov    %eax,%edx
    4480:	39 d1                	cmp    %edx,%ecx
    4482:	76 41                	jbe    44c5 <grid_rearrange+0xa5>
    4484:	89 f0                	mov    %esi,%eax
    4486:	89 d7                	mov    %edx,%edi
    4488:	89 de                	mov    %ebx,%esi
    448a:	89 c3                	mov    %eax,%ebx
    448c:	8d 74 26 00          	lea    0x0(%esi,%eiz,1),%esi
    4490:	8b 53 58             	mov    0x58(%ebx),%edx
    4493:	8b 45 e4             	mov    -0x1c(%ebp),%eax
    4496:	89 54 24 0c          	mov    %edx,0xc(%esp)
    449a:	89 7c 24 04          	mov    %edi,0x4(%esp)
    449e:	89 74 24 08          	mov    %esi,0x8(%esp)
    44a2:	89 04 24             	mov    %eax,(%esp)
    44a5:	e8 86 2f 00 00       	call   7430 <surface_put_pixel>
    44aa:	8b 53 18             	mov    0x18(%ebx),%edx
    44ad:	8b 4b 20             	mov    0x20(%ebx),%ecx
    44b0:	47                   	inc    %edi
    44b1:	01 d1                	add    %edx,%ecx
    44b3:	39 cf                	cmp    %ecx,%edi
    44b5:	72 d9                	jb     4490 <grid_rearrange+0x70>
    44b7:	89 d8                	mov    %ebx,%eax
    44b9:	89 f3                	mov    %esi,%ebx
    44bb:	89 c6                	mov    %eax,%esi
    44bd:	8b 78 24             	mov    0x24(%eax),%edi
    44c0:	8b 40 1c             	mov    0x1c(%eax),%eax
    44c3:	01 c7                	add    %eax,%edi
    44c5:	43                   	inc    %ebx
    44c6:	39 fb                	cmp    %edi,%ebx
    44c8:	72 b6                	jb     4480 <grid_rearrange+0x60>
    44ca:	8b 46 14             	mov    0x14(%esi),%eax
    44cd:	89 04 24             	mov    %eax,(%esp)
    44d0:	e8 2b 1f 00 00       	call   6400 <window_yield>
    44d5:	31 d2                	xor    %edx,%edx
    44d7:	8b 5e 60             	mov    0x60(%esi),%ebx
    44da:	8b 45 14             	mov    0x14(%ebp),%eax
    44dd:	f7 f3                	div    %ebx
    44df:	8b 4e 5c             	mov    0x5c(%esi),%ecx
    44e2:	31 d2                	xor    %edx,%edx
    44e4:	89 45 cc             	mov    %eax,-0x34(%ebp)
    44e7:	8b 45 18             	mov    0x18(%ebp),%eax
    44ea:	f7 f1                	div    %ecx
    44ec:	8b 7e 10             	mov    0x10(%esi),%edi
    44ef:	8d 56 0c             	lea    0xc(%esi),%edx
    44f2:	89 4d e0             	mov    %ecx,-0x20(%ebp)
    44f5:	89 45 d4             	mov    %eax,-0x2c(%ebp)
    44f8:	89 55 d0             	mov    %edx,-0x30(%ebp)
    44fb:	39 d7                	cmp    %edx,%edi
    44fd:	0f 84 5b 01 00 00    	je     465e <grid_rearrange+0x23e>
    4503:	89 75 d8             	mov    %esi,-0x28(%ebp)
    4506:	66 90                	xchg   %ax,%ax
    4508:	8b 75 e0             	mov    -0x20(%ebp),%esi
    450b:	c7 45 dc 00 00 00 00 	movl   $0x0,-0x24(%ebp)
    4512:	c7 45 e4 00 00 00 00 	movl   $0x0,-0x1c(%ebp)
    4519:	85 f6                	test   %esi,%esi
    451b:	0f 84 2c 01 00 00    	je     464d <grid_rearrange+0x22d>
    4521:	85 db                	test   %ebx,%ebx
    4523:	0f 84 0e 01 00 00    	je     4637 <grid_rearrange+0x217>
    4529:	8b 4d e4             	mov    -0x1c(%ebp),%ecx
    452c:	39 4d e0             	cmp    %ecx,-0x20(%ebp)
    452f:	0f 86 fb 00 00 00    	jbe    4630 <grid_rearrange+0x210>
    4535:	8b 55 dc             	mov    -0x24(%ebp),%edx
    4538:	31 c0                	xor    %eax,%eax
    453a:	c1 e2 02             	shl    $0x2,%edx
    453d:	89 d1                	mov    %edx,%ecx
    453f:	90                   	nop
    4540:	39 c3                	cmp    %eax,%ebx
    4542:	76 14                	jbe    4558 <grid_rearrange+0x138>
    4544:	8b 55 d8             	mov    -0x28(%ebp),%edx
    4547:	8b 72 64             	mov    0x64(%edx),%esi
    454a:	89 f2                	mov    %esi,%edx
    454c:	01 ca                	add    %ecx,%edx
    454e:	74 08                	je     4558 <grid_rearrange+0x138>
    4550:	3b 3a                	cmp    (%edx),%edi
    4552:	0f 84 20 01 00 00    	je     4678 <grid_rearrange+0x258>
    4558:	40                   	inc    %eax
    4559:	83 c1 04             	add    $0x4,%ecx
    455c:	39 d8                	cmp    %ebx,%eax
    455e:	75 e0                	jne    4540 <grid_rearrange+0x120>
    4560:	8b 55 e4             	mov    -0x1c(%ebp),%edx
    4563:	8b 4d dc             	mov    -0x24(%ebp),%ecx
    4566:	01 d9                	add    %ebx,%ecx
    4568:	42                   	inc    %edx
    4569:	89 55 e4             	mov    %edx,-0x1c(%ebp)
    456c:	89 4d dc             	mov    %ecx,-0x24(%ebp)
    456f:	8b 4d e0             	mov    -0x20(%ebp),%ecx
    4572:	39 4d e4             	cmp    %ecx,-0x1c(%ebp)
    4575:	75 aa                	jne    4521 <grid_rearrange+0x101>
    4577:	8b 4d e4             	mov    -0x1c(%ebp),%ecx
    457a:	8b 75 d4             	mov    -0x2c(%ebp),%esi
    457d:	8b 55 cc             	mov    -0x34(%ebp),%edx
    4580:	0f af ce             	imul   %esi,%ecx
    4583:	0f af d0             	imul   %eax,%edx
    4586:	8b 75 0c             	mov    0xc(%ebp),%esi
    4589:	01 f2                	add    %esi,%edx
    458b:	89 55 c0             	mov    %edx,-0x40(%ebp)
    458e:	8b 55 10             	mov    0x10(%ebp),%edx
    4591:	01 d1                	add    %edx,%ecx
    4593:	89 4d bc             	mov    %ecx,-0x44(%ebp)
    4596:	8b 4d e0             	mov    -0x20(%ebp),%ecx
    4599:	39 4d e4             	cmp    %ecx,-0x1c(%ebp)
    459c:	73 75                	jae    4613 <grid_rearrange+0x1f3>
    459e:	39 d8                	cmp    %ebx,%eax
    45a0:	73 71                	jae    4613 <grid_rearrange+0x1f3>
    45a2:	8b 55 d8             	mov    -0x28(%ebp),%edx
    45a5:	c7 45 dc 00 00 00 00 	movl   $0x0,-0x24(%ebp)
    45ac:	8b 72 64             	mov    0x64(%edx),%esi
    45af:	8b 55 e4             	mov    -0x1c(%ebp),%edx
    45b2:	0f af d3             	imul   %ebx,%edx
    45b5:	01 c2                	add    %eax,%edx
    45b7:	8d 14 96             	lea    (%esi,%edx,4),%edx
    45ba:	85 d2                	test   %edx,%edx
    45bc:	74 55                	je     4613 <grid_rearrange+0x1f3>
    45be:	3b 3a                	cmp    (%edx),%edi
    45c0:	75 51                	jne    4613 <grid_rearrange+0x1f3>
    45c2:	8b 4d e4             	mov    -0x1c(%ebp),%ecx
    45c5:	8d 14 9d 00 00 00 00 	lea    0x0(,%ebx,4),%edx
    45cc:	41                   	inc    %ecx
    45cd:	0f af cb             	imul   %ebx,%ecx
    45d0:	01 c8                	add    %ecx,%eax
    45d2:	8b 4d e4             	mov    -0x1c(%ebp),%ecx
    45d5:	f7 db                	neg    %ebx
    45d7:	c1 e3 02             	shl    $0x2,%ebx
    45da:	8d 04 86             	lea    (%esi,%eax,4),%eax
    45dd:	31 f6                	xor    %esi,%esi
    45df:	90                   	nop
    45e0:	41                   	inc    %ecx
    45e1:	03 75 d4             	add    -0x2c(%ebp),%esi
    45e4:	39 4d e0             	cmp    %ecx,-0x20(%ebp)
    45e7:	77 57                	ja     4640 <grid_rearrange+0x220>
    45e9:	85 f6                	test   %esi,%esi
    45eb:	74 26                	je     4613 <grid_rearrange+0x1f3>
    45ed:	8b 45 dc             	mov    -0x24(%ebp),%eax
    45f0:	85 c0                	test   %eax,%eax
    45f2:	74 1f                	je     4613 <grid_rearrange+0x1f3>
    45f4:	8b 4d dc             	mov    -0x24(%ebp),%ecx
    45f7:	8b 45 bc             	mov    -0x44(%ebp),%eax
    45fa:	8b 55 c0             	mov    -0x40(%ebp),%edx
    45fd:	89 74 24 10          	mov    %esi,0x10(%esp)
    4601:	89 4c 24 0c          	mov    %ecx,0xc(%esp)
    4605:	89 44 24 08          	mov    %eax,0x8(%esp)
    4609:	89 54 24 04          	mov    %edx,0x4(%esp)
    460d:	89 3c 24             	mov    %edi,(%esp)
    4610:	ff 57 48             	call   *0x48(%edi)
    4613:	8b 7f 04             	mov    0x4(%edi),%edi
    4616:	3b 7d d0             	cmp    -0x30(%ebp),%edi
    4619:	74 43                	je     465e <grid_rearrange+0x23e>
    461b:	8b 4d d8             	mov    -0x28(%ebp),%ecx
    461e:	8b 59 60             	mov    0x60(%ecx),%ebx
    4621:	8b 49 5c             	mov    0x5c(%ecx),%ecx
    4624:	89 4d e0             	mov    %ecx,-0x20(%ebp)
    4627:	e9 dc fe ff ff       	jmp    4508 <grid_rearrange+0xe8>
    462c:	8d 74 26 00          	lea    0x0(%esi,%eiz,1),%esi
    4630:	89 d8                	mov    %ebx,%eax
    4632:	e9 29 ff ff ff       	jmp    4560 <grid_rearrange+0x140>
    4637:	31 c0                	xor    %eax,%eax
    4639:	e9 22 ff ff ff       	jmp    4560 <grid_rearrange+0x140>
    463e:	66 90                	xchg   %ax,%ax
    4640:	85 c0                	test   %eax,%eax
    4642:	74 a5                	je     45e9 <grid_rearrange+0x1c9>
    4644:	01 d0                	add    %edx,%eax
    4646:	3b 3c 18             	cmp    (%eax,%ebx,1),%edi
    4649:	74 95                	je     45e0 <grid_rearrange+0x1c0>
    464b:	eb 9c                	jmp    45e9 <grid_rearrange+0x1c9>
    464d:	8b 45 e0             	mov    -0x20(%ebp),%eax
    4650:	31 d2                	xor    %edx,%edx
    4652:	89 45 e4             	mov    %eax,-0x1c(%ebp)
    4655:	31 c9                	xor    %ecx,%ecx
    4657:	31 c0                	xor    %eax,%eax
    4659:	e9 28 ff ff ff       	jmp    4586 <grid_rearrange+0x166>
    465e:	83 c4 5c             	add    $0x5c,%esp
    4661:	5b                   	pop    %ebx
    4662:	5e                   	pop    %esi
    4663:	5f                   	pop    %edi
    4664:	5d                   	pop    %ebp
    4665:	c3                   	ret    
    4666:	8b 46 14             	mov    0x14(%esi),%eax
    4669:	89 04 24             	mov    %eax,(%esp)
    466c:	e8 8f 1d 00 00       	call   6400 <window_yield>
    4671:	e9 f0 fd ff ff       	jmp    4466 <grid_rearrange+0x46>
    4676:	66 90                	xchg   %ax,%ax
    4678:	8b 55 cc             	mov    -0x34(%ebp),%edx
    467b:	8b 4d 0c             	mov    0xc(%ebp),%ecx
    467e:	0f af d0             	imul   %eax,%edx
    4681:	01 ca                	add    %ecx,%edx
    4683:	8b 4d d4             	mov    -0x2c(%ebp),%ecx
    4686:	89 55 c0             	mov    %edx,-0x40(%ebp)
    4689:	8b 55 e4             	mov    -0x1c(%ebp),%edx
    468c:	0f af d1             	imul   %ecx,%edx
    468f:	8b 4d 10             	mov    0x10(%ebp),%ecx
    4692:	89 45 c8             	mov    %eax,-0x38(%ebp)
    4695:	01 ca                	add    %ecx,%edx
    4697:	8b 4d dc             	mov    -0x24(%ebp),%ecx
    469a:	89 55 bc             	mov    %edx,-0x44(%ebp)
    469d:	89 75 c4             	mov    %esi,-0x3c(%ebp)
    46a0:	8d 54 08 01          	lea    0x1(%eax,%ecx,1),%edx
    46a4:	c7 45 dc 00 00 00 00 	movl   $0x0,-0x24(%ebp)
    46ab:	89 c1                	mov    %eax,%ecx
    46ad:	31 c0                	xor    %eax,%eax
    46af:	8d 14 96             	lea    (%esi,%edx,4),%edx
    46b2:	8b 75 cc             	mov    -0x34(%ebp),%esi
    46b5:	eb 0d                	jmp    46c4 <grid_rearrange+0x2a4>
    46b7:	90                   	nop
    46b8:	85 d2                	test   %edx,%edx
    46ba:	74 0f                	je     46cb <grid_rearrange+0x2ab>
    46bc:	83 c2 04             	add    $0x4,%edx
    46bf:	3b 7a fc             	cmp    -0x4(%edx),%edi
    46c2:	75 07                	jne    46cb <grid_rearrange+0x2ab>
    46c4:	41                   	inc    %ecx
    46c5:	01 f0                	add    %esi,%eax
    46c7:	39 d9                	cmp    %ebx,%ecx
    46c9:	72 ed                	jb     46b8 <grid_rearrange+0x298>
    46cb:	89 45 dc             	mov    %eax,-0x24(%ebp)
    46ce:	8b 75 c4             	mov    -0x3c(%ebp),%esi
    46d1:	8b 45 c8             	mov    -0x38(%ebp),%eax
    46d4:	e9 d6 fe ff ff       	jmp    45af <grid_rearrange+0x18f>
    46d9:	8d b4 26 00 00 00 00 	lea    0x0(%esi,%eiz,1),%esi

000046e0 <grid_destroy>:
    46e0:	55                   	push   %ebp
    46e1:	89 e5                	mov    %esp,%ebp
    46e3:	53                   	push   %ebx
    46e4:	83 ec 14             	sub    $0x14,%esp
    46e7:	8b 5d 08             	mov    0x8(%ebp),%ebx
    46ea:	89 1c 24             	mov    %ebx,(%esp)
    46ed:	e8 fe 08 00 00       	call   4ff0 <widget_deinit>
    46f2:	8b 43 64             	mov    0x64(%ebx),%eax
    46f5:	89 04 24             	mov    %eax,(%esp)
    46f8:	e8 f3 46 01 00       	call   18df0 <free>
    46fd:	89 5d 08             	mov    %ebx,0x8(%ebp)
    4700:	83 c4 14             	add    $0x14,%esp
    4703:	5b                   	pop    %ebx
    4704:	5d                   	pop    %ebp
    4705:	e9 e6 46 01 00       	jmp    18df0 <free>
    470a:	8d b6 00 00 00 00    	lea    0x0(%esi),%esi

00004710 <grid_repaint>:
    4710:	55                   	push   %ebp
    4711:	89 e5                	mov    %esp,%ebp
    4713:	57                   	push   %edi
    4714:	56                   	push   %esi
    4715:	53                   	push   %ebx
    4716:	83 ec 2c             	sub    $0x2c,%esp
    4719:	8b 7d 08             	mov    0x8(%ebp),%edi
    471c:	8b 47 14             	mov    0x14(%edi),%eax
    471f:	89 04 24             	mov    %eax,(%esp)
    4722:	e8 a9 1c 00 00       	call   63d0 <window_claim>
    4727:	89 45 e4             	mov    %eax,-0x1c(%ebp)
    472a:	85 c0                	test   %eax,%eax
    472c:	0f 84 8d 00 00 00    	je     47bf <grid_repaint+0xaf>
    4732:	8b 77 1c             	mov    0x1c(%edi),%esi
    4735:	8b 5f 24             	mov    0x24(%edi),%ebx
    4738:	01 f3                	add    %esi,%ebx
    473a:	39 de                	cmp    %ebx,%esi
    473c:	73 46                	jae    4784 <grid_repaint+0x74>
    473e:	8b 47 18             	mov    0x18(%edi),%eax
    4741:	8b 4f 20             	mov    0x20(%edi),%ecx
    4744:	01 c1                	add    %eax,%ecx
    4746:	66 90                	xchg   %ax,%ax
    4748:	39 c1                	cmp    %eax,%ecx
    474a:	76 33                	jbe    477f <grid_repaint+0x6f>
    474c:	89 c3                	mov    %eax,%ebx
    474e:	66 90                	xchg   %ax,%ax
    4750:	8b 47 58             	mov    0x58(%edi),%eax
    4753:	89 5c 24 04          	mov    %ebx,0x4(%esp)
    4757:	89 44 24 0c          	mov    %eax,0xc(%esp)
    475b:	8b 45 e4             	mov    -0x1c(%ebp),%eax
    475e:	89 04 24             	mov    %eax,(%esp)
    4761:	89 74 24 08          	mov    %esi,0x8(%esp)
    4765:	e8 c6 2c 00 00       	call   7430 <surface_put_pixel>
    476a:	8b 47 18             	mov    0x18(%edi),%eax
    476d:	8b 4f 20             	mov    0x20(%edi),%ecx
    4770:	43                   	inc    %ebx
    4771:	01 c1                	add    %eax,%ecx
    4773:	39 cb                	cmp    %ecx,%ebx
    4775:	72 d9                	jb     4750 <grid_repaint+0x40>
    4777:	8b 5f 24             	mov    0x24(%edi),%ebx
    477a:	8b 57 1c             	mov    0x1c(%edi),%edx
    477d:	01 d3                	add    %edx,%ebx
    477f:	46                   	inc    %esi
    4780:	39 de                	cmp    %ebx,%esi
    4782:	72 c4                	jb     4748 <grid_repaint+0x38>
    4784:	8b 47 14             	mov    0x14(%edi),%eax
    4787:	8d 77 0c             	lea    0xc(%edi),%esi
    478a:	89 04 24             	mov    %eax,(%esp)
    478d:	e8 6e 1c 00 00       	call   6400 <window_yield>
    4792:	8b 5f 10             	mov    0x10(%edi),%ebx
    4795:	39 f3                	cmp    %esi,%ebx
    4797:	74 14                	je     47ad <grid_repaint+0x9d>
    4799:	8d b4 26 00 00 00 00 	lea    0x0(%esi,%eiz,1),%esi
    47a0:	89 1c 24             	mov    %ebx,(%esp)
    47a3:	ff 53 4c             	call   *0x4c(%ebx)
    47a6:	8b 5b 04             	mov    0x4(%ebx),%ebx
    47a9:	39 f3                	cmp    %esi,%ebx
    47ab:	75 f3                	jne    47a0 <grid_repaint+0x90>
    47ad:	8b 47 14             	mov    0x14(%edi),%eax
    47b0:	89 45 08             	mov    %eax,0x8(%ebp)
    47b3:	83 c4 2c             	add    $0x2c,%esp
    47b6:	5b                   	pop    %ebx
    47b7:	5e                   	pop    %esi
    47b8:	5f                   	pop    %edi
    47b9:	5d                   	pop    %ebp
    47ba:	e9 61 1b 00 00       	jmp    6320 <window_damage>
    47bf:	8b 47 14             	mov    0x14(%edi),%eax
    47c2:	89 04 24             	mov    %eax,(%esp)
    47c5:	e8 36 1c 00 00       	call   6400 <window_yield>
    47ca:	e9 63 ff ff ff       	jmp    4732 <grid_repaint+0x22>
    47cf:	90                   	nop

000047d0 <deinit_grid>:
    47d0:	55                   	push   %ebp
    47d1:	89 e5                	mov    %esp,%ebp
    47d3:	53                   	push   %ebx
    47d4:	83 ec 14             	sub    $0x14,%esp
    47d7:	8b 5d 08             	mov    0x8(%ebp),%ebx
    47da:	89 1c 24             	mov    %ebx,(%esp)
    47dd:	e8 0e 08 00 00       	call   4ff0 <widget_deinit>
    47e2:	8b 43 64             	mov    0x64(%ebx),%eax
    47e5:	89 45 08             	mov    %eax,0x8(%ebp)
    47e8:	83 c4 14             	add    $0x14,%esp
    47eb:	5b                   	pop    %ebx
    47ec:	5d                   	pop    %ebp
    47ed:	e9 fe 45 01 00       	jmp    18df0 <free>
    47f2:	8d b4 26 00 00 00 00 	lea    0x0(%esi,%eiz,1),%esi
    47f9:	8d bc 27 00 00 00 00 	lea    0x0(%edi,%eiz,1),%edi

00004800 <init_grid>:
    4800:	55                   	push   %ebp
    4801:	89 e5                	mov    %esp,%ebp
    4803:	57                   	push   %edi
    4804:	56                   	push   %esi
    4805:	53                   	push   %ebx
    4806:	83 ec 1c             	sub    $0x1c,%esp
    4809:	8b 7d 10             	mov    0x10(%ebp),%edi
    480c:	8b 5d 08             	mov    0x8(%ebp),%ebx
    480f:	85 ff                	test   %edi,%edi
    4811:	0f 84 bf 00 00 00    	je     48d6 <init_grid+0xd6>
    4817:	8b 75 14             	mov    0x14(%ebp),%esi
    481a:	85 f6                	test   %esi,%esi
    481c:	0f 84 98 00 00 00    	je     48ba <init_grid+0xba>
    4822:	8b 75 10             	mov    0x10(%ebp),%esi
    4825:	8b 4d 14             	mov    0x14(%ebp),%ecx
    4828:	c1 e6 02             	shl    $0x2,%esi
    482b:	0f af f1             	imul   %ecx,%esi
    482e:	89 34 24             	mov    %esi,(%esp)
    4831:	e8 aa 44 01 00       	call   18ce0 <malloc>
    4836:	89 c7                	mov    %eax,%edi
    4838:	85 c0                	test   %eax,%eax
    483a:	74 74                	je     48b0 <init_grid+0xb0>
    483c:	89 74 24 08          	mov    %esi,0x8(%esp)
    4840:	c7 44 24 04 00 00 00 	movl   $0x0,0x4(%esp)
    4847:	00 
    4848:	89 04 24             	mov    %eax,(%esp)
    484b:	e8 10 71 00 00       	call   b960 <memset>
    4850:	8b 45 0c             	mov    0xc(%ebp),%eax
    4853:	89 44 24 04          	mov    %eax,0x4(%esp)
    4857:	89 1c 24             	mov    %ebx,(%esp)
    485a:	e8 d1 06 00 00       	call   4f30 <widget_init>
    485f:	8b 45 18             	mov    0x18(%ebp),%eax
    4862:	89 43 58             	mov    %eax,0x58(%ebx)
    4865:	8b 45 10             	mov    0x10(%ebp),%eax
    4868:	89 43 5c             	mov    %eax,0x5c(%ebx)
    486b:	8b 45 14             	mov    0x14(%ebp),%eax
    486e:	89 43 60             	mov    %eax,0x60(%ebx)
    4871:	c7 43 40 e0 46 00 00 	movl   $0x46e0,0x40(%ebx)
    4878:	c7 43 44 60 42 00 00 	movl   $0x4260,0x44(%ebx)
    487f:	c7 43 48 20 44 00 00 	movl   $0x4420,0x48(%ebx)
    4886:	c7 43 4c 10 47 00 00 	movl   $0x4710,0x4c(%ebx)
    488d:	c7 43 50 70 42 00 00 	movl   $0x4270,0x50(%ebx)
    4894:	c7 43 54 80 42 00 00 	movl   $0x4280,0x54(%ebx)
    489b:	c7 43 68 10 43 00 00 	movl   $0x4310,0x68(%ebx)
    48a2:	89 7b 64             	mov    %edi,0x64(%ebx)
    48a5:	83 c4 1c             	add    $0x1c,%esp
    48a8:	b0 01                	mov    $0x1,%al
    48aa:	5b                   	pop    %ebx
    48ab:	5e                   	pop    %esi
    48ac:	5f                   	pop    %edi
    48ad:	5d                   	pop    %ebp
    48ae:	c3                   	ret    
    48af:	90                   	nop
    48b0:	83 c4 1c             	add    $0x1c,%esp
    48b3:	31 c0                	xor    %eax,%eax
    48b5:	5b                   	pop    %ebx
    48b6:	5e                   	pop    %esi
    48b7:	5f                   	pop    %edi
    48b8:	5d                   	pop    %ebp
    48b9:	c3                   	ret    
    48ba:	c7 44 24 08 d5 00 00 	movl   $0xd5,0x8(%esp)
    48c1:	00 
    48c2:	c7 44 24 04 64 59 02 	movl   $0x25964,0x4(%esp)
    48c9:	00 
    48ca:	c7 04 24 a6 59 02 00 	movl   $0x259a6,(%esp)
    48d1:	e8 ea ec 01 00       	call   235c0 <assert_abort>
    48d6:	c7 44 24 08 d4 00 00 	movl   $0xd4,0x8(%esp)
    48dd:	00 
    48de:	c7 44 24 04 64 59 02 	movl   $0x25964,0x4(%esp)
    48e5:	00 
    48e6:	c7 04 24 9d 59 02 00 	movl   $0x2599d,(%esp)
    48ed:	e8 ce ec 01 00       	call   235c0 <assert_abort>
    48f2:	8d b4 26 00 00 00 00 	lea    0x0(%esi,%eiz,1),%esi
    48f9:	8d bc 27 00 00 00 00 	lea    0x0(%edi,%eiz,1),%edi

00004900 <create_grid>:
    4900:	55                   	push   %ebp
    4901:	89 e5                	mov    %esp,%ebp
    4903:	57                   	push   %edi
    4904:	56                   	push   %esi
    4905:	53                   	push   %ebx
    4906:	83 ec 1c             	sub    $0x1c,%esp
    4909:	c7 04 24 6c 00 00 00 	movl   $0x6c,(%esp)
    4910:	e8 cb 43 01 00       	call   18ce0 <malloc>
    4915:	89 c3                	mov    %eax,%ebx
    4917:	85 c0                	test   %eax,%eax
    4919:	0f 84 99 00 00 00    	je     49b8 <create_grid+0xb8>
    491f:	8b 45 0c             	mov    0xc(%ebp),%eax
    4922:	85 c0                	test   %eax,%eax
    4924:	0f 84 ce 00 00 00    	je     49f8 <create_grid+0xf8>
    492a:	8b 45 10             	mov    0x10(%ebp),%eax
    492d:	85 c0                	test   %eax,%eax
    492f:	0f 84 a7 00 00 00    	je     49dc <create_grid+0xdc>
    4935:	8b 75 0c             	mov    0xc(%ebp),%esi
    4938:	8b 45 10             	mov    0x10(%ebp),%eax
    493b:	c1 e6 02             	shl    $0x2,%esi
    493e:	0f af f0             	imul   %eax,%esi
    4941:	89 34 24             	mov    %esi,(%esp)
    4944:	e8 97 43 01 00       	call   18ce0 <malloc>
    4949:	89 c7                	mov    %eax,%edi
    494b:	85 c0                	test   %eax,%eax
    494d:	74 79                	je     49c8 <create_grid+0xc8>
    494f:	89 74 24 08          	mov    %esi,0x8(%esp)
    4953:	c7 44 24 04 00 00 00 	movl   $0x0,0x4(%esp)
    495a:	00 
    495b:	89 04 24             	mov    %eax,(%esp)
    495e:	e8 fd 6f 00 00       	call   b960 <memset>
    4963:	8b 45 08             	mov    0x8(%ebp),%eax
    4966:	89 44 24 04          	mov    %eax,0x4(%esp)
    496a:	89 1c 24             	mov    %ebx,(%esp)
    496d:	e8 be 05 00 00       	call   4f30 <widget_init>
    4972:	8b 45 14             	mov    0x14(%ebp),%eax
    4975:	89 43 58             	mov    %eax,0x58(%ebx)
    4978:	8b 45 0c             	mov    0xc(%ebp),%eax
    497b:	89 43 5c             	mov    %eax,0x5c(%ebx)
    497e:	8b 45 10             	mov    0x10(%ebp),%eax
    4981:	c7 43 40 e0 46 00 00 	movl   $0x46e0,0x40(%ebx)
    4988:	c7 43 44 60 42 00 00 	movl   $0x4260,0x44(%ebx)
    498f:	c7 43 48 20 44 00 00 	movl   $0x4420,0x48(%ebx)
    4996:	c7 43 4c 10 47 00 00 	movl   $0x4710,0x4c(%ebx)
    499d:	c7 43 50 70 42 00 00 	movl   $0x4270,0x50(%ebx)
    49a4:	c7 43 54 80 42 00 00 	movl   $0x4280,0x54(%ebx)
    49ab:	c7 43 68 10 43 00 00 	movl   $0x4310,0x68(%ebx)
    49b2:	89 43 60             	mov    %eax,0x60(%ebx)
    49b5:	89 7b 64             	mov    %edi,0x64(%ebx)
    49b8:	83 c4 1c             	add    $0x1c,%esp
    49bb:	89 d8                	mov    %ebx,%eax
    49bd:	5b                   	pop    %ebx
    49be:	5e                   	pop    %esi
    49bf:	5f                   	pop    %edi
    49c0:	5d                   	pop    %ebp
    49c1:	c3                   	ret    
    49c2:	8d b6 00 00 00 00    	lea    0x0(%esi),%esi
    49c8:	89 1c 24             	mov    %ebx,(%esp)
    49cb:	31 db                	xor    %ebx,%ebx
    49cd:	e8 1e 44 01 00       	call   18df0 <free>
    49d2:	83 c4 1c             	add    $0x1c,%esp
    49d5:	89 d8                	mov    %ebx,%eax
    49d7:	5b                   	pop    %ebx
    49d8:	5e                   	pop    %esi
    49d9:	5f                   	pop    %edi
    49da:	5d                   	pop    %ebp
    49db:	c3                   	ret    
    49dc:	c7 44 24 08 d5 00 00 	movl   $0xd5,0x8(%esp)
    49e3:	00 
    49e4:	c7 44 24 04 64 59 02 	movl   $0x25964,0x4(%esp)
    49eb:	00 
    49ec:	c7 04 24 a6 59 02 00 	movl   $0x259a6,(%esp)
    49f3:	e8 c8 eb 01 00       	call   235c0 <assert_abort>
    49f8:	c7 44 24 08 d4 00 00 	movl   $0xd4,0x8(%esp)
    49ff:	00 
    4a00:	c7 44 24 04 64 59 02 	movl   $0x25964,0x4(%esp)
    4a07:	00 
    4a08:	c7 04 24 9d 59 02 00 	movl   $0x2599d,(%esp)
    4a0f:	e8 ac eb 01 00       	call   235c0 <assert_abort>
    4a14:	66 90                	xchg   %ax,%ax
    4a16:	66 90                	xchg   %ax,%ax
    4a18:	66 90                	xchg   %ax,%ax
    4a1a:	66 90                	xchg   %ax,%ax
    4a1c:	66 90                	xchg   %ax,%ax
    4a1e:	66 90                	xchg   %ax,%ax

00004a20 <label_reconfigure>:
    4a20:	55                   	push   %ebp
    4a21:	89 e5                	mov    %esp,%ebp
    4a23:	5d                   	pop    %ebp
    4a24:	c3                   	ret    
    4a25:	8d 74 26 00          	lea    0x0(%esi,%eiz,1),%esi
    4a29:	8d bc 27 00 00 00 00 	lea    0x0(%edi,%eiz,1),%edi

00004a30 <label_handle_keyboard_event>:
    4a30:	55                   	push   %ebp
    4a31:	89 e5                	mov    %esp,%ebp
    4a33:	5d                   	pop    %ebp
    4a34:	c3                   	ret    
    4a35:	8d 74 26 00          	lea    0x0(%esi,%eiz,1),%esi
    4a39:	8d bc 27 00 00 00 00 	lea    0x0(%edi,%eiz,1),%edi

00004a40 <label_handle_position_event>:
    4a40:	55                   	push   %ebp
    4a41:	89 e5                	mov    %esp,%ebp
    4a43:	5d                   	pop    %ebp
    4a44:	c3                   	ret    
    4a45:	8d 74 26 00          	lea    0x0(%esi,%eiz,1),%esi
    4a49:	8d bc 27 00 00 00 00 	lea    0x0(%edi,%eiz,1),%edi

00004a50 <on_rewrite>:
    4a50:	55                   	push   %ebp
    4a51:	89 e5                	mov    %esp,%ebp
    4a53:	53                   	push   %ebx
    4a54:	83 ec 24             	sub    $0x24,%esp
    4a57:	8b 45 0c             	mov    0xc(%ebp),%eax
    4a5a:	8b 5d 08             	mov    0x8(%ebp),%ebx
    4a5d:	85 c0                	test   %eax,%eax
    4a5f:	74 51                	je     4ab2 <on_rewrite+0x62>
    4a61:	89 04 24             	mov    %eax,(%esp)
    4a64:	e8 27 9e 00 00       	call   e890 <str_dup>
    4a69:	8d 55 f4             	lea    -0xc(%ebp),%edx
    4a6c:	89 83 20 01 00 00    	mov    %eax,0x120(%ebx)
    4a72:	89 54 24 0c          	mov    %edx,0xc(%esp)
    4a76:	89 44 24 04          	mov    %eax,0x4(%esp)
    4a7a:	8d 55 f0             	lea    -0x10(%ebp),%edx
    4a7d:	8d 83 24 01 00 00    	lea    0x124(%ebx),%eax
    4a83:	89 54 24 08          	mov    %edx,0x8(%esp)
    4a87:	89 04 24             	mov    %eax,(%esp)
    4a8a:	e8 f1 1f 00 00       	call   6a80 <font_get_box>
    4a8f:	8b 45 f4             	mov    -0xc(%ebp),%eax
    4a92:	83 c0 04             	add    $0x4,%eax
    4a95:	8b 55 f0             	mov    -0x10(%ebp),%edx
    4a98:	83 c2 04             	add    $0x4,%edx
    4a9b:	89 43 2c             	mov    %eax,0x2c(%ebx)
    4a9e:	89 43 34             	mov    %eax,0x34(%ebx)
    4aa1:	8b 43 14             	mov    0x14(%ebx),%eax
    4aa4:	89 53 28             	mov    %edx,0x28(%ebx)
    4aa7:	89 53 30             	mov    %edx,0x30(%ebx)
    4aaa:	89 04 24             	mov    %eax,(%esp)
    4aad:	e8 2e 18 00 00       	call   62e0 <window_refresh>
    4ab2:	83 c4 24             	add    $0x24,%esp
    4ab5:	5b                   	pop    %ebx
    4ab6:	5d                   	pop    %ebp
    4ab7:	c3                   	ret    
    4ab8:	90                   	nop
    4ab9:	8d b4 26 00 00 00 00 	lea    0x0(%esi,%eiz,1),%esi

00004ac0 <paint_internal>:
    4ac0:	55                   	push   %ebp
    4ac1:	89 e5                	mov    %esp,%ebp
    4ac3:	57                   	push   %edi
    4ac4:	56                   	push   %esi
    4ac5:	53                   	push   %ebx
    4ac6:	83 ec 7c             	sub    $0x7c,%esp
    4ac9:	89 c3                	mov    %eax,%ebx
    4acb:	8b 40 14             	mov    0x14(%eax),%eax
    4ace:	89 04 24             	mov    %eax,(%esp)
    4ad1:	e8 fa 18 00 00       	call   63d0 <window_claim>
    4ad6:	85 c0                	test   %eax,%eax
    4ad8:	0f 84 f2 00 00 00    	je     4bd0 <paint_internal+0x110>
    4ade:	8d 75 b0             	lea    -0x50(%ebp),%esi
    4ae1:	89 44 24 04          	mov    %eax,0x4(%esp)
    4ae5:	89 34 24             	mov    %esi,(%esp)
    4ae8:	8d bb 24 01 00 00    	lea    0x124(%ebx),%edi
    4aee:	e8 4d 19 00 00       	call   6440 <drawctx_init>
    4af3:	8d 43 58             	lea    0x58(%ebx),%eax
    4af6:	89 44 24 04          	mov    %eax,0x4(%esp)
    4afa:	89 34 24             	mov    %esi,(%esp)
    4afd:	e8 2e 1b 00 00       	call   6630 <drawctx_set_source>
    4b02:	8b 43 24             	mov    0x24(%ebx),%eax
    4b05:	89 44 24 10          	mov    %eax,0x10(%esp)
    4b09:	8b 43 20             	mov    0x20(%ebx),%eax
    4b0c:	89 44 24 0c          	mov    %eax,0xc(%esp)
    4b10:	8b 43 1c             	mov    0x1c(%ebx),%eax
    4b13:	89 44 24 08          	mov    %eax,0x8(%esp)
    4b17:	8b 43 18             	mov    0x18(%ebx),%eax
    4b1a:	89 44 24 04          	mov    %eax,0x4(%esp)
    4b1e:	89 34 24             	mov    %esi,(%esp)
    4b21:	e8 2a 1b 00 00       	call   6650 <drawctx_transfer>
    4b26:	8d 45 ac             	lea    -0x54(%ebp),%eax
    4b29:	89 44 24 0c          	mov    %eax,0xc(%esp)
    4b2d:	8d 45 a8             	lea    -0x58(%ebp),%eax
    4b30:	89 44 24 08          	mov    %eax,0x8(%esp)
    4b34:	8b 83 20 01 00 00    	mov    0x120(%ebx),%eax
    4b3a:	89 44 24 04          	mov    %eax,0x4(%esp)
    4b3e:	89 3c 24             	mov    %edi,(%esp)
    4b41:	e8 3a 1f 00 00       	call   6a80 <font_get_box>
    4b46:	8b 45 a8             	mov    -0x58(%ebp),%eax
    4b49:	39 43 20             	cmp    %eax,0x20(%ebx)
    4b4c:	72 08                	jb     4b56 <paint_internal+0x96>
    4b4e:	8b 45 ac             	mov    -0x54(%ebp),%eax
    4b51:	39 43 24             	cmp    %eax,0x24(%ebx)
    4b54:	73 1a                	jae    4b70 <paint_internal+0xb0>
    4b56:	8b 43 14             	mov    0x14(%ebx),%eax
    4b59:	89 04 24             	mov    %eax,(%esp)
    4b5c:	e8 9f 18 00 00       	call   6400 <window_yield>
    4b61:	83 c4 7c             	add    $0x7c,%esp
    4b64:	5b                   	pop    %ebx
    4b65:	5e                   	pop    %esi
    4b66:	5f                   	pop    %edi
    4b67:	5d                   	pop    %ebp
    4b68:	c3                   	ret    
    4b69:	8d b4 26 00 00 00 00 	lea    0x0(%esi,%eiz,1),%esi
    4b70:	8d 83 bc 00 00 00    	lea    0xbc(%ebx),%eax
    4b76:	89 34 24             	mov    %esi,(%esp)
    4b79:	89 44 24 04          	mov    %eax,0x4(%esp)
    4b7d:	e8 ae 1a 00 00       	call   6630 <drawctx_set_source>
    4b82:	89 7c 24 04          	mov    %edi,0x4(%esp)
    4b86:	89 34 24             	mov    %esi,(%esp)
    4b89:	e8 b2 1a 00 00       	call   6640 <drawctx_set_font>
    4b8e:	8b 55 a8             	mov    -0x58(%ebp),%edx
    4b91:	8b 43 20             	mov    0x20(%ebx),%eax
    4b94:	8b 7d ac             	mov    -0x54(%ebp),%edi
    4b97:	29 d0                	sub    %edx,%eax
    4b99:	8b 53 24             	mov    0x24(%ebx),%edx
    4b9c:	d1 e8                	shr    %eax
    4b9e:	8b 4b 18             	mov    0x18(%ebx),%ecx
    4ba1:	29 fa                	sub    %edi,%edx
    4ba3:	01 c8                	add    %ecx,%eax
    4ba5:	d1 ea                	shr    %edx
    4ba7:	8b 4b 1c             	mov    0x1c(%ebx),%ecx
    4baa:	01 ca                	add    %ecx,%edx
    4bac:	8b 8b 20 01 00 00    	mov    0x120(%ebx),%ecx
    4bb2:	85 c9                	test   %ecx,%ecx
    4bb4:	74 a0                	je     4b56 <paint_internal+0x96>
    4bb6:	89 54 24 0c          	mov    %edx,0xc(%esp)
    4bba:	89 44 24 08          	mov    %eax,0x8(%esp)
    4bbe:	89 4c 24 04          	mov    %ecx,0x4(%esp)
    4bc2:	89 34 24             	mov    %esi,(%esp)
    4bc5:	e8 36 1d 00 00       	call   6900 <drawctx_print>
    4bca:	eb 8a                	jmp    4b56 <paint_internal+0x96>
    4bcc:	8d 74 26 00          	lea    0x0(%esi,%eiz,1),%esi
    4bd0:	8b 53 14             	mov    0x14(%ebx),%edx
    4bd3:	89 45 a4             	mov    %eax,-0x5c(%ebp)
    4bd6:	89 14 24             	mov    %edx,(%esp)
    4bd9:	e8 22 18 00 00       	call   6400 <window_yield>
    4bde:	8b 45 a4             	mov    -0x5c(%ebp),%eax
    4be1:	e9 f8 fe ff ff       	jmp    4ade <paint_internal+0x1e>
    4be6:	8d 76 00             	lea    0x0(%esi),%esi
    4be9:	8d bc 27 00 00 00 00 	lea    0x0(%edi,%eiz,1),%edi

00004bf0 <label_repaint>:
    4bf0:	55                   	push   %ebp
    4bf1:	89 e5                	mov    %esp,%ebp
    4bf3:	53                   	push   %ebx
    4bf4:	53                   	push   %ebx
    4bf5:	8b 5d 08             	mov    0x8(%ebp),%ebx
    4bf8:	89 d8                	mov    %ebx,%eax
    4bfa:	e8 c1 fe ff ff       	call   4ac0 <paint_internal>
    4bff:	8b 43 14             	mov    0x14(%ebx),%eax
    4c02:	89 45 08             	mov    %eax,0x8(%ebp)
    4c05:	58                   	pop    %eax
    4c06:	5b                   	pop    %ebx
    4c07:	5d                   	pop    %ebp
    4c08:	e9 13 17 00 00       	jmp    6320 <window_damage>
    4c0d:	8d 76 00             	lea    0x0(%esi),%esi

00004c10 <label_rearrange>:
    4c10:	55                   	push   %ebp
    4c11:	89 e5                	mov    %esp,%ebp
    4c13:	53                   	push   %ebx
    4c14:	83 ec 24             	sub    $0x24,%esp
    4c17:	8b 45 18             	mov    0x18(%ebp),%eax
    4c1a:	8b 5d 08             	mov    0x8(%ebp),%ebx
    4c1d:	89 44 24 10          	mov    %eax,0x10(%esp)
    4c21:	8b 45 14             	mov    0x14(%ebp),%eax
    4c24:	89 44 24 0c          	mov    %eax,0xc(%esp)
    4c28:	8b 45 10             	mov    0x10(%ebp),%eax
    4c2b:	89 44 24 08          	mov    %eax,0x8(%esp)
    4c2f:	8b 45 0c             	mov    0xc(%ebp),%eax
    4c32:	89 44 24 04          	mov    %eax,0x4(%esp)
    4c36:	89 1c 24             	mov    %ebx,(%esp)
    4c39:	e8 92 03 00 00       	call   4fd0 <widget_modify>
    4c3e:	83 c4 24             	add    $0x24,%esp
    4c41:	89 d8                	mov    %ebx,%eax
    4c43:	5b                   	pop    %ebx
    4c44:	5d                   	pop    %ebp
    4c45:	e9 76 fe ff ff       	jmp    4ac0 <paint_internal>
    4c4a:	8d b6 00 00 00 00    	lea    0x0(%esi),%esi

00004c50 <label_destroy>:
    4c50:	55                   	push   %ebp
    4c51:	89 e5                	mov    %esp,%ebp
    4c53:	53                   	push   %ebx
    4c54:	83 ec 14             	sub    $0x14,%esp
    4c57:	8b 5d 08             	mov    0x8(%ebp),%ebx
    4c5a:	89 1c 24             	mov    %ebx,(%esp)
    4c5d:	e8 8e 03 00 00       	call   4ff0 <widget_deinit>
    4c62:	8b 83 20 01 00 00    	mov    0x120(%ebx),%eax
    4c68:	89 04 24             	mov    %eax,(%esp)
    4c6b:	e8 80 41 01 00       	call   18df0 <free>
    4c70:	8d 83 24 01 00 00    	lea    0x124(%ebx),%eax
    4c76:	89 04 24             	mov    %eax,(%esp)
    4c79:	e8 92 1d 00 00       	call   6a10 <font_release>
    4c7e:	89 5d 08             	mov    %ebx,0x8(%ebp)
    4c81:	83 c4 14             	add    $0x14,%esp
    4c84:	5b                   	pop    %ebx
    4c85:	5d                   	pop    %ebp
    4c86:	e9 65 41 01 00       	jmp    18df0 <free>
    4c8b:	90                   	nop
    4c8c:	8d 74 26 00          	lea    0x0(%esi,%eiz,1),%esi

00004c90 <deinit_label>:
    4c90:	55                   	push   %ebp
    4c91:	89 e5                	mov    %esp,%ebp
    4c93:	53                   	push   %ebx
    4c94:	83 ec 14             	sub    $0x14,%esp
    4c97:	8b 5d 08             	mov    0x8(%ebp),%ebx
    4c9a:	89 1c 24             	mov    %ebx,(%esp)
    4c9d:	e8 4e 03 00 00       	call   4ff0 <widget_deinit>
    4ca2:	8b 83 20 01 00 00    	mov    0x120(%ebx),%eax
    4ca8:	89 04 24             	mov    %eax,(%esp)
    4cab:	81 c3 24 01 00 00    	add    $0x124,%ebx
    4cb1:	e8 3a 41 01 00       	call   18df0 <free>
    4cb6:	89 5d 08             	mov    %ebx,0x8(%ebp)
    4cb9:	83 c4 14             	add    $0x14,%esp
    4cbc:	5b                   	pop    %ebx
    4cbd:	5d                   	pop    %ebp
    4cbe:	e9 4d 1d 00 00       	jmp    6a10 <font_release>
    4cc3:	8d b6 00 00 00 00    	lea    0x0(%esi),%esi
    4cc9:	8d bc 27 00 00 00 00 	lea    0x0(%edi,%eiz,1),%edi

00004cd0 <init_label>:
    4cd0:	55                   	push   %ebp
    4cd1:	89 e5                	mov    %esp,%ebp
    4cd3:	57                   	push   %edi
    4cd4:	56                   	push   %esi
    4cd5:	53                   	push   %ebx
    4cd6:	83 ec 2c             	sub    $0x2c,%esp
    4cd9:	8b 5d 08             	mov    0x8(%ebp),%ebx
    4cdc:	8b 45 0c             	mov    0xc(%ebp),%eax
    4cdf:	89 44 24 04          	mov    %eax,0x4(%esp)
    4ce3:	89 1c 24             	mov    %ebx,(%esp)
    4ce6:	8d 73 58             	lea    0x58(%ebx),%esi
    4ce9:	8b 7d 14             	mov    0x14(%ebp),%edi
    4cec:	e8 3f 02 00 00       	call   4f30 <widget_init>
    4cf1:	c7 43 40 50 4c 00 00 	movl   $0x4c50,0x40(%ebx)
    4cf8:	c7 43 44 20 4a 00 00 	movl   $0x4a20,0x44(%ebx)
    4cff:	c7 43 48 10 4c 00 00 	movl   $0x4c10,0x48(%ebx)
    4d06:	c7 43 4c f0 4b 00 00 	movl   $0x4bf0,0x4c(%ebx)
    4d0d:	c7 43 50 30 4a 00 00 	movl   $0x4a30,0x50(%ebx)
    4d14:	c7 43 54 40 4a 00 00 	movl   $0x4a40,0x54(%ebx)
    4d1b:	89 34 24             	mov    %esi,(%esp)
    4d1e:	e8 6d 20 00 00       	call   6d90 <source_init>
    4d23:	8b 55 18             	mov    0x18(%ebp),%edx
    4d26:	89 54 24 04          	mov    %edx,0x4(%esp)
    4d2a:	89 34 24             	mov    %esi,(%esp)
    4d2d:	8d b3 bc 00 00 00    	lea    0xbc(%ebx),%esi
    4d33:	e8 e8 20 00 00       	call   6e20 <source_set_color>
    4d38:	89 34 24             	mov    %esi,(%esp)
    4d3b:	e8 50 20 00 00       	call   6d90 <source_init>
    4d40:	8b 55 1c             	mov    0x1c(%ebp),%edx
    4d43:	89 54 24 04          	mov    %edx,0x4(%esp)
    4d47:	89 34 24             	mov    %esi,(%esp)
    4d4a:	e8 d1 20 00 00       	call   6e20 <source_set_color>
    4d4f:	8b 45 10             	mov    0x10(%ebp),%eax
    4d52:	85 c0                	test   %eax,%eax
    4d54:	0f 84 86 00 00 00    	je     4de0 <init_label+0x110>
    4d5a:	8b 45 10             	mov    0x10(%ebp),%eax
    4d5d:	89 04 24             	mov    %eax,(%esp)
    4d60:	e8 2b 9b 00 00       	call   e890 <str_dup>
    4d65:	89 83 20 01 00 00    	mov    %eax,0x120(%ebx)
    4d6b:	8d b3 24 01 00 00    	lea    0x124(%ebx),%esi
    4d71:	81 e7 ff ff 00 00    	and    $0xffff,%edi
    4d77:	89 7c 24 0c          	mov    %edi,0xc(%esp)
    4d7b:	89 34 24             	mov    %esi,(%esp)
    4d7e:	c7 44 24 08 00 00 00 	movl   $0x0,0x8(%esp)
    4d85:	00 
    4d86:	c7 44 24 04 00 00 00 	movl   $0x0,0x4(%esp)
    4d8d:	00 
    4d8e:	e8 bd 1b 00 00       	call   6950 <font_init>
    4d93:	8d 45 e4             	lea    -0x1c(%ebp),%eax
    4d96:	89 44 24 0c          	mov    %eax,0xc(%esp)
    4d9a:	8d 45 e0             	lea    -0x20(%ebp),%eax
    4d9d:	89 44 24 08          	mov    %eax,0x8(%esp)
    4da1:	8b 83 20 01 00 00    	mov    0x120(%ebx),%eax
    4da7:	89 34 24             	mov    %esi,(%esp)
    4daa:	89 44 24 04          	mov    %eax,0x4(%esp)
    4dae:	e8 cd 1c 00 00       	call   6a80 <font_get_box>
    4db3:	8b 55 e0             	mov    -0x20(%ebp),%edx
    4db6:	8b 45 e4             	mov    -0x1c(%ebp),%eax
    4db9:	83 c2 04             	add    $0x4,%edx
    4dbc:	83 c0 04             	add    $0x4,%eax
    4dbf:	89 53 28             	mov    %edx,0x28(%ebx)
    4dc2:	89 43 2c             	mov    %eax,0x2c(%ebx)
    4dc5:	89 43 34             	mov    %eax,0x34(%ebx)
    4dc8:	89 53 30             	mov    %edx,0x30(%ebx)
    4dcb:	c7 83 34 01 00 00 50 	movl   $0x4a50,0x134(%ebx)
    4dd2:	4a 00 00 
    4dd5:	83 c4 2c             	add    $0x2c,%esp
    4dd8:	b0 01                	mov    $0x1,%al
    4dda:	5b                   	pop    %ebx
    4ddb:	5e                   	pop    %esi
    4ddc:	5f                   	pop    %edi
    4ddd:	5d                   	pop    %ebp
    4dde:	c3                   	ret    
    4ddf:	90                   	nop
    4de0:	c7 83 20 01 00 00 00 	movl   $0x0,0x120(%ebx)
    4de7:	00 00 00 
    4dea:	e9 7c ff ff ff       	jmp    4d6b <init_label+0x9b>
    4def:	90                   	nop

00004df0 <create_label>:
    4df0:	55                   	push   %ebp
    4df1:	89 e5                	mov    %esp,%ebp
    4df3:	57                   	push   %edi
    4df4:	56                   	push   %esi
    4df5:	53                   	push   %ebx
    4df6:	83 ec 2c             	sub    $0x2c,%esp
    4df9:	8b 7d 10             	mov    0x10(%ebp),%edi
    4dfc:	c7 04 24 38 01 00 00 	movl   $0x138,(%esp)
    4e03:	e8 d8 3e 01 00       	call   18ce0 <malloc>
    4e08:	89 c3                	mov    %eax,%ebx
    4e0a:	85 c0                	test   %eax,%eax
    4e0c:	0f 84 f6 00 00 00    	je     4f08 <create_label+0x118>
    4e12:	8b 45 08             	mov    0x8(%ebp),%eax
    4e15:	8d 73 58             	lea    0x58(%ebx),%esi
    4e18:	89 44 24 04          	mov    %eax,0x4(%esp)
    4e1c:	89 1c 24             	mov    %ebx,(%esp)
    4e1f:	e8 0c 01 00 00       	call   4f30 <widget_init>
    4e24:	89 34 24             	mov    %esi,(%esp)
    4e27:	c7 43 40 50 4c 00 00 	movl   $0x4c50,0x40(%ebx)
    4e2e:	c7 43 44 20 4a 00 00 	movl   $0x4a20,0x44(%ebx)
    4e35:	c7 43 48 10 4c 00 00 	movl   $0x4c10,0x48(%ebx)
    4e3c:	c7 43 4c f0 4b 00 00 	movl   $0x4bf0,0x4c(%ebx)
    4e43:	c7 43 50 30 4a 00 00 	movl   $0x4a30,0x50(%ebx)
    4e4a:	c7 43 54 40 4a 00 00 	movl   $0x4a40,0x54(%ebx)
    4e51:	e8 3a 1f 00 00       	call   6d90 <source_init>
    4e56:	8b 55 14             	mov    0x14(%ebp),%edx
    4e59:	89 54 24 04          	mov    %edx,0x4(%esp)
    4e5d:	89 34 24             	mov    %esi,(%esp)
    4e60:	8d b3 bc 00 00 00    	lea    0xbc(%ebx),%esi
    4e66:	e8 b5 1f 00 00       	call   6e20 <source_set_color>
    4e6b:	89 34 24             	mov    %esi,(%esp)
    4e6e:	e8 1d 1f 00 00       	call   6d90 <source_init>
    4e73:	8b 55 18             	mov    0x18(%ebp),%edx
    4e76:	89 54 24 04          	mov    %edx,0x4(%esp)
    4e7a:	89 34 24             	mov    %esi,(%esp)
    4e7d:	e8 9e 1f 00 00       	call   6e20 <source_set_color>
    4e82:	8b 45 0c             	mov    0xc(%ebp),%eax
    4e85:	85 c0                	test   %eax,%eax
    4e87:	0f 84 8b 00 00 00    	je     4f18 <create_label+0x128>
    4e8d:	8b 45 0c             	mov    0xc(%ebp),%eax
    4e90:	89 04 24             	mov    %eax,(%esp)
    4e93:	e8 f8 99 00 00       	call   e890 <str_dup>
    4e98:	89 83 20 01 00 00    	mov    %eax,0x120(%ebx)
    4e9e:	8d b3 24 01 00 00    	lea    0x124(%ebx),%esi
    4ea4:	81 e7 ff ff 00 00    	and    $0xffff,%edi
    4eaa:	89 7c 24 0c          	mov    %edi,0xc(%esp)
    4eae:	c7 44 24 08 00 00 00 	movl   $0x0,0x8(%esp)
    4eb5:	00 
    4eb6:	c7 44 24 04 00 00 00 	movl   $0x0,0x4(%esp)
    4ebd:	00 
    4ebe:	89 34 24             	mov    %esi,(%esp)
    4ec1:	e8 8a 1a 00 00       	call   6950 <font_init>
    4ec6:	8d 45 e4             	lea    -0x1c(%ebp),%eax
    4ec9:	89 44 24 0c          	mov    %eax,0xc(%esp)
    4ecd:	8d 45 e0             	lea    -0x20(%ebp),%eax
    4ed0:	89 44 24 08          	mov    %eax,0x8(%esp)
    4ed4:	8b 83 20 01 00 00    	mov    0x120(%ebx),%eax
    4eda:	89 44 24 04          	mov    %eax,0x4(%esp)
    4ede:	89 34 24             	mov    %esi,(%esp)
    4ee1:	e8 9a 1b 00 00       	call   6a80 <font_get_box>
    4ee6:	8b 55 e0             	mov    -0x20(%ebp),%edx
    4ee9:	8b 45 e4             	mov    -0x1c(%ebp),%eax
    4eec:	83 c2 04             	add    $0x4,%edx
    4eef:	83 c0 04             	add    $0x4,%eax
    4ef2:	89 53 28             	mov    %edx,0x28(%ebx)
    4ef5:	89 43 2c             	mov    %eax,0x2c(%ebx)
    4ef8:	89 53 30             	mov    %edx,0x30(%ebx)
    4efb:	89 43 34             	mov    %eax,0x34(%ebx)
    4efe:	c7 83 34 01 00 00 50 	movl   $0x4a50,0x134(%ebx)
    4f05:	4a 00 00 
    4f08:	83 c4 2c             	add    $0x2c,%esp
    4f0b:	89 d8                	mov    %ebx,%eax
    4f0d:	5b                   	pop    %ebx
    4f0e:	5e                   	pop    %esi
    4f0f:	5f                   	pop    %edi
    4f10:	5d                   	pop    %ebp
    4f11:	c3                   	ret    
    4f12:	8d b6 00 00 00 00    	lea    0x0(%esi),%esi
    4f18:	c7 83 20 01 00 00 00 	movl   $0x0,0x120(%ebx)
    4f1f:	00 00 00 
    4f22:	e9 77 ff ff ff       	jmp    4e9e <create_label+0xae>
    4f27:	66 90                	xchg   %ax,%ax
    4f29:	66 90                	xchg   %ax,%ax
    4f2b:	66 90                	xchg   %ax,%ax
    4f2d:	66 90                	xchg   %ax,%ax
    4f2f:	90                   	nop

00004f30 <widget_init>:
    4f30:	55                   	push   %ebp
    4f31:	89 e5                	mov    %esp,%ebp
    4f33:	8b 45 08             	mov    0x8(%ebp),%eax
    4f36:	8b 55 0c             	mov    0xc(%ebp),%edx
    4f39:	85 d2                	test   %edx,%edx
    4f3b:	8d 48 0c             	lea    0xc(%eax),%ecx
    4f3e:	c7 00 00 00 00 00    	movl   $0x0,(%eax)
    4f44:	c7 40 04 00 00 00 00 	movl   $0x0,0x4(%eax)
    4f4b:	89 48 0c             	mov    %ecx,0xc(%eax)
    4f4e:	89 48 10             	mov    %ecx,0x10(%eax)
    4f51:	74 65                	je     4fb8 <widget_init+0x88>
    4f53:	8d 4a 0c             	lea    0xc(%edx),%ecx
    4f56:	89 50 08             	mov    %edx,0x8(%eax)
    4f59:	89 48 04             	mov    %ecx,0x4(%eax)
    4f5c:	8b 4a 0c             	mov    0xc(%edx),%ecx
    4f5f:	89 08                	mov    %ecx,(%eax)
    4f61:	8b 4a 0c             	mov    0xc(%edx),%ecx
    4f64:	89 42 0c             	mov    %eax,0xc(%edx)
    4f67:	8b 52 14             	mov    0x14(%edx),%edx
    4f6a:	89 41 04             	mov    %eax,0x4(%ecx)
    4f6d:	89 50 14             	mov    %edx,0x14(%eax)
    4f70:	c7 40 18 00 00 00 00 	movl   $0x0,0x18(%eax)
    4f77:	c7 40 1c 00 00 00 00 	movl   $0x0,0x1c(%eax)
    4f7e:	c7 40 20 00 00 00 00 	movl   $0x0,0x20(%eax)
    4f85:	c7 40 24 00 00 00 00 	movl   $0x0,0x24(%eax)
    4f8c:	c7 40 28 00 00 00 00 	movl   $0x0,0x28(%eax)
    4f93:	c7 40 2c 00 00 00 00 	movl   $0x0,0x2c(%eax)
    4f9a:	c7 40 30 00 00 00 00 	movl   $0x0,0x30(%eax)
    4fa1:	c7 40 34 00 00 00 00 	movl   $0x0,0x34(%eax)
    4fa8:	c7 40 38 ff ff ff ff 	movl   $0xffffffff,0x38(%eax)
    4faf:	c7 40 3c ff ff ff ff 	movl   $0xffffffff,0x3c(%eax)
    4fb6:	5d                   	pop    %ebp
    4fb7:	c3                   	ret    
    4fb8:	c7 40 08 00 00 00 00 	movl   $0x0,0x8(%eax)
    4fbf:	c7 40 14 00 00 00 00 	movl   $0x0,0x14(%eax)
    4fc6:	eb a8                	jmp    4f70 <widget_init+0x40>
    4fc8:	90                   	nop
    4fc9:	8d b4 26 00 00 00 00 	lea    0x0(%esi,%eiz,1),%esi

00004fd0 <widget_modify>:
    4fd0:	55                   	push   %ebp
    4fd1:	89 e5                	mov    %esp,%ebp
    4fd3:	8b 45 08             	mov    0x8(%ebp),%eax
    4fd6:	8b 55 0c             	mov    0xc(%ebp),%edx
    4fd9:	89 50 18             	mov    %edx,0x18(%eax)
    4fdc:	8b 55 10             	mov    0x10(%ebp),%edx
    4fdf:	89 50 1c             	mov    %edx,0x1c(%eax)
    4fe2:	8b 55 14             	mov    0x14(%ebp),%edx
    4fe5:	89 50 20             	mov    %edx,0x20(%eax)
    4fe8:	8b 55 18             	mov    0x18(%ebp),%edx
    4feb:	89 50 24             	mov    %edx,0x24(%eax)
    4fee:	5d                   	pop    %ebp
    4fef:	c3                   	ret    

00004ff0 <widget_deinit>:
    4ff0:	55                   	push   %ebp
    4ff1:	89 e5                	mov    %esp,%ebp
    4ff3:	8b 45 08             	mov    0x8(%ebp),%eax
    4ff6:	8b 50 08             	mov    0x8(%eax),%edx
    4ff9:	85 d2                	test   %edx,%edx
    4ffb:	74 21                	je     501e <widget_deinit+0x2e>
    4ffd:	8b 08                	mov    (%eax),%ecx
    4fff:	85 c9                	test   %ecx,%ecx
    5001:	74 0e                	je     5011 <widget_deinit+0x21>
    5003:	8b 50 04             	mov    0x4(%eax),%edx
    5006:	85 d2                	test   %edx,%edx
    5008:	74 07                	je     5011 <widget_deinit+0x21>
    500a:	89 0a                	mov    %ecx,(%edx)
    500c:	8b 08                	mov    (%eax),%ecx
    500e:	89 51 04             	mov    %edx,0x4(%ecx)
    5011:	c7 00 00 00 00 00    	movl   $0x0,(%eax)
    5017:	c7 40 04 00 00 00 00 	movl   $0x0,0x4(%eax)
    501e:	5d                   	pop    %ebp
    501f:	c3                   	ret    

00005020 <root_handle_keyboard_event>:
    5020:	55                   	push   %ebp
    5021:	89 e5                	mov    %esp,%ebp
    5023:	57                   	push   %edi
    5024:	56                   	push   %esi
    5025:	8b 55 08             	mov    0x8(%ebp),%edx
    5028:	8b 42 10             	mov    0x10(%edx),%eax
    502b:	83 c2 0c             	add    $0xc,%edx
    502e:	39 d0                	cmp    %edx,%eax
    5030:	74 1e                	je     5050 <root_handle_keyboard_event+0x30>
    5032:	8d 7d 0c             	lea    0xc(%ebp),%edi
    5035:	b9 06 00 00 00       	mov    $0x6,%ecx
    503a:	89 fe                	mov    %edi,%esi
    503c:	f3 a5                	rep movsl %ds:(%esi),%es:(%edi)
    503e:	89 45 08             	mov    %eax,0x8(%ebp)
    5041:	5e                   	pop    %esi
    5042:	8b 40 50             	mov    0x50(%eax),%eax
    5045:	5f                   	pop    %edi
    5046:	5d                   	pop    %ebp
    5047:	ff e0                	jmp    *%eax
    5049:	8d b4 26 00 00 00 00 	lea    0x0(%esi,%eiz,1),%esi
    5050:	5e                   	pop    %esi
    5051:	5f                   	pop    %edi
    5052:	5d                   	pop    %ebp
    5053:	c3                   	ret    
    5054:	8d b6 00 00 00 00    	lea    0x0(%esi),%esi
    505a:	8d bf 00 00 00 00    	lea    0x0(%edi),%edi

00005060 <fetch_input>:
    5060:	55                   	push   %ebp
    5061:	89 e5                	mov    %esp,%ebp
    5063:	57                   	push   %edi
    5064:	56                   	push   %esi
    5065:	53                   	push   %ebx
    5066:	83 ec 2c             	sub    $0x2c,%esp
    5069:	8b 5d 08             	mov    0x8(%ebp),%ebx
    506c:	8d 43 10             	lea    0x10(%ebx),%eax
    506f:	89 45 e4             	mov    %eax,-0x1c(%ebp)
    5072:	c7 04 24 24 00 00 00 	movl   $0x24,(%esp)
    5079:	e8 62 3c 01 00       	call   18ce0 <malloc>
    507e:	89 c7                	mov    %eax,%edi
    5080:	85 c0                	test   %eax,%eax
    5082:	74 44                	je     50c8 <fetch_input+0x68>
    5084:	89 44 24 04          	mov    %eax,0x4(%esp)
    5088:	8b 43 08             	mov    0x8(%ebx),%eax
    508b:	89 04 24             	mov    %eax,(%esp)
    508e:	e8 9d 16 01 00       	call   16730 <win_get_event>
    5093:	85 c0                	test   %eax,%eax
    5095:	75 29                	jne    50c0 <fetch_input+0x60>
    5097:	8b 45 e4             	mov    -0x1c(%ebp),%eax
    509a:	8b 77 08             	mov    0x8(%edi),%esi
    509d:	89 7c 24 04          	mov    %edi,0x4(%esp)
    50a1:	89 04 24             	mov    %eax,(%esp)
    50a4:	c7 07 00 00 00 00    	movl   $0x0,(%edi)
    50aa:	c7 47 04 00 00 00 00 	movl   $0x0,0x4(%edi)
    50b1:	e8 ba a3 01 00       	call   1f470 <prodcons_produce>
    50b6:	83 fe 08             	cmp    $0x8,%esi
    50b9:	75 b7                	jne    5072 <fetch_input+0x12>
    50bb:	eb 0b                	jmp    50c8 <fetch_input+0x68>
    50bd:	8d 76 00             	lea    0x0(%esi),%esi
    50c0:	89 3c 24             	mov    %edi,(%esp)
    50c3:	e8 28 3d 01 00       	call   18df0 <free>
    50c8:	83 c4 2c             	add    $0x2c,%esp
    50cb:	31 c0                	xor    %eax,%eax
    50cd:	5b                   	pop    %ebx
    50ce:	5e                   	pop    %esi
    50cf:	5f                   	pop    %edi
    50d0:	5d                   	pop    %ebp
    50d1:	c3                   	ret    
    50d2:	8d b4 26 00 00 00 00 	lea    0x0(%esi,%eiz,1),%esi
    50d9:	8d bc 27 00 00 00 00 	lea    0x0(%edi,%eiz,1),%edi

000050e0 <root_handle_position_event>:
    50e0:	55                   	push   %ebp
    50e1:	89 e5                	mov    %esp,%ebp
    50e3:	57                   	push   %edi
    50e4:	56                   	push   %esi
    50e5:	53                   	push   %ebx
    50e6:	83 ec 4c             	sub    $0x4c,%esp
    50e9:	8b 45 08             	mov    0x8(%ebp),%eax
    50ec:	8b 55 0c             	mov    0xc(%ebp),%edx
    50ef:	8b 5d 10             	mov    0x10(%ebp),%ebx
    50f2:	89 55 e4             	mov    %edx,-0x1c(%ebp)
    50f5:	8b 48 14             	mov    0x14(%eax),%ecx
    50f8:	89 5d e0             	mov    %ebx,-0x20(%ebp)
    50fb:	8b 55 14             	mov    0x14(%ebp),%edx
    50fe:	8b 75 18             	mov    0x18(%ebp),%esi
    5101:	8b 7d 1c             	mov    0x1c(%ebp),%edi
    5104:	80 79 01 00          	cmpb   $0x0,0x1(%ecx)
    5108:	0f 84 aa 00 00 00    	je     51b8 <root_handle_position_event+0xd8>
    510e:	8b 58 20             	mov    0x20(%eax),%ebx
    5111:	83 fa 01             	cmp    $0x1,%edx
    5114:	89 5d d4             	mov    %ebx,-0x2c(%ebp)
    5117:	8b 58 24             	mov    0x24(%eax),%ebx
    511a:	89 5d c8             	mov    %ebx,-0x38(%ebp)
    511d:	0f 84 c5 01 00 00    	je     52e8 <root_handle_position_event+0x208>
    5123:	83 fa 02             	cmp    $0x2,%edx
    5126:	0f 84 2c 02 00 00    	je     5358 <root_handle_position_event+0x278>
    512c:	c6 45 dc 00          	movb   $0x0,-0x24(%ebp)
    5130:	c6 45 d2 00          	movb   $0x0,-0x2e(%ebp)
    5134:	8b 5d d4             	mov    -0x2c(%ebp),%ebx
    5137:	83 fe 04             	cmp    $0x4,%esi
    513a:	0f 96 45 d1          	setbe  -0x2f(%ebp)
    513e:	83 eb 05             	sub    $0x5,%ebx
    5141:	39 f3                	cmp    %esi,%ebx
    5143:	89 5d d8             	mov    %ebx,-0x28(%ebp)
    5146:	8b 5d c8             	mov    -0x38(%ebp),%ebx
    5149:	0f 96 45 d0          	setbe  -0x30(%ebp)
    514d:	83 ff 04             	cmp    $0x4,%edi
    5150:	0f 96 45 d3          	setbe  -0x2d(%ebp)
    5154:	83 eb 05             	sub    $0x5,%ebx
    5157:	39 fb                	cmp    %edi,%ebx
    5159:	0f 96 45 c8          	setbe  -0x38(%ebp)
    515d:	83 fe 04             	cmp    $0x4,%esi
    5160:	76 09                	jbe    516b <root_handle_position_event+0x8b>
    5162:	39 75 d8             	cmp    %esi,-0x28(%ebp)
    5165:	0f 87 95 01 00 00    	ja     5300 <root_handle_position_event+0x220>
    516b:	c6 45 d8 00          	movb   $0x0,-0x28(%ebp)
    516f:	c6 45 d4 00          	movb   $0x0,-0x2c(%ebp)
    5173:	80 7d d3 00          	cmpb   $0x0,-0x2d(%ebp)
    5177:	0f 84 9b 00 00 00    	je     5218 <root_handle_position_event+0x138>
    517d:	80 7d d1 00          	cmpb   $0x0,-0x2f(%ebp)
    5181:	0f 84 91 00 00 00    	je     5218 <root_handle_position_event+0x138>
    5187:	80 7d dc 00          	cmpb   $0x0,-0x24(%ebp)
    518b:	0f 84 21 02 00 00    	je     53b2 <root_handle_position_event+0x2d2>
    5191:	80 7d d2 01          	cmpb   $0x1,-0x2e(%ebp)
    5195:	19 c0                	sbb    %eax,%eax
    5197:	83 e0 24             	and    $0x24,%eax
    519a:	83 c0 0f             	add    $0xf,%eax
    519d:	89 45 10             	mov    %eax,0x10(%ebp)
    51a0:	8b 45 e4             	mov    -0x1c(%ebp),%eax
    51a3:	89 45 0c             	mov    %eax,0xc(%ebp)
    51a6:	8b 41 0c             	mov    0xc(%ecx),%eax
    51a9:	89 45 08             	mov    %eax,0x8(%ebp)
    51ac:	83 c4 4c             	add    $0x4c,%esp
    51af:	5b                   	pop    %ebx
    51b0:	5e                   	pop    %esi
    51b1:	5f                   	pop    %edi
    51b2:	5d                   	pop    %ebp
    51b3:	e9 98 16 01 00       	jmp    16850 <win_grab>
    51b8:	8b 58 10             	mov    0x10(%eax),%ebx
    51bb:	83 c0 0c             	add    $0xc,%eax
    51be:	89 45 dc             	mov    %eax,-0x24(%ebp)
    51c1:	39 d8                	cmp    %ebx,%eax
    51c3:	74 48                	je     520d <root_handle_position_event+0x12d>
    51c5:	8d 76 00             	lea    0x0(%esi),%esi
    51c8:	8b 45 e4             	mov    -0x1c(%ebp),%eax
    51cb:	8b 4b 54             	mov    0x54(%ebx),%ecx
    51ce:	89 45 0c             	mov    %eax,0xc(%ebp)
    51d1:	8b 45 e0             	mov    -0x20(%ebp),%eax
    51d4:	89 45 10             	mov    %eax,0x10(%ebp)
    51d7:	8b 45 e4             	mov    -0x1c(%ebp),%eax
    51da:	89 44 24 04          	mov    %eax,0x4(%esp)
    51de:	8b 45 e0             	mov    -0x20(%ebp),%eax
    51e1:	89 54 24 0c          	mov    %edx,0xc(%esp)
    51e5:	89 1c 24             	mov    %ebx,(%esp)
    51e8:	89 55 cc             	mov    %edx,-0x34(%ebp)
    51eb:	89 44 24 08          	mov    %eax,0x8(%esp)
    51ef:	89 74 24 10          	mov    %esi,0x10(%esp)
    51f3:	89 7c 24 14          	mov    %edi,0x14(%esp)
    51f7:	89 55 14             	mov    %edx,0x14(%ebp)
    51fa:	89 75 18             	mov    %esi,0x18(%ebp)
    51fd:	89 7d 1c             	mov    %edi,0x1c(%ebp)
    5200:	ff d1                	call   *%ecx
    5202:	8b 5b 04             	mov    0x4(%ebx),%ebx
    5205:	8b 55 cc             	mov    -0x34(%ebp),%edx
    5208:	39 5d dc             	cmp    %ebx,-0x24(%ebp)
    520b:	75 bb                	jne    51c8 <root_handle_position_event+0xe8>
    520d:	83 c4 4c             	add    $0x4c,%esp
    5210:	5b                   	pop    %ebx
    5211:	5e                   	pop    %esi
    5212:	5f                   	pop    %edi
    5213:	5d                   	pop    %ebp
    5214:	c3                   	ret    
    5215:	8d 76 00             	lea    0x0(%esi),%esi
    5218:	80 7d c8 00          	cmpb   $0x0,-0x38(%ebp)
    521c:	75 3a                	jne    5258 <root_handle_position_event+0x178>
    521e:	80 7d d0 00          	cmpb   $0x0,-0x30(%ebp)
    5222:	74 0a                	je     522e <root_handle_position_event+0x14e>
    5224:	80 7d d3 00          	cmpb   $0x0,-0x2d(%ebp)
    5228:	0f 85 42 01 00 00    	jne    5370 <root_handle_position_event+0x290>
    522e:	80 7d dc 00          	cmpb   $0x0,-0x24(%ebp)
    5232:	74 3e                	je     5272 <root_handle_position_event+0x192>
    5234:	80 7d d3 00          	cmpb   $0x0,-0x2d(%ebp)
    5238:	0f 84 ad 01 00 00    	je     53eb <root_handle_position_event+0x30b>
    523e:	80 7d d2 01          	cmpb   $0x1,-0x2e(%ebp)
    5242:	19 c0                	sbb    %eax,%eax
    5244:	8b 55 e4             	mov    -0x1c(%ebp),%edx
    5247:	83 e0 18             	and    $0x18,%eax
    524a:	89 55 0c             	mov    %edx,0xc(%ebp)
    524d:	83 c0 0a             	add    $0xa,%eax
    5250:	89 45 10             	mov    %eax,0x10(%ebp)
    5253:	e9 4e ff ff ff       	jmp    51a6 <root_handle_position_event+0xc6>
    5258:	80 7d d1 00          	cmpb   $0x0,-0x2f(%ebp)
    525c:	0f 85 ce 00 00 00    	jne    5330 <root_handle_position_event+0x250>
    5262:	80 7d d0 00          	cmpb   $0x0,-0x30(%ebp)
    5266:	74 c6                	je     522e <root_handle_position_event+0x14e>
    5268:	80 7d dc 00          	cmpb   $0x0,-0x24(%ebp)
    526c:	0f 85 26 01 00 00    	jne    5398 <root_handle_position_event+0x2b8>
    5272:	80 7d d4 00          	cmpb   $0x0,-0x2c(%ebp)
    5276:	0f 85 4c 01 00 00    	jne    53c8 <root_handle_position_event+0x2e8>
    527c:	80 7d d8 00          	cmpb   $0x0,-0x28(%ebp)
    5280:	0f 85 5c 01 00 00    	jne    53e2 <root_handle_position_event+0x302>
    5286:	8b 58 10             	mov    0x10(%eax),%ebx
    5289:	83 c0 0c             	add    $0xc,%eax
    528c:	89 45 dc             	mov    %eax,-0x24(%ebp)
    528f:	39 d8                	cmp    %ebx,%eax
    5291:	0f 84 76 ff ff ff    	je     520d <root_handle_position_event+0x12d>
    5297:	90                   	nop
    5298:	8b 45 e4             	mov    -0x1c(%ebp),%eax
    529b:	8b 4b 54             	mov    0x54(%ebx),%ecx
    529e:	89 45 0c             	mov    %eax,0xc(%ebp)
    52a1:	8b 45 e0             	mov    -0x20(%ebp),%eax
    52a4:	89 45 10             	mov    %eax,0x10(%ebp)
    52a7:	8b 45 e4             	mov    -0x1c(%ebp),%eax
    52aa:	89 44 24 04          	mov    %eax,0x4(%esp)
    52ae:	8b 45 e0             	mov    -0x20(%ebp),%eax
    52b1:	89 54 24 0c          	mov    %edx,0xc(%esp)
    52b5:	89 1c 24             	mov    %ebx,(%esp)
    52b8:	89 55 cc             	mov    %edx,-0x34(%ebp)
    52bb:	89 44 24 08          	mov    %eax,0x8(%esp)
    52bf:	89 74 24 10          	mov    %esi,0x10(%esp)
    52c3:	89 7c 24 14          	mov    %edi,0x14(%esp)
    52c7:	89 55 14             	mov    %edx,0x14(%ebp)
    52ca:	89 75 18             	mov    %esi,0x18(%ebp)
    52cd:	89 7d 1c             	mov    %edi,0x1c(%ebp)
    52d0:	ff d1                	call   *%ecx
    52d2:	8b 5b 04             	mov    0x4(%ebx),%ebx
    52d5:	8b 55 cc             	mov    -0x34(%ebp),%edx
    52d8:	39 5d dc             	cmp    %ebx,-0x24(%ebp)
    52db:	75 bb                	jne    5298 <root_handle_position_event+0x1b8>
    52dd:	e9 2b ff ff ff       	jmp    520d <root_handle_position_event+0x12d>
    52e2:	8d b6 00 00 00 00    	lea    0x0(%esi),%esi
    52e8:	83 7d e0 01          	cmpl   $0x1,-0x20(%ebp)
    52ec:	0f 94 45 dc          	sete   -0x24(%ebp)
    52f0:	8a 5d dc             	mov    -0x24(%ebp),%bl
    52f3:	88 5d d2             	mov    %bl,-0x2e(%ebp)
    52f6:	e9 39 fe ff ff       	jmp    5134 <root_handle_position_event+0x54>
    52fb:	90                   	nop
    52fc:	8d 74 26 00          	lea    0x0(%esi,%eiz,1),%esi
    5300:	83 ff 04             	cmp    $0x4,%edi
    5303:	0f 86 62 fe ff ff    	jbe    516b <root_handle_position_event+0x8b>
    5309:	83 ff 18             	cmp    $0x18,%edi
    530c:	0f 87 59 fe ff ff    	ja     516b <root_handle_position_event+0x8b>
    5312:	8b 5d d4             	mov    -0x2c(%ebp),%ebx
    5315:	83 eb 19             	sub    $0x19,%ebx
    5318:	39 f3                	cmp    %esi,%ebx
    531a:	8a 5d d2             	mov    -0x2e(%ebp),%bl
    531d:	88 5d d8             	mov    %bl,-0x28(%ebp)
    5320:	0f 86 b4 00 00 00    	jbe    53da <root_handle_position_event+0x2fa>
    5326:	c6 45 d4 00          	movb   $0x0,-0x2c(%ebp)
    532a:	e9 44 fe ff ff       	jmp    5173 <root_handle_position_event+0x93>
    532f:	90                   	nop
    5330:	80 7d dc 00          	cmpb   $0x0,-0x24(%ebp)
    5334:	0f 84 38 ff ff ff    	je     5272 <root_handle_position_event+0x192>
    533a:	80 7d d2 01          	cmpb   $0x1,-0x2e(%ebp)
    533e:	19 c0                	sbb    %eax,%eax
    5340:	8b 55 e4             	mov    -0x1c(%ebp),%edx
    5343:	83 e0 24             	and    $0x24,%eax
    5346:	89 55 0c             	mov    %edx,0xc(%ebp)
    5349:	83 c0 0d             	add    $0xd,%eax
    534c:	89 45 10             	mov    %eax,0x10(%ebp)
    534f:	e9 52 fe ff ff       	jmp    51a6 <root_handle_position_event+0xc6>
    5354:	8d 74 26 00          	lea    0x0(%esi,%eiz,1),%esi
    5358:	83 7d e0 01          	cmpl   $0x1,-0x20(%ebp)
    535c:	0f 94 45 dc          	sete   -0x24(%ebp)
    5360:	c6 45 d2 00          	movb   $0x0,-0x2e(%ebp)
    5364:	e9 cb fd ff ff       	jmp    5134 <root_handle_position_event+0x54>
    5369:	8d b4 26 00 00 00 00 	lea    0x0(%esi,%eiz,1),%esi
    5370:	80 7d dc 00          	cmpb   $0x0,-0x24(%ebp)
    5374:	0f 84 f8 fe ff ff    	je     5272 <root_handle_position_event+0x192>
    537a:	80 7d d2 01          	cmpb   $0x1,-0x2e(%ebp)
    537e:	19 c0                	sbb    %eax,%eax
    5380:	83 e0 24             	and    $0x24,%eax
    5383:	83 c0 0e             	add    $0xe,%eax
    5386:	89 45 10             	mov    %eax,0x10(%ebp)
    5389:	8b 45 e4             	mov    -0x1c(%ebp),%eax
    538c:	89 45 0c             	mov    %eax,0xc(%ebp)
    538f:	e9 12 fe ff ff       	jmp    51a6 <root_handle_position_event+0xc6>
    5394:	8d 74 26 00          	lea    0x0(%esi,%eiz,1),%esi
    5398:	80 7d d2 01          	cmpb   $0x1,-0x2e(%ebp)
    539c:	19 c0                	sbb    %eax,%eax
    539e:	83 e0 24             	and    $0x24,%eax
    53a1:	83 c0 0c             	add    $0xc,%eax
    53a4:	89 45 10             	mov    %eax,0x10(%ebp)
    53a7:	8b 5d e4             	mov    -0x1c(%ebp),%ebx
    53aa:	89 5d 0c             	mov    %ebx,0xc(%ebp)
    53ad:	e9 f4 fd ff ff       	jmp    51a6 <root_handle_position_event+0xc6>
    53b2:	80 7d c8 00          	cmpb   $0x0,-0x38(%ebp)
    53b6:	0f 84 62 fe ff ff    	je     521e <root_handle_position_event+0x13e>
    53bc:	e9 b1 fe ff ff       	jmp    5272 <root_handle_position_event+0x192>
    53c1:	8d b4 26 00 00 00 00 	lea    0x0(%esi,%eiz,1),%esi
    53c8:	8b 41 0c             	mov    0xc(%ecx),%eax
    53cb:	89 45 08             	mov    %eax,0x8(%ebp)
    53ce:	83 c4 4c             	add    $0x4c,%esp
    53d1:	5b                   	pop    %ebx
    53d2:	5e                   	pop    %esi
    53d3:	5f                   	pop    %edi
    53d4:	5d                   	pop    %ebp
    53d5:	e9 16 16 01 00       	jmp    169f0 <win_close_request>
    53da:	88 5d d4             	mov    %bl,-0x2c(%ebp)
    53dd:	e9 91 fd ff ff       	jmp    5173 <root_handle_position_event+0x93>
    53e2:	c7 45 10 03 00 00 00 	movl   $0x3,0x10(%ebp)
    53e9:	eb bc                	jmp    53a7 <root_handle_position_event+0x2c7>
    53eb:	80 7d d1 00          	cmpb   $0x0,-0x2f(%ebp)
    53ef:	74 11                	je     5402 <root_handle_position_event+0x322>
    53f1:	80 7d d2 01          	cmpb   $0x1,-0x2e(%ebp)
    53f5:	19 c0                	sbb    %eax,%eax
    53f7:	83 e0 0c             	and    $0xc,%eax
    53fa:	83 c0 05             	add    $0x5,%eax
    53fd:	89 45 10             	mov    %eax,0x10(%ebp)
    5400:	eb a5                	jmp    53a7 <root_handle_position_event+0x2c7>
    5402:	80 7d c8 00          	cmpb   $0x0,-0x38(%ebp)
    5406:	75 24                	jne    542c <root_handle_position_event+0x34c>
    5408:	80 7d d0 00          	cmpb   $0x0,-0x30(%ebp)
    540c:	0f 84 60 fe ff ff    	je     5272 <root_handle_position_event+0x192>
    5412:	80 7d d2 01          	cmpb   $0x1,-0x2e(%ebp)
    5416:	19 c0                	sbb    %eax,%eax
    5418:	8b 55 e4             	mov    -0x1c(%ebp),%edx
    541b:	83 e0 0c             	and    $0xc,%eax
    541e:	89 55 0c             	mov    %edx,0xc(%ebp)
    5421:	83 c0 04             	add    $0x4,%eax
    5424:	89 45 10             	mov    %eax,0x10(%ebp)
    5427:	e9 7a fd ff ff       	jmp    51a6 <root_handle_position_event+0xc6>
    542c:	80 7d d2 01          	cmpb   $0x1,-0x2e(%ebp)
    5430:	19 c0                	sbb    %eax,%eax
    5432:	83 e0 18             	and    $0x18,%eax
    5435:	83 c0 08             	add    $0x8,%eax
    5438:	89 45 10             	mov    %eax,0x10(%ebp)
    543b:	8b 45 e4             	mov    -0x1c(%ebp),%eax
    543e:	89 45 0c             	mov    %eax,0xc(%ebp)
    5441:	e9 60 fd ff ff       	jmp    51a6 <root_handle_position_event+0xc6>
    5446:	8d 76 00             	lea    0x0(%esi),%esi
    5449:	8d bc 27 00 00 00 00 	lea    0x0(%edi,%eiz,1),%edi

00005450 <root_destroy>:
