
clockt:     file format elf32-i386


Disassembly of section .init:

00001094 <__entry>:
    1094:	66 8c d0             	mov    %ss,%ax
    1097:	8e d8                	mov    %eax,%ds
    1099:	8e c0                	mov    %eax,%es
    109b:	8e e0                	mov    %eax,%fs
    109d:	b8 01 00 00 00       	mov    $0x1,%eax
    10a2:	0f a2                	cpuid  
    10a4:	0f ba e2 0b          	bt     $0xb,%edx
    10a8:	73 0c                	jae    10b6 <__entry+0x22>
    10aa:	8d 05 d4 10 03 00    	lea    0x310d4,%eax
    10b0:	c7 00 e7 0a 02 00    	movl   $0x20ae7,(%eax)
    10b6:	6a 00                	push   $0x0
    10b8:	89 e5                	mov    %esp,%ebp
    10ba:	57                   	push   %edi
    10bb:	e8 80 53 00 00       	call   6440 <__main>

Disassembly of section .text:

000010c0 <my_label_destroy>:
    10c0:	55                   	push   %ebp
    10c1:	89 e5                	mov    %esp,%ebp
    10c3:	53                   	push   %ebx
    10c4:	83 ec 14             	sub    $0x14,%esp
    10c7:	8b 5d 08             	mov    0x8(%ebp),%ebx
    10ca:	89 1c 24             	mov    %ebx,(%esp)
    10cd:	e8 5e 12 00 00       	call   2330 <deinit_label>
    10d2:	89 5d 08             	mov    %ebx,0x8(%ebp)
    10d5:	83 c4 14             	add    $0x14,%esp
    10d8:	5b                   	pop    %ebx
    10d9:	5d                   	pop    %ebp
    10da:	e9 b1 51 01 00       	jmp    16290 <free>
    10df:	90                   	nop

000010e0 <main>:
    10e0:	55                   	push   %ebp
    10e1:	89 e5                	mov    %esp,%ebp
    10e3:	57                   	push   %edi
    10e4:	56                   	push   %esi
    10e5:	53                   	push   %ebx
    10e6:	83 e4 f0             	and    $0xfffffff0,%esp
    10e9:	83 c4 80             	add    $0xffffff80,%esp
    10ec:	8b 45 0c             	mov    0xc(%ebp),%eax
    10ef:	c7 44 24 14 d0 02 00 	movl   $0x2d0,0x14(%esp)
    10f6:	00 
    10f7:	c7 44 24 10 00 00 00 	movl   $0x0,0x10(%esp)
    10fe:	00 
    10ff:	c7 44 24 0c 09 31 02 	movl   $0x23109,0xc(%esp)
    1106:	00 
    1107:	c7 44 24 08 01 00 00 	movl   $0x1,0x8(%esp)
    110e:	00 
    110f:	c7 44 24 04 01 00 00 	movl   $0x1,0x4(%esp)
    1116:	00 
    1117:	8b 40 04             	mov    0x4(%eax),%eax
    111a:	89 04 24             	mov    %eax,(%esp)
    111d:	e8 2e 26 00 00       	call   3750 <window_open>
    1122:	89 c7                	mov    %eax,%edi
    1124:	85 c0                	test   %eax,%eax
    1126:	0f 84 59 03 00 00    	je     1485 <main+0x3a5>
    112c:	8d 44 24 34          	lea    0x34(%esp),%eax
    1130:	c7 44 24 04 00 00 00 	movl   $0x0,0x4(%esp)
    1137:	00 
    1138:	89 04 24             	mov    %eax,(%esp)
    113b:	8d 5c 24 5c          	lea    0x5c(%esp),%ebx
    113f:	e8 9c c2 01 00       	call   1d3e0 <gettimeofday>
    1144:	8b 44 24 34          	mov    0x34(%esp),%eax
    1148:	89 5c 24 04          	mov    %ebx,0x4(%esp)
    114c:	89 04 24             	mov    %eax,(%esp)
    114f:	e8 6c ce 01 00       	call   1dfc0 <time_utc2tm>
    1154:	8d 44 24 3e          	lea    0x3e(%esp),%eax
    1158:	89 5c 24 0c          	mov    %ebx,0xc(%esp)
    115c:	c7 44 24 08 ac 2e 02 	movl   $0x22eac,0x8(%esp)
    1163:	00 
    1164:	c7 44 24 04 1e 00 00 	movl   $0x1e,0x4(%esp)
    116b:	00 
    116c:	89 04 24             	mov    %eax,(%esp)
    116f:	e8 fc c5 01 00       	call   1d770 <strftime>
    1174:	c7 04 24 38 01 00 00 	movl   $0x138,(%esp)
    117b:	e8 00 50 01 00       	call   16180 <malloc>
    1180:	89 c6                	mov    %eax,%esi
    1182:	85 c0                	test   %eax,%eax
    1184:	74 45                	je     11cb <main+0xeb>
    1186:	8d 44 24 3e          	lea    0x3e(%esp),%eax
    118a:	c7 44 24 14 ff ff ff 	movl   $0xffffffff,0x14(%esp)
    1191:	ff 
    1192:	c7 44 24 10 70 19 19 	movl   $0xff191970,0x10(%esp)
    1199:	ff 
    119a:	c7 44 24 0c 10 00 00 	movl   $0x10,0xc(%esp)
    11a1:	00 
    11a2:	89 44 24 08          	mov    %eax,0x8(%esp)
    11a6:	c7 44 24 04 00 00 00 	movl   $0x0,0x4(%esp)
    11ad:	00 
    11ae:	89 34 24             	mov    %esi,(%esp)
    11b1:	e8 ba 11 00 00       	call   2370 <init_label>
    11b6:	c7 46 40 c0 10 00 00 	movl   $0x10c0,0x40(%esi)
    11bd:	84 c0                	test   %al,%al
    11bf:	75 0a                	jne    11cb <main+0xeb>
    11c1:	89 34 24             	mov    %esi,(%esp)
    11c4:	31 f6                	xor    %esi,%esi
    11c6:	e8 c5 50 01 00       	call   16290 <free>
    11cb:	89 3c 24             	mov    %edi,(%esp)
    11ce:	e8 2d 28 00 00       	call   3a00 <window_root>
    11d3:	c7 44 24 0c 70 19 19 	movl   $0xff191970,0xc(%esp)
    11da:	ff 
    11db:	c7 44 24 08 0a 00 00 	movl   $0xa,0x8(%esp)
    11e2:	00 
    11e3:	c7 44 24 04 01 00 00 	movl   $0x1,0x4(%esp)
    11ea:	00 
    11eb:	89 04 24             	mov    %eax,(%esp)
    11ee:	e8 fd 0d 00 00       	call   1ff0 <create_grid>
    11f3:	c7 44 24 14 02 00 00 	movl   $0x2,0x14(%esp)
    11fa:	00 
    11fb:	c7 44 24 10 01 00 00 	movl   $0x1,0x10(%esp)
    1202:	00 
    1203:	c7 44 24 0c 07 00 00 	movl   $0x7,0xc(%esp)
    120a:	00 
    120b:	c7 44 24 08 00 00 00 	movl   $0x0,0x8(%esp)
    1212:	00 
    1213:	89 74 24 04          	mov    %esi,0x4(%esp)
    1217:	89 04 24             	mov    %eax,(%esp)
    121a:	ff 50 68             	call   *0x68(%eax)
    121d:	c7 44 24 08 3c 00 00 	movl   $0x3c,0x8(%esp)
    1224:	00 
    1225:	c7 44 24 04 00 04 00 	movl   $0x400,0x4(%esp)
    122c:	00 
    122d:	89 3c 24             	mov    %edi,(%esp)
    1230:	e8 eb 26 00 00       	call   3920 <window_resize>
    1235:	89 3c 24             	mov    %edi,(%esp)
    1238:	e8 d3 27 00 00       	call   3a10 <window_exec>
    123d:	8d 76 00             	lea    0x0(%esi),%esi
    1240:	8d 44 24 34          	lea    0x34(%esp),%eax
    1244:	c7 44 24 04 00 00 00 	movl   $0x0,0x4(%esp)
    124b:	00 
    124c:	89 04 24             	mov    %eax,(%esp)
    124f:	e8 8c c1 01 00       	call   1d3e0 <gettimeofday>
    1254:	8b 44 24 34          	mov    0x34(%esp),%eax
    1258:	89 5c 24 04          	mov    %ebx,0x4(%esp)
    125c:	89 04 24             	mov    %eax,(%esp)
    125f:	e8 5c cd 01 00       	call   1dfc0 <time_utc2tm>
    1264:	8d 44 24 2c          	lea    0x2c(%esp),%eax
    1268:	89 5c 24 0c          	mov    %ebx,0xc(%esp)
    126c:	c7 44 24 08 b8 2e 02 	movl   $0x22eb8,0x8(%esp)
    1273:	00 
    1274:	c7 44 24 04 05 00 00 	movl   $0x5,0x4(%esp)
    127b:	00 
    127c:	89 04 24             	mov    %eax,(%esp)
    127f:	e8 ec c4 01 00       	call   1d770 <strftime>
    1284:	0f be 54 24 2c       	movsbl 0x2c(%esp),%edx
    1289:	8d 42 d0             	lea    -0x30(%edx),%eax
    128c:	83 f8 09             	cmp    $0x9,%eax
    128f:	0f 87 cb 01 00 00    	ja     1460 <main+0x380>
    1295:	8d 4c 24 2c          	lea    0x2c(%esp),%ecx
    1299:	31 c0                	xor    %eax,%eax
    129b:	90                   	nop
    129c:	8d 74 26 00          	lea    0x0(%esi,%eiz,1),%esi
    12a0:	41                   	inc    %ecx
    12a1:	8d 04 80             	lea    (%eax,%eax,4),%eax
    12a4:	8d 44 42 d0          	lea    -0x30(%edx,%eax,2),%eax
    12a8:	0f be 11             	movsbl (%ecx),%edx
    12ab:	8d 7a d0             	lea    -0x30(%edx),%edi
    12ae:	83 ff 09             	cmp    $0x9,%edi
    12b1:	76 ed                	jbe    12a0 <main+0x1c0>
    12b3:	83 f8 0b             	cmp    $0xb,%eax
    12b6:	77 28                	ja     12e0 <main+0x200>
    12b8:	ff 24 85 64 2f 02 00 	jmp    *0x22f64(,%eax,4)
    12bf:	8d 44 24 3e          	lea    0x3e(%esp),%eax
    12c3:	89 5c 24 0c          	mov    %ebx,0xc(%esp)
    12c7:	c7 44 24 08 47 2f 02 	movl   $0x22f47,0x8(%esp)
    12ce:	00 
    12cf:	c7 44 24 04 1e 00 00 	movl   $0x1e,0x4(%esp)
    12d6:	00 
    12d7:	89 04 24             	mov    %eax,(%esp)
    12da:	e8 91 c4 01 00       	call   1d770 <strftime>
    12df:	90                   	nop
    12e0:	8d 44 24 3e          	lea    0x3e(%esp),%eax
    12e4:	89 34 24             	mov    %esi,(%esp)
    12e7:	89 44 24 04          	mov    %eax,0x4(%esp)
    12eb:	ff 96 34 01 00 00    	call   *0x134(%esi)
    12f1:	e9 4a ff ff ff       	jmp    1240 <main+0x160>
    12f6:	8d 44 24 3e          	lea    0x3e(%esp),%eax
    12fa:	89 5c 24 0c          	mov    %ebx,0xc(%esp)
    12fe:	c7 44 24 08 39 2f 02 	movl   $0x22f39,0x8(%esp)
    1305:	00 
    1306:	c7 44 24 04 1e 00 00 	movl   $0x1e,0x4(%esp)
    130d:	00 
    130e:	89 04 24             	mov    %eax,(%esp)
    1311:	e8 5a c4 01 00       	call   1d770 <strftime>
    1316:	eb c8                	jmp    12e0 <main+0x200>
    1318:	8d 44 24 3e          	lea    0x3e(%esp),%eax
    131c:	89 5c 24 0c          	mov    %ebx,0xc(%esp)
    1320:	c7 44 24 08 2b 2f 02 	movl   $0x22f2b,0x8(%esp)
    1327:	00 
    1328:	c7 44 24 04 1e 00 00 	movl   $0x1e,0x4(%esp)
    132f:	00 
    1330:	89 04 24             	mov    %eax,(%esp)
    1333:	e8 38 c4 01 00       	call   1d770 <strftime>
    1338:	eb a6                	jmp    12e0 <main+0x200>
    133a:	8d 44 24 3e          	lea    0x3e(%esp),%eax
    133e:	89 5c 24 0c          	mov    %ebx,0xc(%esp)
    1342:	c7 44 24 08 1d 2f 02 	movl   $0x22f1d,0x8(%esp)
    1349:	00 
    134a:	c7 44 24 04 1e 00 00 	movl   $0x1e,0x4(%esp)
    1351:	00 
    1352:	89 04 24             	mov    %eax,(%esp)
    1355:	e8 16 c4 01 00       	call   1d770 <strftime>
    135a:	eb 84                	jmp    12e0 <main+0x200>
    135c:	8d 44 24 3e          	lea    0x3e(%esp),%eax
    1360:	89 5c 24 0c          	mov    %ebx,0xc(%esp)
    1364:	c7 44 24 08 0f 2f 02 	movl   $0x22f0f,0x8(%esp)
    136b:	00 
    136c:	c7 44 24 04 1e 00 00 	movl   $0x1e,0x4(%esp)
    1373:	00 
    1374:	89 04 24             	mov    %eax,(%esp)
    1377:	e8 f4 c3 01 00       	call   1d770 <strftime>
    137c:	e9 5f ff ff ff       	jmp    12e0 <main+0x200>
    1381:	8d 44 24 3e          	lea    0x3e(%esp),%eax
    1385:	89 5c 24 0c          	mov    %ebx,0xc(%esp)
    1389:	c7 44 24 08 01 2f 02 	movl   $0x22f01,0x8(%esp)
    1390:	00 
    1391:	c7 44 24 04 1e 00 00 	movl   $0x1e,0x4(%esp)
    1398:	00 
    1399:	89 04 24             	mov    %eax,(%esp)
    139c:	e8 cf c3 01 00       	call   1d770 <strftime>
    13a1:	e9 3a ff ff ff       	jmp    12e0 <main+0x200>
    13a6:	8d 44 24 3e          	lea    0x3e(%esp),%eax
    13aa:	89 5c 24 0c          	mov    %ebx,0xc(%esp)
    13ae:	c7 44 24 08 f3 2e 02 	movl   $0x22ef3,0x8(%esp)
    13b5:	00 
    13b6:	c7 44 24 04 1e 00 00 	movl   $0x1e,0x4(%esp)
    13bd:	00 
    13be:	89 04 24             	mov    %eax,(%esp)
    13c1:	e8 aa c3 01 00       	call   1d770 <strftime>
    13c6:	e9 15 ff ff ff       	jmp    12e0 <main+0x200>
    13cb:	8d 44 24 3e          	lea    0x3e(%esp),%eax
    13cf:	89 5c 24 0c          	mov    %ebx,0xc(%esp)
    13d3:	c7 44 24 08 e5 2e 02 	movl   $0x22ee5,0x8(%esp)
    13da:	00 
    13db:	c7 44 24 04 1e 00 00 	movl   $0x1e,0x4(%esp)
    13e2:	00 
    13e3:	89 04 24             	mov    %eax,(%esp)
    13e6:	e8 85 c3 01 00       	call   1d770 <strftime>
    13eb:	e9 f0 fe ff ff       	jmp    12e0 <main+0x200>
    13f0:	8d 44 24 3e          	lea    0x3e(%esp),%eax
    13f4:	89 5c 24 0c          	mov    %ebx,0xc(%esp)
    13f8:	c7 44 24 08 55 2f 02 	movl   $0x22f55,0x8(%esp)
    13ff:	00 
    1400:	c7 44 24 04 1e 00 00 	movl   $0x1e,0x4(%esp)
    1407:	00 
    1408:	89 04 24             	mov    %eax,(%esp)
    140b:	e8 60 c3 01 00       	call   1d770 <strftime>
    1410:	e9 cb fe ff ff       	jmp    12e0 <main+0x200>
    1415:	8d 44 24 3e          	lea    0x3e(%esp),%eax
    1419:	89 5c 24 0c          	mov    %ebx,0xc(%esp)
    141d:	c7 44 24 08 d7 2e 02 	movl   $0x22ed7,0x8(%esp)
    1424:	00 
    1425:	c7 44 24 04 1e 00 00 	movl   $0x1e,0x4(%esp)
    142c:	00 
    142d:	89 04 24             	mov    %eax,(%esp)
    1430:	e8 3b c3 01 00       	call   1d770 <strftime>
    1435:	e9 a6 fe ff ff       	jmp    12e0 <main+0x200>
    143a:	8d 44 24 3e          	lea    0x3e(%esp),%eax
    143e:	89 5c 24 0c          	mov    %ebx,0xc(%esp)
    1442:	c7 44 24 08 c9 2e 02 	movl   $0x22ec9,0x8(%esp)
    1449:	00 
    144a:	c7 44 24 04 1e 00 00 	movl   $0x1e,0x4(%esp)
    1451:	00 
    1452:	89 04 24             	mov    %eax,(%esp)
    1455:	e8 16 c3 01 00       	call   1d770 <strftime>
    145a:	e9 81 fe ff ff       	jmp    12e0 <main+0x200>
    145f:	90                   	nop
    1460:	8d 44 24 3e          	lea    0x3e(%esp),%eax
    1464:	89 5c 24 0c          	mov    %ebx,0xc(%esp)
    1468:	c7 44 24 08 bb 2e 02 	movl   $0x22ebb,0x8(%esp)
    146f:	00 
    1470:	c7 44 24 04 1e 00 00 	movl   $0x1e,0x4(%esp)
    1477:	00 
    1478:	89 04 24             	mov    %eax,(%esp)
    147b:	e8 f0 c2 01 00       	call   1d770 <strftime>
    1480:	e9 5b fe ff ff       	jmp    12e0 <main+0x200>
    1485:	c7 04 24 92 2e 02 00 	movl   $0x22e92,(%esp)
    148c:	e8 af fc 00 00       	call   11140 <printf>
    1491:	8d 65 f4             	lea    -0xc(%ebp),%esp
    1494:	b8 01 00 00 00       	mov    $0x1,%eax
    1499:	5b                   	pop    %ebx
    149a:	5e                   	pop    %esi
    149b:	5f                   	pop    %edi
    149c:	5d                   	pop    %ebp
    149d:	c3                   	ret    
    149e:	66 90                	xchg   %ax,%ax

000014a0 <grid_reconfigure>:
    14a0:	55                   	push   %ebp
    14a1:	89 e5                	mov    %esp,%ebp
    14a3:	5d                   	pop    %ebp
    14a4:	c3                   	ret    
    14a5:	8d 74 26 00          	lea    0x0(%esi,%eiz,1),%esi
    14a9:	8d bc 27 00 00 00 00 	lea    0x0(%edi,%eiz,1),%edi

000014b0 <grid_handle_keyboard_event>:
    14b0:	55                   	push   %ebp
    14b1:	89 e5                	mov    %esp,%ebp
    14b3:	5d                   	pop    %ebp
    14b4:	c3                   	ret    
    14b5:	8d 74 26 00          	lea    0x0(%esi,%eiz,1),%esi
    14b9:	8d bc 27 00 00 00 00 	lea    0x0(%edi,%eiz,1),%edi

000014c0 <grid_handle_position_event>:
    14c0:	55                   	push   %ebp
    14c1:	89 e5                	mov    %esp,%ebp
    14c3:	57                   	push   %edi
    14c4:	56                   	push   %esi
    14c5:	53                   	push   %ebx
    14c6:	83 ec 2c             	sub    $0x2c,%esp
    14c9:	8b 45 08             	mov    0x8(%ebp),%eax
    14cc:	8b 55 1c             	mov    0x1c(%ebp),%edx
    14cf:	89 45 dc             	mov    %eax,-0x24(%ebp)
    14d2:	8b 75 18             	mov    0x18(%ebp),%esi
    14d5:	8b 40 5c             	mov    0x5c(%eax),%eax
    14d8:	89 55 d8             	mov    %edx,-0x28(%ebp)
    14db:	89 75 e0             	mov    %esi,-0x20(%ebp)
    14de:	89 45 cc             	mov    %eax,-0x34(%ebp)
    14e1:	85 c0                	test   %eax,%eax
    14e3:	0f 84 91 00 00 00    	je     157a <grid_handle_position_event+0xba>
    14e9:	8b 55 dc             	mov    -0x24(%ebp),%edx
    14ec:	8d 04 40             	lea    (%eax,%eax,2),%eax
    14ef:	c1 e0 02             	shl    $0x2,%eax
    14f2:	c7 45 d0 00 00 00 00 	movl   $0x0,-0x30(%ebp)
    14f9:	8b 5a 60             	mov    0x60(%edx),%ebx
    14fc:	89 45 e4             	mov    %eax,-0x1c(%ebp)
    14ff:	c7 45 d4 00 00 00 00 	movl   $0x0,-0x2c(%ebp)
    1506:	66 90                	xchg   %ax,%ax
    1508:	85 db                	test   %ebx,%ebx
    150a:	74 56                	je     1562 <grid_handle_position_event+0xa2>
    150c:	8b 55 cc             	mov    -0x34(%ebp),%edx
    150f:	39 55 d4             	cmp    %edx,-0x2c(%ebp)
    1512:	73 4e                	jae    1562 <grid_handle_position_event+0xa2>
    1514:	8b 4d d0             	mov    -0x30(%ebp),%ecx
    1517:	31 c0                	xor    %eax,%eax
    1519:	8d b4 26 00 00 00 00 	lea    0x0(%esi,%eiz,1),%esi
    1520:	39 d8                	cmp    %ebx,%eax
    1522:	73 34                	jae    1558 <grid_handle_position_event+0x98>
    1524:	8b 75 dc             	mov    -0x24(%ebp),%esi
    1527:	8b 56 64             	mov    0x64(%esi),%edx
    152a:	01 ca                	add    %ecx,%edx
    152c:	74 2a                	je     1558 <grid_handle_position_event+0x98>
    152e:	8b 12                	mov    (%edx),%edx
    1530:	85 d2                	test   %edx,%edx
    1532:	74 24                	je     1558 <grid_handle_position_event+0x98>
    1534:	8b 72 18             	mov    0x18(%edx),%esi
    1537:	39 75 e0             	cmp    %esi,-0x20(%ebp)
    153a:	72 1c                	jb     1558 <grid_handle_position_event+0x98>
    153c:	8b 7a 1c             	mov    0x1c(%edx),%edi
    153f:	39 7d d8             	cmp    %edi,-0x28(%ebp)
    1542:	72 14                	jb     1558 <grid_handle_position_event+0x98>
    1544:	03 72 20             	add    0x20(%edx),%esi
    1547:	39 75 e0             	cmp    %esi,-0x20(%ebp)
    154a:	73 0c                	jae    1558 <grid_handle_position_event+0x98>
    154c:	8b 72 24             	mov    0x24(%edx),%esi
    154f:	01 f7                	add    %esi,%edi
    1551:	39 7d d8             	cmp    %edi,-0x28(%ebp)
    1554:	72 2c                	jb     1582 <grid_handle_position_event+0xc2>
    1556:	66 90                	xchg   %ax,%ax
    1558:	40                   	inc    %eax
    1559:	8b 75 e4             	mov    -0x1c(%ebp),%esi
    155c:	01 f1                	add    %esi,%ecx
    155e:	39 d8                	cmp    %ebx,%eax
    1560:	75 be                	jne    1520 <grid_handle_position_event+0x60>
    1562:	8b 45 d4             	mov    -0x2c(%ebp),%eax
    1565:	8b 55 d0             	mov    -0x30(%ebp),%edx
    1568:	40                   	inc    %eax
    1569:	83 c2 0c             	add    $0xc,%edx
    156c:	89 45 d4             	mov    %eax,-0x2c(%ebp)
    156f:	8b 45 cc             	mov    -0x34(%ebp),%eax
    1572:	89 55 d0             	mov    %edx,-0x30(%ebp)
    1575:	39 45 d4             	cmp    %eax,-0x2c(%ebp)
    1578:	75 8e                	jne    1508 <grid_handle_position_event+0x48>
    157a:	83 c4 2c             	add    $0x2c,%esp
    157d:	5b                   	pop    %ebx
    157e:	5e                   	pop    %esi
    157f:	5f                   	pop    %edi
    1580:	5d                   	pop    %ebp
    1581:	c3                   	ret    
    1582:	89 55 08             	mov    %edx,0x8(%ebp)
    1585:	8b 42 54             	mov    0x54(%edx),%eax
    1588:	83 c4 2c             	add    $0x2c,%esp
    158b:	5b                   	pop    %ebx
    158c:	5e                   	pop    %esi
    158d:	5f                   	pop    %edi
    158e:	5d                   	pop    %ebp
    158f:	ff e0                	jmp    *%eax
    1591:	eb 0d                	jmp    15a0 <grid_repaint>
    1593:	90                   	nop
    1594:	90                   	nop
    1595:	90                   	nop
    1596:	90                   	nop
    1597:	90                   	nop
    1598:	90                   	nop
    1599:	90                   	nop
    159a:	90                   	nop
    159b:	90                   	nop
    159c:	90                   	nop
    159d:	90                   	nop
    159e:	90                   	nop
    159f:	90                   	nop

000015a0 <grid_repaint>:
    15a0:	55                   	push   %ebp
    15a1:	89 e5                	mov    %esp,%ebp
    15a3:	57                   	push   %edi
    15a4:	56                   	push   %esi
    15a5:	53                   	push   %ebx
    15a6:	83 ec 2c             	sub    $0x2c,%esp
    15a9:	8b 7d 08             	mov    0x8(%ebp),%edi
    15ac:	8b 47 14             	mov    0x14(%edi),%eax
    15af:	89 04 24             	mov    %eax,(%esp)
    15b2:	e8 b9 24 00 00       	call   3a70 <window_claim>
    15b7:	89 45 e4             	mov    %eax,-0x1c(%ebp)
    15ba:	85 c0                	test   %eax,%eax
    15bc:	74 56                	je     1614 <grid_repaint+0x74>
    15be:	8b 77 1c             	mov    0x1c(%edi),%esi
    15c1:	8b 5f 24             	mov    0x24(%edi),%ebx
    15c4:	01 f3                	add    %esi,%ebx
    15c6:	39 de                	cmp    %ebx,%esi
    15c8:	73 4a                	jae    1614 <grid_repaint+0x74>
    15ca:	8b 47 18             	mov    0x18(%edi),%eax
    15cd:	8b 4f 20             	mov    0x20(%edi),%ecx
    15d0:	01 c1                	add    %eax,%ecx
    15d2:	8d b6 00 00 00 00    	lea    0x0(%esi),%esi
    15d8:	39 c1                	cmp    %eax,%ecx
    15da:	76 33                	jbe    160f <grid_repaint+0x6f>
    15dc:	89 c3                	mov    %eax,%ebx
    15de:	66 90                	xchg   %ax,%ax
    15e0:	8b 47 58             	mov    0x58(%edi),%eax
    15e3:	89 5c 24 04          	mov    %ebx,0x4(%esp)
    15e7:	89 44 24 0c          	mov    %eax,0xc(%esp)
    15eb:	8b 45 e4             	mov    -0x1c(%ebp),%eax
    15ee:	89 04 24             	mov    %eax,(%esp)
    15f1:	89 74 24 08          	mov    %esi,0x8(%esp)
    15f5:	e8 d6 34 00 00       	call   4ad0 <surface_put_pixel>
    15fa:	8b 47 18             	mov    0x18(%edi),%eax
    15fd:	8b 4f 20             	mov    0x20(%edi),%ecx
    1600:	43                   	inc    %ebx
    1601:	01 c1                	add    %eax,%ecx
    1603:	39 cb                	cmp    %ecx,%ebx
    1605:	72 d9                	jb     15e0 <grid_repaint+0x40>
    1607:	8b 5f 24             	mov    0x24(%edi),%ebx
    160a:	8b 57 1c             	mov    0x1c(%edi),%edx
    160d:	01 d3                	add    %edx,%ebx
    160f:	46                   	inc    %esi
    1610:	39 de                	cmp    %ebx,%esi
    1612:	72 c4                	jb     15d8 <grid_repaint+0x38>
    1614:	8b 47 14             	mov    0x14(%edi),%eax
    1617:	8d 77 0c             	lea    0xc(%edi),%esi
    161a:	89 04 24             	mov    %eax,(%esp)
    161d:	e8 7e 24 00 00       	call   3aa0 <window_yield>
    1622:	8b 5f 10             	mov    0x10(%edi),%ebx
    1625:	39 f3                	cmp    %esi,%ebx
    1627:	74 14                	je     163d <grid_repaint+0x9d>
    1629:	8d b4 26 00 00 00 00 	lea    0x0(%esi,%eiz,1),%esi
    1630:	89 1c 24             	mov    %ebx,(%esp)
    1633:	ff 53 4c             	call   *0x4c(%ebx)
    1636:	8b 5b 04             	mov    0x4(%ebx),%ebx
    1639:	39 f3                	cmp    %esi,%ebx
    163b:	75 f3                	jne    1630 <grid_repaint+0x90>
    163d:	8b 47 14             	mov    0x14(%edi),%eax
    1640:	89 45 08             	mov    %eax,0x8(%ebp)
    1643:	83 c4 2c             	add    $0x2c,%esp
    1646:	5b                   	pop    %ebx
    1647:	5e                   	pop    %esi
    1648:	5f                   	pop    %edi
    1649:	5d                   	pop    %ebp
    164a:	e9 71 23 00 00       	jmp    39c0 <window_damage>
    164f:	90                   	nop

00001650 <grid_add>:
    1650:	55                   	push   %ebp
    1651:	89 e5                	mov    %esp,%ebp
    1653:	57                   	push   %edi
    1654:	56                   	push   %esi
    1655:	53                   	push   %ebx
    1656:	83 ec 1c             	sub    $0x1c,%esp
    1659:	8b 45 1c             	mov    0x1c(%ebp),%eax
    165c:	8b 5d 08             	mov    0x8(%ebp),%ebx
    165f:	8b 75 10             	mov    0x10(%ebp),%esi
    1662:	85 c0                	test   %eax,%eax
    1664:	0f 84 1e 01 00 00    	je     1788 <grid_add+0x138>
    166a:	8b 7d 18             	mov    0x18(%ebp),%edi
    166d:	85 ff                	test   %edi,%edi
    166f:	0f 84 13 01 00 00    	je     1788 <grid_add+0x138>
    1675:	8b 43 5c             	mov    0x5c(%ebx),%eax
    1678:	8b 7d 18             	mov    0x18(%ebp),%edi
    167b:	89 45 ec             	mov    %eax,-0x14(%ebp)
    167e:	01 f7                	add    %esi,%edi
    1680:	31 c0                	xor    %eax,%eax
    1682:	3b 7d ec             	cmp    -0x14(%ebp),%edi
    1685:	0f 87 ef 00 00 00    	ja     177a <grid_add+0x12a>
    168b:	8b 55 1c             	mov    0x1c(%ebp),%edx
    168e:	8b 4d 14             	mov    0x14(%ebp),%ecx
    1691:	01 ca                	add    %ecx,%edx
    1693:	89 55 e4             	mov    %edx,-0x1c(%ebp)
    1696:	8b 53 60             	mov    0x60(%ebx),%edx
    1699:	89 55 e0             	mov    %edx,-0x20(%ebp)
    169c:	39 55 e4             	cmp    %edx,-0x1c(%ebp)
    169f:	0f 87 d5 00 00 00    	ja     177a <grid_add+0x12a>
    16a5:	3b 75 ec             	cmp    -0x14(%ebp),%esi
    16a8:	0f 83 cc 00 00 00    	jae    177a <grid_add+0x12a>
    16ae:	39 55 14             	cmp    %edx,0x14(%ebp)
    16b1:	0f 83 c3 00 00 00    	jae    177a <grid_add+0x12a>
    16b7:	8b 4d ec             	mov    -0x14(%ebp),%ecx
    16ba:	8b 55 14             	mov    0x14(%ebp),%edx
    16bd:	0f af d1             	imul   %ecx,%edx
    16c0:	01 f2                	add    %esi,%edx
    16c2:	8d 0c 52             	lea    (%edx,%edx,2),%ecx
    16c5:	8b 53 64             	mov    0x64(%ebx),%edx
    16c8:	8d 0c 8a             	lea    (%edx,%ecx,4),%ecx
    16cb:	85 c9                	test   %ecx,%ecx
    16cd:	0f 84 a7 00 00 00    	je     177a <grid_add+0x12a>
    16d3:	8b 11                	mov    (%ecx),%edx
    16d5:	85 d2                	test   %edx,%edx
    16d7:	0f 84 0d 01 00 00    	je     17ea <grid_add+0x19a>
    16dd:	8b 45 0c             	mov    0xc(%ebp),%eax
    16e0:	8b 55 0c             	mov    0xc(%ebp),%edx
    16e3:	89 58 08             	mov    %ebx,0x8(%eax)
    16e6:	8d 43 0c             	lea    0xc(%ebx),%eax
    16e9:	89 42 04             	mov    %eax,0x4(%edx)
    16ec:	8b 43 0c             	mov    0xc(%ebx),%eax
    16ef:	89 02                	mov    %eax,(%edx)
    16f1:	8b 43 0c             	mov    0xc(%ebx),%eax
    16f4:	89 53 0c             	mov    %edx,0xc(%ebx)
    16f7:	89 50 04             	mov    %edx,0x4(%eax)
    16fa:	8b 43 14             	mov    0x14(%ebx),%eax
    16fd:	8b 5d e4             	mov    -0x1c(%ebp),%ebx
    1700:	89 42 14             	mov    %eax,0x14(%edx)
    1703:	39 5d 14             	cmp    %ebx,0x14(%ebp)
    1706:	73 70                	jae    1778 <grid_add+0x128>
    1708:	8b 55 ec             	mov    -0x14(%ebp),%edx
    170b:	8b 5d 14             	mov    0x14(%ebp),%ebx
    170e:	89 4d e8             	mov    %ecx,-0x18(%ebp)
    1711:	89 5d f0             	mov    %ebx,-0x10(%ebp)
    1714:	8d 04 52             	lea    (%edx,%edx,2),%eax
    1717:	c1 e0 02             	shl    $0x2,%eax
    171a:	89 45 dc             	mov    %eax,-0x24(%ebp)
    171d:	8d 76 00             	lea    0x0(%esi),%esi
    1720:	39 fe                	cmp    %edi,%esi
    1722:	73 3a                	jae    175e <grid_add+0x10e>
    1724:	8b 5d f0             	mov    -0x10(%ebp),%ebx
    1727:	8b 45 f0             	mov    -0x10(%ebp),%eax
    172a:	39 5d 14             	cmp    %ebx,0x14(%ebp)
    172d:	0f 94 c3             	sete   %bl
    1730:	39 45 e0             	cmp    %eax,-0x20(%ebp)
    1733:	77 63                	ja     1798 <grid_add+0x148>
    1735:	8b 55 1c             	mov    0x1c(%ebp),%edx
    1738:	89 f0                	mov    %esi,%eax
    173a:	89 55 d8             	mov    %edx,-0x28(%ebp)
    173d:	8d 76 00             	lea    0x0(%esi),%esi
    1740:	39 c6                	cmp    %eax,%esi
    1742:	75 15                	jne    1759 <grid_add+0x109>
    1744:	84 db                	test   %bl,%bl
    1746:	74 11                	je     1759 <grid_add+0x109>
    1748:	8b 55 0c             	mov    0xc(%ebp),%edx
    174b:	89 11                	mov    %edx,(%ecx)
    174d:	8b 55 18             	mov    0x18(%ebp),%edx
    1750:	89 51 04             	mov    %edx,0x4(%ecx)
    1753:	8b 55 d8             	mov    -0x28(%ebp),%edx
    1756:	89 51 08             	mov    %edx,0x8(%ecx)
    1759:	40                   	inc    %eax
    175a:	39 f8                	cmp    %edi,%eax
    175c:	75 e2                	jne    1740 <grid_add+0xf0>
    175e:	8b 5d f0             	mov    -0x10(%ebp),%ebx
    1761:	8b 55 e8             	mov    -0x18(%ebp),%edx
    1764:	8b 45 dc             	mov    -0x24(%ebp),%eax
    1767:	43                   	inc    %ebx
    1768:	01 c2                	add    %eax,%edx
    176a:	89 5d f0             	mov    %ebx,-0x10(%ebp)
    176d:	89 55 e8             	mov    %edx,-0x18(%ebp)
    1770:	8b 55 e4             	mov    -0x1c(%ebp),%edx
    1773:	39 55 f0             	cmp    %edx,-0x10(%ebp)
    1776:	75 a8                	jne    1720 <grid_add+0xd0>
    1778:	b0 01                	mov    $0x1,%al
    177a:	83 c4 1c             	add    $0x1c,%esp
    177d:	5b                   	pop    %ebx
    177e:	5e                   	pop    %esi
    177f:	5f                   	pop    %edi
    1780:	5d                   	pop    %ebp
    1781:	c3                   	ret    
    1782:	8d b6 00 00 00 00    	lea    0x0(%esi),%esi
    1788:	83 c4 1c             	add    $0x1c,%esp
    178b:	31 c0                	xor    %eax,%eax
    178d:	5b                   	pop    %ebx
    178e:	5e                   	pop    %esi
    178f:	5f                   	pop    %edi
    1790:	5d                   	pop    %ebp
    1791:	c3                   	ret    
    1792:	8d b6 00 00 00 00    	lea    0x0(%esi),%esi
    1798:	8b 55 e8             	mov    -0x18(%ebp),%edx
    179b:	89 f0                	mov    %esi,%eax
    179d:	88 5d d8             	mov    %bl,-0x28(%ebp)
    17a0:	eb 25                	jmp    17c7 <grid_add+0x177>
    17a2:	8d b6 00 00 00 00    	lea    0x0(%esi),%esi
    17a8:	80 7d d8 00          	cmpb   $0x0,-0x28(%ebp)
    17ac:	74 1d                	je     17cb <grid_add+0x17b>
    17ae:	8b 5d 0c             	mov    0xc(%ebp),%ebx
    17b1:	89 19                	mov    %ebx,(%ecx)
    17b3:	8b 5d 18             	mov    0x18(%ebp),%ebx
    17b6:	89 59 04             	mov    %ebx,0x4(%ecx)
    17b9:	8b 5d 1c             	mov    0x1c(%ebp),%ebx
    17bc:	89 59 08             	mov    %ebx,0x8(%ecx)
    17bf:	40                   	inc    %eax
    17c0:	83 c2 0c             	add    $0xc,%edx
    17c3:	39 f8                	cmp    %edi,%eax
    17c5:	74 97                	je     175e <grid_add+0x10e>
    17c7:	39 c6                	cmp    %eax,%esi
    17c9:	74 dd                	je     17a8 <grid_add+0x158>
    17cb:	39 45 ec             	cmp    %eax,-0x14(%ebp)
    17ce:	76 ef                	jbe    17bf <grid_add+0x16f>
    17d0:	85 d2                	test   %edx,%edx
    17d2:	74 eb                	je     17bf <grid_add+0x16f>
    17d4:	c7 02 00 00 00 00    	movl   $0x0,(%edx)
    17da:	c7 42 04 01 00 00 00 	movl   $0x1,0x4(%edx)
    17e1:	c7 42 08 01 00 00 00 	movl   $0x1,0x8(%edx)
    17e8:	eb d5                	jmp    17bf <grid_add+0x16f>
    17ea:	8b 51 04             	mov    0x4(%ecx),%edx
    17ed:	85 d2                	test   %edx,%edx
    17ef:	0f 84 e8 fe ff ff    	je     16dd <grid_add+0x8d>
    17f5:	8b 51 08             	mov    0x8(%ecx),%edx
    17f8:	85 d2                	test   %edx,%edx
    17fa:	0f 84 dd fe ff ff    	je     16dd <grid_add+0x8d>
    1800:	e9 75 ff ff ff       	jmp    177a <grid_add+0x12a>
    1805:	8d 74 26 00          	lea    0x0(%esi,%eiz,1),%esi
    1809:	8d bc 27 00 00 00 00 	lea    0x0(%edi,%eiz,1),%edi

00001810 <grid_destroy>:
    1810:	55                   	push   %ebp
    1811:	89 e5                	mov    %esp,%ebp
    1813:	53                   	push   %ebx
    1814:	83 ec 14             	sub    $0x14,%esp
    1817:	8b 5d 08             	mov    0x8(%ebp),%ebx
    181a:	89 1c 24             	mov    %ebx,(%esp)
    181d:	e8 6e 0e 00 00       	call   2690 <widget_deinit>
    1822:	8b 43 64             	mov    0x64(%ebx),%eax
    1825:	89 04 24             	mov    %eax,(%esp)
    1828:	e8 63 4a 01 00       	call   16290 <free>
    182d:	89 5d 08             	mov    %ebx,0x8(%ebp)
    1830:	83 c4 14             	add    $0x14,%esp
    1833:	5b                   	pop    %ebx
    1834:	5d                   	pop    %ebp
    1835:	e9 56 4a 01 00       	jmp    16290 <free>
    183a:	8d b6 00 00 00 00    	lea    0x0(%esi),%esi

00001840 <grid_rearrange>:
    1840:	55                   	push   %ebp
    1841:	89 e5                	mov    %esp,%ebp
    1843:	57                   	push   %edi
    1844:	56                   	push   %esi
    1845:	53                   	push   %ebx
    1846:	83 ec 7c             	sub    $0x7c,%esp
    1849:	8b 4d 08             	mov    0x8(%ebp),%ecx
    184c:	8b 75 0c             	mov    0xc(%ebp),%esi
    184f:	8b 7d 10             	mov    0x10(%ebp),%edi
    1852:	89 4d bc             	mov    %ecx,-0x44(%ebp)
    1855:	89 75 a4             	mov    %esi,-0x5c(%ebp)
    1858:	8b 4d 14             	mov    0x14(%ebp),%ecx
    185b:	8b 75 18             	mov    0x18(%ebp),%esi
    185e:	89 7d b4             	mov    %edi,-0x4c(%ebp)
    1861:	89 4d ac             	mov    %ecx,-0x54(%ebp)
    1864:	89 4c 24 0c          	mov    %ecx,0xc(%esp)
    1868:	89 7c 24 08          	mov    %edi,0x8(%esp)
    186c:	8b 4d bc             	mov    -0x44(%ebp),%ecx
    186f:	8b 7d a4             	mov    -0x5c(%ebp),%edi
    1872:	89 74 24 10          	mov    %esi,0x10(%esp)
    1876:	89 0c 24             	mov    %ecx,(%esp)
    1879:	89 7c 24 04          	mov    %edi,0x4(%esp)
    187d:	89 75 a0             	mov    %esi,-0x60(%ebp)
    1880:	e8 eb 0d 00 00       	call   2670 <widget_modify>
    1885:	8b 75 bc             	mov    -0x44(%ebp),%esi
    1888:	8b 46 14             	mov    0x14(%esi),%eax
    188b:	89 04 24             	mov    %eax,(%esp)
    188e:	e8 dd 21 00 00       	call   3a70 <window_claim>
    1893:	89 c6                	mov    %eax,%esi
    1895:	85 c0                	test   %eax,%eax
    1897:	74 7f                	je     1918 <grid_rearrange+0xd8>
    1899:	8b 4d bc             	mov    -0x44(%ebp),%ecx
    189c:	89 cf                	mov    %ecx,%edi
    189e:	8b 59 1c             	mov    0x1c(%ecx),%ebx
    18a1:	8b 49 24             	mov    0x24(%ecx),%ecx
    18a4:	8d 04 19             	lea    (%ecx,%ebx,1),%eax
    18a7:	39 c3                	cmp    %eax,%ebx
    18a9:	73 6d                	jae    1918 <grid_rearrange+0xd8>
    18ab:	8b 57 18             	mov    0x18(%edi),%edx
    18ae:	8b 47 20             	mov    0x20(%edi),%eax
    18b1:	01 d0                	add    %edx,%eax
    18b3:	89 4d e0             	mov    %ecx,-0x20(%ebp)
    18b6:	89 5d d8             	mov    %ebx,-0x28(%ebp)
    18b9:	89 45 dc             	mov    %eax,-0x24(%ebp)
    18bc:	89 75 e4             	mov    %esi,-0x1c(%ebp)
    18bf:	89 d9                	mov    %ebx,%ecx
    18c1:	8d b4 26 00 00 00 00 	lea    0x0(%esi,%eiz,1),%esi
    18c8:	39 d0                	cmp    %edx,%eax
    18ca:	76 42                	jbe    190e <grid_rearrange+0xce>
    18cc:	89 f8                	mov    %edi,%eax
    18ce:	89 d6                	mov    %edx,%esi
    18d0:	89 df                	mov    %ebx,%edi
    18d2:	89 c3                	mov    %eax,%ebx
    18d4:	8d 74 26 00          	lea    0x0(%esi,%eiz,1),%esi
    18d8:	8b 43 58             	mov    0x58(%ebx),%eax
    18db:	89 74 24 04          	mov    %esi,0x4(%esp)
    18df:	89 44 24 0c          	mov    %eax,0xc(%esp)
    18e3:	8b 45 e4             	mov    -0x1c(%ebp),%eax
    18e6:	89 04 24             	mov    %eax,(%esp)
    18e9:	89 7c 24 08          	mov    %edi,0x8(%esp)
    18ed:	e8 de 31 00 00       	call   4ad0 <surface_put_pixel>
    18f2:	8b 53 18             	mov    0x18(%ebx),%edx
    18f5:	8b 43 20             	mov    0x20(%ebx),%eax
    18f8:	46                   	inc    %esi
    18f9:	01 d0                	add    %edx,%eax
    18fb:	39 c6                	cmp    %eax,%esi
    18fd:	72 d9                	jb     18d8 <grid_rearrange+0x98>
    18ff:	89 d9                	mov    %ebx,%ecx
    1901:	89 fb                	mov    %edi,%ebx
    1903:	89 cf                	mov    %ecx,%edi
    1905:	8b 49 1c             	mov    0x1c(%ecx),%ecx
    1908:	8b 77 24             	mov    0x24(%edi),%esi
    190b:	89 75 e0             	mov    %esi,-0x20(%ebp)
    190e:	8b 75 e0             	mov    -0x20(%ebp),%esi
    1911:	43                   	inc    %ebx
    1912:	01 ce                	add    %ecx,%esi
    1914:	39 f3                	cmp    %esi,%ebx
    1916:	72 b0                	jb     18c8 <grid_rearrange+0x88>
    1918:	8b 7d bc             	mov    -0x44(%ebp),%edi
    191b:	8b 47 14             	mov    0x14(%edi),%eax
    191e:	89 04 24             	mov    %eax,(%esp)
    1921:	e8 7a 21 00 00       	call   3aa0 <window_yield>
    1926:	8b 4d bc             	mov    -0x44(%ebp),%ecx
    1929:	c7 44 24 04 0c 00 00 	movl   $0xc,0x4(%esp)
    1930:	00 
    1931:	8b 41 5c             	mov    0x5c(%ecx),%eax
    1934:	89 04 24             	mov    %eax,(%esp)
    1937:	e8 e4 47 01 00       	call   16120 <calloc>
    193c:	89 45 b0             	mov    %eax,-0x50(%ebp)
    193f:	85 c0                	test   %eax,%eax
    1941:	0f 84 68 05 00 00    	je     1eaf <grid_rearrange+0x66f>
    1947:	8b 7d bc             	mov    -0x44(%ebp),%edi
    194a:	8b 7f 5c             	mov    0x5c(%edi),%edi
    194d:	89 7d c4             	mov    %edi,-0x3c(%ebp)
    1950:	85 ff                	test   %edi,%edi
    1952:	0f 84 77 05 00 00    	je     1ecf <grid_rearrange+0x68f>
    1958:	8b 45 b0             	mov    -0x50(%ebp),%eax
    195b:	8b 4d bc             	mov    -0x44(%ebp),%ecx
    195e:	89 45 a8             	mov    %eax,-0x58(%ebp)
    1961:	8d 04 7f             	lea    (%edi,%edi,2),%eax
    1964:	c1 e0 02             	shl    $0x2,%eax
    1967:	8b 49 60             	mov    0x60(%ecx),%ecx
    196a:	89 45 c0             	mov    %eax,-0x40(%ebp)
    196d:	8b 45 b0             	mov    -0x50(%ebp),%eax
    1970:	89 4d cc             	mov    %ecx,-0x34(%ebp)
    1973:	89 45 b8             	mov    %eax,-0x48(%ebp)
    1976:	c7 45 c8 00 00 00 00 	movl   $0x0,-0x38(%ebp)
    197d:	8d 76 00             	lea    0x0(%esi),%esi
    1980:	8b 4d b8             	mov    -0x48(%ebp),%ecx
    1983:	8b 45 cc             	mov    -0x34(%ebp),%eax
    1986:	85 c0                	test   %eax,%eax
    1988:	c7 01 00 00 00 00    	movl   $0x0,(%ecx)
    198e:	0f 84 c2 00 00 00    	je     1a56 <grid_rearrange+0x216>
    1994:	8b 7d b0             	mov    -0x50(%ebp),%edi
    1997:	c7 45 dc 00 00 00 00 	movl   $0x0,-0x24(%ebp)
    199e:	29 f9                	sub    %edi,%ecx
    19a0:	89 4d d8             	mov    %ecx,-0x28(%ebp)
    19a3:	90                   	nop
    19a4:	8d 74 26 00          	lea    0x0(%esi,%eiz,1),%esi
    19a8:	8b 75 c4             	mov    -0x3c(%ebp),%esi
    19ab:	39 75 c8             	cmp    %esi,-0x38(%ebp)
    19ae:	0f 83 84 00 00 00    	jae    1a38 <grid_rearrange+0x1f8>
    19b4:	8b 7d cc             	mov    -0x34(%ebp),%edi
    19b7:	39 7d dc             	cmp    %edi,-0x24(%ebp)
    19ba:	73 7c                	jae    1a38 <grid_rearrange+0x1f8>
    19bc:	8b 4d bc             	mov    -0x44(%ebp),%ecx
    19bf:	8b 55 d8             	mov    -0x28(%ebp),%edx
    19c2:	03 51 64             	add    0x64(%ecx),%edx
    19c5:	74 71                	je     1a38 <grid_rearrange+0x1f8>
    19c7:	8b 02                	mov    (%edx),%eax
    19c9:	85 c0                	test   %eax,%eax
    19cb:	74 6b                	je     1a38 <grid_rearrange+0x1f8>
    19cd:	8b 5a 04             	mov    0x4(%edx),%ebx
    19d0:	8b 48 38             	mov    0x38(%eax),%ecx
    19d3:	85 db                	test   %ebx,%ebx
    19d5:	8b 40 28             	mov    0x28(%eax),%eax
    19d8:	0f 84 01 05 00 00    	je     1edf <grid_rearrange+0x69f>
    19de:	31 d2                	xor    %edx,%edx
    19e0:	8d 7b ff             	lea    -0x1(%ebx),%edi
    19e3:	f7 f3                	div    %ebx
    19e5:	89 d6                	mov    %edx,%esi
    19e7:	89 45 e4             	mov    %eax,-0x1c(%ebp)
    19ea:	31 d2                	xor    %edx,%edx
    19ec:	89 c8                	mov    %ecx,%eax
    19ee:	f7 f3                	div    %ebx
    19f0:	03 75 e4             	add    -0x1c(%ebp),%esi
    19f3:	89 45 e0             	mov    %eax,-0x20(%ebp)
    19f6:	89 d1                	mov    %edx,%ecx
    19f8:	89 75 d4             	mov    %esi,-0x2c(%ebp)
    19fb:	8b 75 e0             	mov    -0x20(%ebp),%esi
    19fe:	8b 45 b8             	mov    -0x48(%ebp),%eax
    1a01:	01 f1                	add    %esi,%ecx
    1a03:	31 d2                	xor    %edx,%edx
    1a05:	89 4d d0             	mov    %ecx,-0x30(%ebp)
    1a08:	eb 22                	jmp    1a2c <grid_rearrange+0x1ec>
    1a0a:	8d b6 00 00 00 00    	lea    0x0(%esi),%esi
    1a10:	8b 4d e0             	mov    -0x20(%ebp),%ecx
    1a13:	8b 75 e4             	mov    -0x1c(%ebp),%esi
    1a16:	39 30                	cmp    %esi,(%eax)
    1a18:	73 02                	jae    1a1c <grid_rearrange+0x1dc>
    1a1a:	89 30                	mov    %esi,(%eax)
    1a1c:	39 48 04             	cmp    %ecx,0x4(%eax)
    1a1f:	73 03                	jae    1a24 <grid_rearrange+0x1e4>
    1a21:	89 48 04             	mov    %ecx,0x4(%eax)
    1a24:	42                   	inc    %edx
    1a25:	83 c0 0c             	add    $0xc,%eax
    1a28:	39 da                	cmp    %ebx,%edx
    1a2a:	74 0c                	je     1a38 <grid_rearrange+0x1f8>
    1a2c:	39 fa                	cmp    %edi,%edx
    1a2e:	75 e0                	jne    1a10 <grid_rearrange+0x1d0>
    1a30:	8b 75 d4             	mov    -0x2c(%ebp),%esi
    1a33:	8b 4d d0             	mov    -0x30(%ebp),%ecx
    1a36:	eb de                	jmp    1a16 <grid_rearrange+0x1d6>
    1a38:	8b 45 dc             	mov    -0x24(%ebp),%eax
    1a3b:	8b 4d c0             	mov    -0x40(%ebp),%ecx
    1a3e:	40                   	inc    %eax
    1a3f:	8b 75 cc             	mov    -0x34(%ebp),%esi
    1a42:	89 45 dc             	mov    %eax,-0x24(%ebp)
    1a45:	8b 45 d8             	mov    -0x28(%ebp),%eax
    1a48:	01 c8                	add    %ecx,%eax
    1a4a:	39 75 dc             	cmp    %esi,-0x24(%ebp)
    1a4d:	89 45 d8             	mov    %eax,-0x28(%ebp)
    1a50:	0f 85 52 ff ff ff    	jne    19a8 <grid_rearrange+0x168>
    1a56:	8b 45 c8             	mov    -0x38(%ebp),%eax
    1a59:	8b 7d c4             	mov    -0x3c(%ebp),%edi
    1a5c:	40                   	inc    %eax
    1a5d:	89 45 c8             	mov    %eax,-0x38(%ebp)
    1a60:	8b 45 b8             	mov    -0x48(%ebp),%eax
    1a63:	83 c0 0c             	add    $0xc,%eax
    1a66:	39 7d c8             	cmp    %edi,-0x38(%ebp)
    1a69:	89 45 b8             	mov    %eax,-0x48(%ebp)
    1a6c:	0f 85 0e ff ff ff    	jne    1980 <grid_rearrange+0x140>
    1a72:	8b 45 c0             	mov    -0x40(%ebp),%eax
    1a75:	8b 4d b0             	mov    -0x50(%ebp),%ecx
    1a78:	01 c1                	add    %eax,%ecx
    1a7a:	31 d2                	xor    %edx,%edx
    1a7c:	8b 45 a8             	mov    -0x58(%ebp),%eax
    1a7f:	90                   	nop
    1a80:	8b 18                	mov    (%eax),%ebx
    1a82:	89 58 08             	mov    %ebx,0x8(%eax)
    1a85:	83 c0 0c             	add    $0xc,%eax
    1a88:	01 da                	add    %ebx,%edx
    1a8a:	39 c8                	cmp    %ecx,%eax
    1a8c:	75 f2                	jne    1a80 <grid_rearrange+0x240>
    1a8e:	39 55 ac             	cmp    %edx,-0x54(%ebp)
    1a91:	76 6f                	jbe    1b02 <grid_rearrange+0x2c2>
    1a93:	8b 45 ac             	mov    -0x54(%ebp),%eax
    1a96:	29 d0                	sub    %edx,%eax
    1a98:	31 d2                	xor    %edx,%edx
    1a9a:	f7 75 c4             	divl   -0x3c(%ebp)
    1a9d:	89 c6                	mov    %eax,%esi
    1a9f:	85 c0                	test   %eax,%eax
    1aa1:	74 5f                	je     1b02 <grid_rearrange+0x2c2>
    1aa3:	8b 7d c4             	mov    -0x3c(%ebp),%edi
    1aa6:	8b 55 b0             	mov    -0x50(%ebp),%edx
    1aa9:	8b 4d c4             	mov    -0x3c(%ebp),%ecx
    1aac:	8b 5d ac             	mov    -0x54(%ebp),%ebx
    1aaf:	8d 04 7f             	lea    (%edi,%edi,2),%eax
    1ab2:	8d 3c 82             	lea    (%edx,%eax,4),%edi
    1ab5:	89 f0                	mov    %esi,%eax
    1ab7:	89 7d e0             	mov    %edi,-0x20(%ebp)
    1aba:	eb 14                	jmp    1ad0 <grid_rearrange+0x290>
    1abc:	8d 74 26 00          	lea    0x0(%esi,%eiz,1),%esi
    1ac0:	39 d3                	cmp    %edx,%ebx
    1ac2:	76 3e                	jbe    1b02 <grid_rearrange+0x2c2>
    1ac4:	89 d8                	mov    %ebx,%eax
    1ac6:	29 d0                	sub    %edx,%eax
    1ac8:	31 d2                	xor    %edx,%edx
    1aca:	f7 f1                	div    %ecx
    1acc:	85 c0                	test   %eax,%eax
    1ace:	74 32                	je     1b02 <grid_rearrange+0x2c2>
    1ad0:	31 d2                	xor    %edx,%edx
    1ad2:	85 c9                	test   %ecx,%ecx
    1ad4:	74 ea                	je     1ac0 <grid_rearrange+0x280>
    1ad6:	8b 7d b0             	mov    -0x50(%ebp),%edi
    1ad9:	89 c6                	mov    %eax,%esi
    1adb:	89 4d dc             	mov    %ecx,-0x24(%ebp)
    1ade:	8b 47 08             	mov    0x8(%edi),%eax
    1ae1:	8d 0c 30             	lea    (%eax,%esi,1),%ecx
    1ae4:	89 4d e4             	mov    %ecx,-0x1c(%ebp)
    1ae7:	3b 4f 04             	cmp    0x4(%edi),%ecx
    1aea:	73 05                	jae    1af1 <grid_rearrange+0x2b1>
    1aec:	89 4f 08             	mov    %ecx,0x8(%edi)
    1aef:	89 c8                	mov    %ecx,%eax
    1af1:	83 c7 0c             	add    $0xc,%edi
    1af4:	01 c2                	add    %eax,%edx
    1af6:	3b 7d e0             	cmp    -0x20(%ebp),%edi
    1af9:	75 e3                	jne    1ade <grid_rearrange+0x29e>
    1afb:	8b 4d dc             	mov    -0x24(%ebp),%ecx
    1afe:	39 d3                	cmp    %edx,%ebx
    1b00:	77 c2                	ja     1ac4 <grid_rearrange+0x284>
    1b02:	8b 4d cc             	mov    -0x34(%ebp),%ecx
    1b05:	c7 44 24 04 0c 00 00 	movl   $0xc,0x4(%esp)
    1b0c:	00 
    1b0d:	89 0c 24             	mov    %ecx,(%esp)
    1b10:	e8 0b 46 01 00       	call   16120 <calloc>
    1b15:	89 45 a8             	mov    %eax,-0x58(%ebp)
    1b18:	85 c0                	test   %eax,%eax
    1b1a:	0f 84 9d 03 00 00    	je     1ebd <grid_rearrange+0x67d>
    1b20:	8b 75 bc             	mov    -0x44(%ebp),%esi
    1b23:	8b 76 60             	mov    0x60(%esi),%esi
    1b26:	89 75 c8             	mov    %esi,-0x38(%ebp)
    1b29:	85 f6                	test   %esi,%esi
    1b2b:	0f 84 97 03 00 00    	je     1ec8 <grid_rearrange+0x688>
    1b31:	8b 7d bc             	mov    -0x44(%ebp),%edi
    1b34:	89 45 9c             	mov    %eax,-0x64(%ebp)
    1b37:	c7 45 b8 00 00 00 00 	movl   $0x0,-0x48(%ebp)
    1b3e:	c7 45 c0 00 00 00 00 	movl   $0x0,-0x40(%ebp)
    1b45:	8b 7f 5c             	mov    0x5c(%edi),%edi
    1b48:	89 7d cc             	mov    %edi,-0x34(%ebp)
    1b4b:	8d 04 7f             	lea    (%edi,%edi,2),%eax
    1b4e:	c1 e0 02             	shl    $0x2,%eax
    1b51:	89 45 ac             	mov    %eax,-0x54(%ebp)
    1b54:	8b 45 a8             	mov    -0x58(%ebp),%eax
    1b57:	89 45 c4             	mov    %eax,-0x3c(%ebp)
    1b5a:	8d b6 00 00 00 00    	lea    0x0(%esi),%esi
    1b60:	8b 4d c4             	mov    -0x3c(%ebp),%ecx
    1b63:	8b 7d cc             	mov    -0x34(%ebp),%edi
    1b66:	85 ff                	test   %edi,%edi
    1b68:	c7 01 00 00 00 00    	movl   $0x0,(%ecx)
    1b6e:	0f 84 c0 00 00 00    	je     1c34 <grid_rearrange+0x3f4>
    1b74:	8b 75 b8             	mov    -0x48(%ebp),%esi
    1b77:	c7 45 dc 00 00 00 00 	movl   $0x0,-0x24(%ebp)
    1b7e:	89 75 d8             	mov    %esi,-0x28(%ebp)
    1b81:	8d b4 26 00 00 00 00 	lea    0x0(%esi,%eiz,1),%esi
    1b88:	8b 7d cc             	mov    -0x34(%ebp),%edi
    1b8b:	39 7d dc             	cmp    %edi,-0x24(%ebp)
    1b8e:	0f 83 84 00 00 00    	jae    1c18 <grid_rearrange+0x3d8>
    1b94:	8b 4d c8             	mov    -0x38(%ebp),%ecx
    1b97:	39 4d c0             	cmp    %ecx,-0x40(%ebp)
    1b9a:	73 7c                	jae    1c18 <grid_rearrange+0x3d8>
    1b9c:	8b 75 bc             	mov    -0x44(%ebp),%esi
    1b9f:	8b 55 d8             	mov    -0x28(%ebp),%edx
    1ba2:	03 56 64             	add    0x64(%esi),%edx
    1ba5:	74 71                	je     1c18 <grid_rearrange+0x3d8>
    1ba7:	8b 02                	mov    (%edx),%eax
    1ba9:	85 c0                	test   %eax,%eax
    1bab:	74 6b                	je     1c18 <grid_rearrange+0x3d8>
    1bad:	8b 5a 08             	mov    0x8(%edx),%ebx
    1bb0:	8b 48 3c             	mov    0x3c(%eax),%ecx
    1bb3:	85 db                	test   %ebx,%ebx
    1bb5:	8b 40 2c             	mov    0x2c(%eax),%eax
    1bb8:	0f 84 21 03 00 00    	je     1edf <grid_rearrange+0x69f>
    1bbe:	31 d2                	xor    %edx,%edx
    1bc0:	8d 7b ff             	lea    -0x1(%ebx),%edi
    1bc3:	f7 f3                	div    %ebx
    1bc5:	89 d6                	mov    %edx,%esi
    1bc7:	89 45 e4             	mov    %eax,-0x1c(%ebp)
    1bca:	31 d2                	xor    %edx,%edx
    1bcc:	89 c8                	mov    %ecx,%eax
    1bce:	f7 f3                	div    %ebx
    1bd0:	03 75 e4             	add    -0x1c(%ebp),%esi
    1bd3:	89 45 e0             	mov    %eax,-0x20(%ebp)
    1bd6:	89 d1                	mov    %edx,%ecx
    1bd8:	89 75 d4             	mov    %esi,-0x2c(%ebp)
    1bdb:	8b 75 e0             	mov    -0x20(%ebp),%esi
    1bde:	8b 45 c4             	mov    -0x3c(%ebp),%eax
    1be1:	01 f1                	add    %esi,%ecx
    1be3:	31 d2                	xor    %edx,%edx
    1be5:	89 4d d0             	mov    %ecx,-0x30(%ebp)
    1be8:	eb 22                	jmp    1c0c <grid_rearrange+0x3cc>
    1bea:	8d b6 00 00 00 00    	lea    0x0(%esi),%esi
    1bf0:	8b 4d e0             	mov    -0x20(%ebp),%ecx
    1bf3:	8b 75 e4             	mov    -0x1c(%ebp),%esi
    1bf6:	39 30                	cmp    %esi,(%eax)
    1bf8:	73 02                	jae    1bfc <grid_rearrange+0x3bc>
    1bfa:	89 30                	mov    %esi,(%eax)
    1bfc:	39 48 04             	cmp    %ecx,0x4(%eax)
    1bff:	73 03                	jae    1c04 <grid_rearrange+0x3c4>
    1c01:	89 48 04             	mov    %ecx,0x4(%eax)
    1c04:	42                   	inc    %edx
    1c05:	83 c0 0c             	add    $0xc,%eax
    1c08:	39 da                	cmp    %ebx,%edx
    1c0a:	74 0c                	je     1c18 <grid_rearrange+0x3d8>
    1c0c:	39 fa                	cmp    %edi,%edx
    1c0e:	75 e0                	jne    1bf0 <grid_rearrange+0x3b0>
    1c10:	8b 75 d4             	mov    -0x2c(%ebp),%esi
    1c13:	8b 4d d0             	mov    -0x30(%ebp),%ecx
    1c16:	eb de                	jmp    1bf6 <grid_rearrange+0x3b6>
    1c18:	8b 45 dc             	mov    -0x24(%ebp),%eax
    1c1b:	8b 4d cc             	mov    -0x34(%ebp),%ecx
    1c1e:	40                   	inc    %eax
    1c1f:	89 45 dc             	mov    %eax,-0x24(%ebp)
    1c22:	8b 45 d8             	mov    -0x28(%ebp),%eax
    1c25:	83 c0 0c             	add    $0xc,%eax
    1c28:	39 4d dc             	cmp    %ecx,-0x24(%ebp)
    1c2b:	89 45 d8             	mov    %eax,-0x28(%ebp)
    1c2e:	0f 85 54 ff ff ff    	jne    1b88 <grid_rearrange+0x348>
    1c34:	8b 45 c4             	mov    -0x3c(%ebp),%eax
    1c37:	8b 7d c0             	mov    -0x40(%ebp),%edi
    1c3a:	83 c0 0c             	add    $0xc,%eax
    1c3d:	47                   	inc    %edi
    1c3e:	89 45 c4             	mov    %eax,-0x3c(%ebp)
    1c41:	8b 75 ac             	mov    -0x54(%ebp),%esi
    1c44:	8b 45 b8             	mov    -0x48(%ebp),%eax
    1c47:	89 7d c0             	mov    %edi,-0x40(%ebp)
    1c4a:	01 f0                	add    %esi,%eax
    1c4c:	8b 7d c8             	mov    -0x38(%ebp),%edi
    1c4f:	89 45 b8             	mov    %eax,-0x48(%ebp)
    1c52:	39 7d c0             	cmp    %edi,-0x40(%ebp)
    1c55:	0f 85 05 ff ff ff    	jne    1b60 <grid_rearrange+0x320>
    1c5b:	8d 04 7f             	lea    (%edi,%edi,2),%eax
    1c5e:	8b 55 a8             	mov    -0x58(%ebp),%edx
    1c61:	8d 0c 82             	lea    (%edx,%eax,4),%ecx
    1c64:	31 d2                	xor    %edx,%edx
    1c66:	8b 45 9c             	mov    -0x64(%ebp),%eax
    1c69:	8d b4 26 00 00 00 00 	lea    0x0(%esi,%eiz,1),%esi
    1c70:	8b 18                	mov    (%eax),%ebx
    1c72:	89 58 08             	mov    %ebx,0x8(%eax)
    1c75:	83 c0 0c             	add    $0xc,%eax
    1c78:	01 da                	add    %ebx,%edx
    1c7a:	39 c8                	cmp    %ecx,%eax
    1c7c:	75 f2                	jne    1c70 <grid_rearrange+0x430>
    1c7e:	39 55 a0             	cmp    %edx,-0x60(%ebp)
    1c81:	76 68                	jbe    1ceb <grid_rearrange+0x4ab>
    1c83:	8b 45 a0             	mov    -0x60(%ebp),%eax
    1c86:	29 d0                	sub    %edx,%eax
    1c88:	31 d2                	xor    %edx,%edx
    1c8a:	f7 75 c8             	divl   -0x38(%ebp)
    1c8d:	85 c0                	test   %eax,%eax
    1c8f:	74 5a                	je     1ceb <grid_rearrange+0x4ab>
    1c91:	8b 4d c8             	mov    -0x38(%ebp),%ecx
    1c94:	8b 75 a8             	mov    -0x58(%ebp),%esi
    1c97:	8b 5d a0             	mov    -0x60(%ebp),%ebx
    1c9a:	8d 14 49             	lea    (%ecx,%ecx,2),%edx
    1c9d:	8d 3c 96             	lea    (%esi,%edx,4),%edi
    1ca0:	89 7d e0             	mov    %edi,-0x20(%ebp)
    1ca3:	eb 13                	jmp    1cb8 <grid_rearrange+0x478>
    1ca5:	8d 76 00             	lea    0x0(%esi),%esi
    1ca8:	39 d3                	cmp    %edx,%ebx
    1caa:	76 3f                	jbe    1ceb <grid_rearrange+0x4ab>
    1cac:	89 d8                	mov    %ebx,%eax
    1cae:	29 d0                	sub    %edx,%eax
    1cb0:	31 d2                	xor    %edx,%edx
    1cb2:	f7 f1                	div    %ecx
    1cb4:	85 c0                	test   %eax,%eax
    1cb6:	74 33                	je     1ceb <grid_rearrange+0x4ab>
    1cb8:	31 d2                	xor    %edx,%edx
    1cba:	85 c9                	test   %ecx,%ecx
    1cbc:	74 ea                	je     1ca8 <grid_rearrange+0x468>
    1cbe:	8b 7d a8             	mov    -0x58(%ebp),%edi
    1cc1:	89 ce                	mov    %ecx,%esi
    1cc3:	89 45 dc             	mov    %eax,-0x24(%ebp)
    1cc6:	8b 4f 08             	mov    0x8(%edi),%ecx
    1cc9:	8b 45 dc             	mov    -0x24(%ebp),%eax
    1ccc:	01 c8                	add    %ecx,%eax
    1cce:	89 45 e4             	mov    %eax,-0x1c(%ebp)
    1cd1:	3b 47 04             	cmp    0x4(%edi),%eax
    1cd4:	73 05                	jae    1cdb <grid_rearrange+0x49b>
    1cd6:	89 47 08             	mov    %eax,0x8(%edi)
    1cd9:	89 c1                	mov    %eax,%ecx
    1cdb:	83 c7 0c             	add    $0xc,%edi
    1cde:	01 ca                	add    %ecx,%edx
    1ce0:	3b 7d e0             	cmp    -0x20(%ebp),%edi
    1ce3:	75 e1                	jne    1cc6 <grid_rearrange+0x486>
    1ce5:	89 f1                	mov    %esi,%ecx
    1ce7:	39 d3                	cmp    %edx,%ebx
    1ce9:	77 c1                	ja     1cac <grid_rearrange+0x46c>
    1ceb:	8b 75 b0             	mov    -0x50(%ebp),%esi
    1cee:	85 f6                	test   %esi,%esi
    1cf0:	0f 84 97 01 00 00    	je     1e8d <grid_rearrange+0x64d>
    1cf6:	8b 5d c8             	mov    -0x38(%ebp),%ebx
    1cf9:	85 db                	test   %ebx,%ebx
    1cfb:	0f 84 7b 01 00 00    	je     1e7c <grid_rearrange+0x63c>
    1d01:	8b 45 a8             	mov    -0x58(%ebp),%eax
    1d04:	8b 7d bc             	mov    -0x44(%ebp),%edi
    1d07:	89 45 d4             	mov    %eax,-0x2c(%ebp)
    1d0a:	83 c0 08             	add    $0x8,%eax
    1d0d:	89 45 d0             	mov    %eax,-0x30(%ebp)
    1d10:	8b 45 b0             	mov    -0x50(%ebp),%eax
    1d13:	8b 7f 5c             	mov    0x5c(%edi),%edi
    1d16:	83 c0 08             	add    $0x8,%eax
    1d19:	89 7d e0             	mov    %edi,-0x20(%ebp)
    1d1c:	c7 45 d8 00 00 00 00 	movl   $0x0,-0x28(%ebp)
    1d23:	89 45 cc             	mov    %eax,-0x34(%ebp)
    1d26:	8b 45 e0             	mov    -0x20(%ebp),%eax
    1d29:	85 c0                	test   %eax,%eax
    1d2b:	0f 84 21 01 00 00    	je     1e52 <grid_rearrange+0x612>
    1d31:	8b 7d a4             	mov    -0x5c(%ebp),%edi
    1d34:	8b 5d b0             	mov    -0x50(%ebp),%ebx
    1d37:	89 7d dc             	mov    %edi,-0x24(%ebp)
    1d3a:	c7 45 e4 00 00 00 00 	movl   $0x0,-0x1c(%ebp)
    1d41:	8d b4 26 00 00 00 00 	lea    0x0(%esi,%eiz,1),%esi
    1d48:	8b 55 e4             	mov    -0x1c(%ebp),%edx
    1d4b:	39 55 e0             	cmp    %edx,-0x20(%ebp)
    1d4e:	0f 86 e8 00 00 00    	jbe    1e3c <grid_rearrange+0x5fc>
    1d54:	8b 4d d8             	mov    -0x28(%ebp),%ecx
    1d57:	39 4d c8             	cmp    %ecx,-0x38(%ebp)
    1d5a:	0f 86 dc 00 00 00    	jbe    1e3c <grid_rearrange+0x5fc>
    1d60:	8b 45 e0             	mov    -0x20(%ebp),%eax
    1d63:	8b 75 bc             	mov    -0x44(%ebp),%esi
    1d66:	0f af c1             	imul   %ecx,%eax
    1d69:	01 d0                	add    %edx,%eax
    1d6b:	8d 14 40             	lea    (%eax,%eax,2),%edx
    1d6e:	8b 46 64             	mov    0x64(%esi),%eax
    1d71:	8d 3c 90             	lea    (%eax,%edx,4),%edi
    1d74:	85 ff                	test   %edi,%edi
    1d76:	0f 84 c0 00 00 00    	je     1e3c <grid_rearrange+0x5fc>
    1d7c:	8b 37                	mov    (%edi),%esi
    1d7e:	85 f6                	test   %esi,%esi
    1d80:	0f 84 ab 00 00 00    	je     1e31 <grid_rearrange+0x5f1>
    1d86:	8b 57 04             	mov    0x4(%edi),%edx
    1d89:	85 d2                	test   %edx,%edx
    1d8b:	0f 84 17 01 00 00    	je     1ea8 <grid_rearrange+0x668>
    1d91:	8b 4d e4             	mov    -0x1c(%ebp),%ecx
    1d94:	8d 43 08             	lea    0x8(%ebx),%eax
    1d97:	01 ca                	add    %ecx,%edx
    1d99:	8b 4d cc             	mov    -0x34(%ebp),%ecx
    1d9c:	8d 14 52             	lea    (%edx,%edx,2),%edx
    1d9f:	8d 14 91             	lea    (%ecx,%edx,4),%edx
    1da2:	31 c9                	xor    %ecx,%ecx
    1da4:	8d 74 26 00          	lea    0x0(%esi,%eiz,1),%esi
    1da8:	03 08                	add    (%eax),%ecx
    1daa:	83 c0 0c             	add    $0xc,%eax
    1dad:	39 d0                	cmp    %edx,%eax
    1daf:	75 f7                	jne    1da8 <grid_rearrange+0x568>
    1db1:	8b 57 08             	mov    0x8(%edi),%edx
    1db4:	85 d2                	test   %edx,%edx
    1db6:	74 79                	je     1e31 <grid_rearrange+0x5f1>
    1db8:	8b 45 d8             	mov    -0x28(%ebp),%eax
    1dbb:	8b 7d d4             	mov    -0x2c(%ebp),%edi
    1dbe:	01 c2                	add    %eax,%edx
    1dc0:	83 c7 08             	add    $0x8,%edi
    1dc3:	8b 45 d0             	mov    -0x30(%ebp),%eax
    1dc6:	89 7d c4             	mov    %edi,-0x3c(%ebp)
    1dc9:	8d 14 52             	lea    (%edx,%edx,2),%edx
    1dcc:	8d 3c 90             	lea    (%eax,%edx,4),%edi
    1dcf:	31 d2                	xor    %edx,%edx
    1dd1:	8b 45 c4             	mov    -0x3c(%ebp),%eax
    1dd4:	8d 74 26 00          	lea    0x0(%esi,%eiz,1),%esi
    1dd8:	03 10                	add    (%eax),%edx
    1dda:	83 c0 0c             	add    $0xc,%eax
    1ddd:	39 f8                	cmp    %edi,%eax
    1ddf:	75 f7                	jne    1dd8 <grid_rearrange+0x598>
    1de1:	85 d2                	test   %edx,%edx
    1de3:	74 4c                	je     1e31 <grid_rearrange+0x5f1>
    1de5:	85 c9                	test   %ecx,%ecx
    1de7:	74 48                	je     1e31 <grid_rearrange+0x5f1>
    1de9:	8b 46 38             	mov    0x38(%esi),%eax
    1dec:	85 c0                	test   %eax,%eax
    1dee:	74 06                	je     1df6 <grid_rearrange+0x5b6>
    1df0:	39 c1                	cmp    %eax,%ecx
    1df2:	76 02                	jbe    1df6 <grid_rearrange+0x5b6>
    1df4:	89 c1                	mov    %eax,%ecx
    1df6:	8b 46 3c             	mov    0x3c(%esi),%eax
    1df9:	85 c0                	test   %eax,%eax
    1dfb:	74 06                	je     1e03 <grid_rearrange+0x5c3>
    1dfd:	39 c2                	cmp    %eax,%edx
    1dff:	76 02                	jbe    1e03 <grid_rearrange+0x5c3>
    1e01:	89 c2                	mov    %eax,%edx
    1e03:	89 54 24 10          	mov    %edx,0x10(%esp)
    1e07:	89 4c 24 0c          	mov    %ecx,0xc(%esp)
    1e0b:	8b 55 b4             	mov    -0x4c(%ebp),%edx
    1e0e:	8b 4d dc             	mov    -0x24(%ebp),%ecx
    1e11:	89 34 24             	mov    %esi,(%esp)
    1e14:	89 54 24 08          	mov    %edx,0x8(%esp)
    1e18:	89 4c 24 04          	mov    %ecx,0x4(%esp)
    1e1c:	ff 56 48             	call   *0x48(%esi)
    1e1f:	8b 75 bc             	mov    -0x44(%ebp),%esi
    1e22:	8b 7d bc             	mov    -0x44(%ebp),%edi
    1e25:	8b 76 60             	mov    0x60(%esi),%esi
    1e28:	89 75 c8             	mov    %esi,-0x38(%ebp)
    1e2b:	8b 7f 5c             	mov    0x5c(%edi),%edi
    1e2e:	89 7d e0             	mov    %edi,-0x20(%ebp)
    1e31:	8b 4d dc             	mov    -0x24(%ebp),%ecx
    1e34:	8b 43 08             	mov    0x8(%ebx),%eax
    1e37:	01 c1                	add    %eax,%ecx
    1e39:	89 4d dc             	mov    %ecx,-0x24(%ebp)
    1e3c:	8b 55 e4             	mov    -0x1c(%ebp),%edx
    1e3f:	83 c3 0c             	add    $0xc,%ebx
    1e42:	42                   	inc    %edx
    1e43:	89 55 e4             	mov    %edx,-0x1c(%ebp)
    1e46:	8b 55 e0             	mov    -0x20(%ebp),%edx
    1e49:	39 55 e4             	cmp    %edx,-0x1c(%ebp)
    1e4c:	0f 82 f6 fe ff ff    	jb     1d48 <grid_rearrange+0x508>
    1e52:	8b 4d d4             	mov    -0x2c(%ebp),%ecx
    1e55:	8b 45 b4             	mov    -0x4c(%ebp),%eax
    1e58:	8b 75 c8             	mov    -0x38(%ebp),%esi
    1e5b:	8b 49 08             	mov    0x8(%ecx),%ecx
    1e5e:	01 c8                	add    %ecx,%eax
    1e60:	89 45 b4             	mov    %eax,-0x4c(%ebp)
    1e63:	8b 45 d8             	mov    -0x28(%ebp),%eax
    1e66:	40                   	inc    %eax
    1e67:	89 45 d8             	mov    %eax,-0x28(%ebp)
    1e6a:	8b 45 d4             	mov    -0x2c(%ebp),%eax
    1e6d:	83 c0 0c             	add    $0xc,%eax
    1e70:	39 75 d8             	cmp    %esi,-0x28(%ebp)
    1e73:	89 45 d4             	mov    %eax,-0x2c(%ebp)
    1e76:	0f 82 aa fe ff ff    	jb     1d26 <grid_rearrange+0x4e6>
    1e7c:	b3 01                	mov    $0x1,%bl
    1e7e:	8b 45 b0             	mov    -0x50(%ebp),%eax
    1e81:	89 04 24             	mov    %eax,(%esp)
    1e84:	e8 07 44 01 00       	call   16290 <free>
    1e89:	84 db                	test   %bl,%bl
    1e8b:	74 12                	je     1e9f <grid_rearrange+0x65f>
    1e8d:	8b 45 a8             	mov    -0x58(%ebp),%eax
    1e90:	89 45 08             	mov    %eax,0x8(%ebp)
    1e93:	83 c4 7c             	add    $0x7c,%esp
    1e96:	5b                   	pop    %ebx
    1e97:	5e                   	pop    %esi
    1e98:	5f                   	pop    %edi
    1e99:	5d                   	pop    %ebp
    1e9a:	e9 f1 43 01 00       	jmp    16290 <free>
    1e9f:	83 c4 7c             	add    $0x7c,%esp
    1ea2:	5b                   	pop    %ebx
    1ea3:	5e                   	pop    %esi
    1ea4:	5f                   	pop    %edi
    1ea5:	5d                   	pop    %ebp
    1ea6:	c3                   	ret    
    1ea7:	90                   	nop
    1ea8:	31 c9                	xor    %ecx,%ecx
    1eaa:	e9 02 ff ff ff       	jmp    1db1 <grid_rearrange+0x571>
    1eaf:	8b 75 bc             	mov    -0x44(%ebp),%esi
    1eb2:	8b 76 60             	mov    0x60(%esi),%esi
    1eb5:	89 75 cc             	mov    %esi,-0x34(%ebp)
    1eb8:	e9 45 fc ff ff       	jmp    1b02 <grid_rearrange+0x2c2>
    1ebd:	8b 45 b0             	mov    -0x50(%ebp),%eax
    1ec0:	85 c0                	test   %eax,%eax
    1ec2:	74 db                	je     1e9f <grid_rearrange+0x65f>
    1ec4:	31 db                	xor    %ebx,%ebx
    1ec6:	eb b6                	jmp    1e7e <grid_rearrange+0x63e>
    1ec8:	31 d2                	xor    %edx,%edx
    1eca:	e9 af fd ff ff       	jmp    1c7e <grid_rearrange+0x43e>
    1ecf:	8b 75 bc             	mov    -0x44(%ebp),%esi
    1ed2:	31 d2                	xor    %edx,%edx
    1ed4:	8b 76 60             	mov    0x60(%esi),%esi
    1ed7:	89 75 cc             	mov    %esi,-0x34(%ebp)
    1eda:	e9 af fb ff ff       	jmp    1a8e <grid_rearrange+0x24e>
    1edf:	c7 44 24 08 77 00 00 	movl   $0x77,0x8(%esp)
    1ee6:	00 
    1ee7:	c7 44 24 04 94 2f 02 	movl   $0x22f94,0x4(%esp)
    1eee:	00 
    1eef:	c7 04 24 9b 2f 02 00 	movl   $0x22f9b,(%esp)
    1ef6:	e8 65 eb 01 00       	call   20a60 <assert_abort>
    1efb:	90                   	nop
    1efc:	8d 74 26 00          	lea    0x0(%esi,%eiz,1),%esi

00001f00 <deinit_grid>:
    1f00:	55                   	push   %ebp
    1f01:	89 e5                	mov    %esp,%ebp
    1f03:	53                   	push   %ebx
    1f04:	83 ec 14             	sub    $0x14,%esp
    1f07:	8b 5d 08             	mov    0x8(%ebp),%ebx
    1f0a:	89 1c 24             	mov    %ebx,(%esp)
    1f0d:	e8 7e 07 00 00       	call   2690 <widget_deinit>
    1f12:	8b 43 64             	mov    0x64(%ebx),%eax
    1f15:	89 45 08             	mov    %eax,0x8(%ebp)
    1f18:	83 c4 14             	add    $0x14,%esp
    1f1b:	5b                   	pop    %ebx
    1f1c:	5d                   	pop    %ebp
    1f1d:	e9 6e 43 01 00       	jmp    16290 <free>
    1f22:	8d b4 26 00 00 00 00 	lea    0x0(%esi,%eiz,1),%esi
    1f29:	8d bc 27 00 00 00 00 	lea    0x0(%edi,%eiz,1),%edi

00001f30 <init_grid>:
    1f30:	55                   	push   %ebp
    1f31:	89 e5                	mov    %esp,%ebp
    1f33:	57                   	push   %edi
    1f34:	56                   	push   %esi
    1f35:	53                   	push   %ebx
    1f36:	83 ec 1c             	sub    $0x1c,%esp
    1f39:	8b 75 14             	mov    0x14(%ebp),%esi
    1f3c:	8b 5d 08             	mov    0x8(%ebp),%ebx
    1f3f:	85 f6                	test   %esi,%esi
    1f41:	75 0d                	jne    1f50 <init_grid+0x20>
    1f43:	83 c4 1c             	add    $0x1c,%esp
    1f46:	31 c0                	xor    %eax,%eax
    1f48:	5b                   	pop    %ebx
    1f49:	5e                   	pop    %esi
    1f4a:	5f                   	pop    %edi
    1f4b:	5d                   	pop    %ebp
    1f4c:	c3                   	ret    
    1f4d:	8d 76 00             	lea    0x0(%esi),%esi
    1f50:	8b 45 10             	mov    0x10(%ebp),%eax
    1f53:	85 c0                	test   %eax,%eax
    1f55:	74 ec                	je     1f43 <init_grid+0x13>
    1f57:	8b 7d 10             	mov    0x10(%ebp),%edi
    1f5a:	c7 44 24 04 0c 00 00 	movl   $0xc,0x4(%esp)
    1f61:	00 
    1f62:	0f af fe             	imul   %esi,%edi
    1f65:	89 3c 24             	mov    %edi,(%esp)
    1f68:	e8 b3 41 01 00       	call   16120 <calloc>
    1f6d:	89 43 64             	mov    %eax,0x64(%ebx)
    1f70:	85 c0                	test   %eax,%eax
    1f72:	74 cf                	je     1f43 <init_grid+0x13>
    1f74:	8d 14 7f             	lea    (%edi,%edi,2),%edx
    1f77:	c7 44 24 04 00 00 00 	movl   $0x0,0x4(%esp)
    1f7e:	00 
    1f7f:	c1 e2 02             	shl    $0x2,%edx
    1f82:	89 04 24             	mov    %eax,(%esp)
    1f85:	89 54 24 08          	mov    %edx,0x8(%esp)
    1f89:	e8 72 70 00 00       	call   9000 <memset>
    1f8e:	8b 45 0c             	mov    0xc(%ebp),%eax
    1f91:	89 44 24 04          	mov    %eax,0x4(%esp)
    1f95:	89 1c 24             	mov    %ebx,(%esp)
    1f98:	e8 33 06 00 00       	call   25d0 <widget_init>
    1f9d:	8b 45 18             	mov    0x18(%ebp),%eax
    1fa0:	89 43 58             	mov    %eax,0x58(%ebx)
    1fa3:	8b 45 10             	mov    0x10(%ebp),%eax
    1fa6:	89 43 5c             	mov    %eax,0x5c(%ebx)
    1fa9:	c7 43 40 10 18 00 00 	movl   $0x1810,0x40(%ebx)
    1fb0:	c7 43 44 a0 14 00 00 	movl   $0x14a0,0x44(%ebx)
    1fb7:	c7 43 48 40 18 00 00 	movl   $0x1840,0x48(%ebx)
    1fbe:	c7 43 4c a0 15 00 00 	movl   $0x15a0,0x4c(%ebx)
    1fc5:	c7 43 50 b0 14 00 00 	movl   $0x14b0,0x50(%ebx)
    1fcc:	c7 43 54 c0 14 00 00 	movl   $0x14c0,0x54(%ebx)
    1fd3:	c7 43 68 50 16 00 00 	movl   $0x1650,0x68(%ebx)
    1fda:	89 73 60             	mov    %esi,0x60(%ebx)
    1fdd:	83 c4 1c             	add    $0x1c,%esp
    1fe0:	b0 01                	mov    $0x1,%al
    1fe2:	5b                   	pop    %ebx
    1fe3:	5e                   	pop    %esi
    1fe4:	5f                   	pop    %edi
    1fe5:	5d                   	pop    %ebp
    1fe6:	c3                   	ret    
    1fe7:	89 f6                	mov    %esi,%esi
    1fe9:	8d bc 27 00 00 00 00 	lea    0x0(%edi,%eiz,1),%edi

00001ff0 <create_grid>:
    1ff0:	55                   	push   %ebp
    1ff1:	89 e5                	mov    %esp,%ebp
    1ff3:	57                   	push   %edi
    1ff4:	56                   	push   %esi
    1ff5:	53                   	push   %ebx
    1ff6:	83 ec 1c             	sub    $0x1c,%esp
    1ff9:	8b 75 10             	mov    0x10(%ebp),%esi
    1ffc:	c7 04 24 6c 00 00 00 	movl   $0x6c,(%esp)
    2003:	e8 78 41 01 00       	call   16180 <malloc>
    2008:	89 c3                	mov    %eax,%ebx
    200a:	85 c0                	test   %eax,%eax
    200c:	74 0e                	je     201c <create_grid+0x2c>
    200e:	85 f6                	test   %esi,%esi
    2010:	75 16                	jne    2028 <create_grid+0x38>
    2012:	89 1c 24             	mov    %ebx,(%esp)
    2015:	31 db                	xor    %ebx,%ebx
    2017:	e8 74 42 01 00       	call   16290 <free>
    201c:	83 c4 1c             	add    $0x1c,%esp
    201f:	89 d8                	mov    %ebx,%eax
    2021:	5b                   	pop    %ebx
    2022:	5e                   	pop    %esi
    2023:	5f                   	pop    %edi
    2024:	5d                   	pop    %ebp
    2025:	c3                   	ret    
    2026:	66 90                	xchg   %ax,%ax
    2028:	8b 45 0c             	mov    0xc(%ebp),%eax
    202b:	85 c0                	test   %eax,%eax
    202d:	74 e3                	je     2012 <create_grid+0x22>
    202f:	8b 7d 0c             	mov    0xc(%ebp),%edi
    2032:	c7 44 24 04 0c 00 00 	movl   $0xc,0x4(%esp)
    2039:	00 
    203a:	0f af fe             	imul   %esi,%edi
    203d:	89 3c 24             	mov    %edi,(%esp)
    2040:	e8 db 40 01 00       	call   16120 <calloc>
    2045:	89 43 64             	mov    %eax,0x64(%ebx)
    2048:	85 c0                	test   %eax,%eax
    204a:	74 c6                	je     2012 <create_grid+0x22>
    204c:	8d 14 7f             	lea    (%edi,%edi,2),%edx
    204f:	c7 44 24 04 00 00 00 	movl   $0x0,0x4(%esp)
    2056:	00 
    2057:	c1 e2 02             	shl    $0x2,%edx
    205a:	89 04 24             	mov    %eax,(%esp)
    205d:	89 54 24 08          	mov    %edx,0x8(%esp)
    2061:	e8 9a 6f 00 00       	call   9000 <memset>
    2066:	8b 45 08             	mov    0x8(%ebp),%eax
    2069:	89 44 24 04          	mov    %eax,0x4(%esp)
    206d:	89 1c 24             	mov    %ebx,(%esp)
    2070:	e8 5b 05 00 00       	call   25d0 <widget_init>
    2075:	8b 45 14             	mov    0x14(%ebp),%eax
    2078:	89 43 58             	mov    %eax,0x58(%ebx)
    207b:	8b 45 0c             	mov    0xc(%ebp),%eax
    207e:	89 43 5c             	mov    %eax,0x5c(%ebx)
    2081:	c7 43 40 10 18 00 00 	movl   $0x1810,0x40(%ebx)
    2088:	c7 43 44 a0 14 00 00 	movl   $0x14a0,0x44(%ebx)
    208f:	c7 43 48 40 18 00 00 	movl   $0x1840,0x48(%ebx)
    2096:	c7 43 4c a0 15 00 00 	movl   $0x15a0,0x4c(%ebx)
    209d:	c7 43 50 b0 14 00 00 	movl   $0x14b0,0x50(%ebx)
    20a4:	c7 43 54 c0 14 00 00 	movl   $0x14c0,0x54(%ebx)
    20ab:	c7 43 68 50 16 00 00 	movl   $0x1650,0x68(%ebx)
    20b2:	89 73 60             	mov    %esi,0x60(%ebx)
    20b5:	83 c4 1c             	add    $0x1c,%esp
    20b8:	89 d8                	mov    %ebx,%eax
    20ba:	5b                   	pop    %ebx
    20bb:	5e                   	pop    %esi
    20bc:	5f                   	pop    %edi
    20bd:	5d                   	pop    %ebp
    20be:	c3                   	ret    
    20bf:	90                   	nop

000020c0 <label_reconfigure>:
    20c0:	55                   	push   %ebp
    20c1:	89 e5                	mov    %esp,%ebp
    20c3:	5d                   	pop    %ebp
    20c4:	c3                   	ret    
    20c5:	8d 74 26 00          	lea    0x0(%esi,%eiz,1),%esi
    20c9:	8d bc 27 00 00 00 00 	lea    0x0(%edi,%eiz,1),%edi

000020d0 <label_handle_keyboard_event>:
    20d0:	55                   	push   %ebp
    20d1:	89 e5                	mov    %esp,%ebp
    20d3:	5d                   	pop    %ebp
    20d4:	c3                   	ret    
    20d5:	8d 74 26 00          	lea    0x0(%esi,%eiz,1),%esi
    20d9:	8d bc 27 00 00 00 00 	lea    0x0(%edi,%eiz,1),%edi

000020e0 <label_handle_position_event>:
    20e0:	55                   	push   %ebp
    20e1:	89 e5                	mov    %esp,%ebp
    20e3:	5d                   	pop    %ebp
    20e4:	c3                   	ret    
    20e5:	8d 74 26 00          	lea    0x0(%esi,%eiz,1),%esi
    20e9:	8d bc 27 00 00 00 00 	lea    0x0(%edi,%eiz,1),%edi

000020f0 <on_rewrite>:
    20f0:	55                   	push   %ebp
    20f1:	89 e5                	mov    %esp,%ebp
    20f3:	53                   	push   %ebx
    20f4:	83 ec 24             	sub    $0x24,%esp
    20f7:	8b 45 0c             	mov    0xc(%ebp),%eax
    20fa:	8b 5d 08             	mov    0x8(%ebp),%ebx
    20fd:	85 c0                	test   %eax,%eax
    20ff:	74 51                	je     2152 <on_rewrite+0x62>
    2101:	89 04 24             	mov    %eax,(%esp)
    2104:	e8 27 9e 00 00       	call   bf30 <str_dup>
    2109:	8d 55 f4             	lea    -0xc(%ebp),%edx
    210c:	89 83 20 01 00 00    	mov    %eax,0x120(%ebx)
    2112:	89 54 24 0c          	mov    %edx,0xc(%esp)
    2116:	89 44 24 04          	mov    %eax,0x4(%esp)
    211a:	8d 55 f0             	lea    -0x10(%ebp),%edx
    211d:	8d 83 24 01 00 00    	lea    0x124(%ebx),%eax
    2123:	89 54 24 08          	mov    %edx,0x8(%esp)
    2127:	89 04 24             	mov    %eax,(%esp)
    212a:	e8 f1 1f 00 00       	call   4120 <font_get_box>
    212f:	8b 45 f4             	mov    -0xc(%ebp),%eax
    2132:	83 c0 04             	add    $0x4,%eax
    2135:	8b 55 f0             	mov    -0x10(%ebp),%edx
    2138:	83 c2 04             	add    $0x4,%edx
    213b:	89 43 2c             	mov    %eax,0x2c(%ebx)
    213e:	89 43 34             	mov    %eax,0x34(%ebx)
    2141:	8b 43 14             	mov    0x14(%ebx),%eax
    2144:	89 53 28             	mov    %edx,0x28(%ebx)
    2147:	89 53 30             	mov    %edx,0x30(%ebx)
    214a:	89 04 24             	mov    %eax,(%esp)
    214d:	e8 2e 18 00 00       	call   3980 <window_refresh>
    2152:	83 c4 24             	add    $0x24,%esp
    2155:	5b                   	pop    %ebx
    2156:	5d                   	pop    %ebp
    2157:	c3                   	ret    
    2158:	90                   	nop
    2159:	8d b4 26 00 00 00 00 	lea    0x0(%esi,%eiz,1),%esi

00002160 <paint_internal>:
    2160:	55                   	push   %ebp
    2161:	89 e5                	mov    %esp,%ebp
    2163:	57                   	push   %edi
    2164:	56                   	push   %esi
    2165:	53                   	push   %ebx
    2166:	83 ec 7c             	sub    $0x7c,%esp
    2169:	89 c3                	mov    %eax,%ebx
    216b:	8b 40 14             	mov    0x14(%eax),%eax
    216e:	89 04 24             	mov    %eax,(%esp)
    2171:	e8 fa 18 00 00       	call   3a70 <window_claim>
    2176:	85 c0                	test   %eax,%eax
    2178:	0f 84 f2 00 00 00    	je     2270 <paint_internal+0x110>
    217e:	8d 75 b0             	lea    -0x50(%ebp),%esi
    2181:	89 44 24 04          	mov    %eax,0x4(%esp)
    2185:	89 34 24             	mov    %esi,(%esp)
    2188:	8d bb 24 01 00 00    	lea    0x124(%ebx),%edi
    218e:	e8 4d 19 00 00       	call   3ae0 <drawctx_init>
    2193:	8d 43 58             	lea    0x58(%ebx),%eax
    2196:	89 44 24 04          	mov    %eax,0x4(%esp)
    219a:	89 34 24             	mov    %esi,(%esp)
    219d:	e8 2e 1b 00 00       	call   3cd0 <drawctx_set_source>
    21a2:	8b 43 24             	mov    0x24(%ebx),%eax
    21a5:	89 44 24 10          	mov    %eax,0x10(%esp)
    21a9:	8b 43 20             	mov    0x20(%ebx),%eax
    21ac:	89 44 24 0c          	mov    %eax,0xc(%esp)
    21b0:	8b 43 1c             	mov    0x1c(%ebx),%eax
    21b3:	89 44 24 08          	mov    %eax,0x8(%esp)
    21b7:	8b 43 18             	mov    0x18(%ebx),%eax
    21ba:	89 44 24 04          	mov    %eax,0x4(%esp)
    21be:	89 34 24             	mov    %esi,(%esp)
    21c1:	e8 2a 1b 00 00       	call   3cf0 <drawctx_transfer>
    21c6:	8d 45 ac             	lea    -0x54(%ebp),%eax
    21c9:	89 44 24 0c          	mov    %eax,0xc(%esp)
    21cd:	8d 45 a8             	lea    -0x58(%ebp),%eax
    21d0:	89 44 24 08          	mov    %eax,0x8(%esp)
    21d4:	8b 83 20 01 00 00    	mov    0x120(%ebx),%eax
    21da:	89 44 24 04          	mov    %eax,0x4(%esp)
    21de:	89 3c 24             	mov    %edi,(%esp)
    21e1:	e8 3a 1f 00 00       	call   4120 <font_get_box>
    21e6:	8b 45 a8             	mov    -0x58(%ebp),%eax
    21e9:	39 43 20             	cmp    %eax,0x20(%ebx)
    21ec:	72 08                	jb     21f6 <paint_internal+0x96>
    21ee:	8b 45 ac             	mov    -0x54(%ebp),%eax
    21f1:	39 43 24             	cmp    %eax,0x24(%ebx)
    21f4:	73 1a                	jae    2210 <paint_internal+0xb0>
    21f6:	8b 43 14             	mov    0x14(%ebx),%eax
    21f9:	89 04 24             	mov    %eax,(%esp)
    21fc:	e8 9f 18 00 00       	call   3aa0 <window_yield>
    2201:	83 c4 7c             	add    $0x7c,%esp
    2204:	5b                   	pop    %ebx
    2205:	5e                   	pop    %esi
    2206:	5f                   	pop    %edi
    2207:	5d                   	pop    %ebp
    2208:	c3                   	ret    
    2209:	8d b4 26 00 00 00 00 	lea    0x0(%esi,%eiz,1),%esi
    2210:	8d 83 bc 00 00 00    	lea    0xbc(%ebx),%eax
    2216:	89 34 24             	mov    %esi,(%esp)
    2219:	89 44 24 04          	mov    %eax,0x4(%esp)
    221d:	e8 ae 1a 00 00       	call   3cd0 <drawctx_set_source>
    2222:	89 7c 24 04          	mov    %edi,0x4(%esp)
    2226:	89 34 24             	mov    %esi,(%esp)
    2229:	e8 b2 1a 00 00       	call   3ce0 <drawctx_set_font>
    222e:	8b 55 a8             	mov    -0x58(%ebp),%edx
    2231:	8b 43 20             	mov    0x20(%ebx),%eax
    2234:	8b 7d ac             	mov    -0x54(%ebp),%edi
    2237:	29 d0                	sub    %edx,%eax
    2239:	8b 53 24             	mov    0x24(%ebx),%edx
    223c:	d1 e8                	shr    %eax
    223e:	8b 4b 18             	mov    0x18(%ebx),%ecx
    2241:	29 fa                	sub    %edi,%edx
    2243:	01 c8                	add    %ecx,%eax
    2245:	d1 ea                	shr    %edx
    2247:	8b 4b 1c             	mov    0x1c(%ebx),%ecx
    224a:	01 ca                	add    %ecx,%edx
    224c:	8b 8b 20 01 00 00    	mov    0x120(%ebx),%ecx
    2252:	85 c9                	test   %ecx,%ecx
    2254:	74 a0                	je     21f6 <paint_internal+0x96>
    2256:	89 54 24 0c          	mov    %edx,0xc(%esp)
    225a:	89 44 24 08          	mov    %eax,0x8(%esp)
    225e:	89 4c 24 04          	mov    %ecx,0x4(%esp)
    2262:	89 34 24             	mov    %esi,(%esp)
    2265:	e8 36 1d 00 00       	call   3fa0 <drawctx_print>
    226a:	eb 8a                	jmp    21f6 <paint_internal+0x96>
    226c:	8d 74 26 00          	lea    0x0(%esi,%eiz,1),%esi
    2270:	8b 53 14             	mov    0x14(%ebx),%edx
    2273:	89 45 a4             	mov    %eax,-0x5c(%ebp)
    2276:	89 14 24             	mov    %edx,(%esp)
    2279:	e8 22 18 00 00       	call   3aa0 <window_yield>
    227e:	8b 45 a4             	mov    -0x5c(%ebp),%eax
    2281:	e9 f8 fe ff ff       	jmp    217e <paint_internal+0x1e>
    2286:	8d 76 00             	lea    0x0(%esi),%esi
    2289:	8d bc 27 00 00 00 00 	lea    0x0(%edi,%eiz,1),%edi

00002290 <label_repaint>:
    2290:	55                   	push   %ebp
    2291:	89 e5                	mov    %esp,%ebp
    2293:	53                   	push   %ebx
    2294:	53                   	push   %ebx
    2295:	8b 5d 08             	mov    0x8(%ebp),%ebx
    2298:	89 d8                	mov    %ebx,%eax
    229a:	e8 c1 fe ff ff       	call   2160 <paint_internal>
    229f:	8b 43 14             	mov    0x14(%ebx),%eax
    22a2:	89 45 08             	mov    %eax,0x8(%ebp)
    22a5:	58                   	pop    %eax
    22a6:	5b                   	pop    %ebx
    22a7:	5d                   	pop    %ebp
    22a8:	e9 13 17 00 00       	jmp    39c0 <window_damage>
    22ad:	8d 76 00             	lea    0x0(%esi),%esi

000022b0 <label_rearrange>:
    22b0:	55                   	push   %ebp
    22b1:	89 e5                	mov    %esp,%ebp
    22b3:	53                   	push   %ebx
    22b4:	83 ec 24             	sub    $0x24,%esp
    22b7:	8b 45 18             	mov    0x18(%ebp),%eax
    22ba:	8b 5d 08             	mov    0x8(%ebp),%ebx
    22bd:	89 44 24 10          	mov    %eax,0x10(%esp)
    22c1:	8b 45 14             	mov    0x14(%ebp),%eax
    22c4:	89 44 24 0c          	mov    %eax,0xc(%esp)
    22c8:	8b 45 10             	mov    0x10(%ebp),%eax
    22cb:	89 44 24 08          	mov    %eax,0x8(%esp)
    22cf:	8b 45 0c             	mov    0xc(%ebp),%eax
    22d2:	89 44 24 04          	mov    %eax,0x4(%esp)
    22d6:	89 1c 24             	mov    %ebx,(%esp)
    22d9:	e8 92 03 00 00       	call   2670 <widget_modify>
    22de:	83 c4 24             	add    $0x24,%esp
    22e1:	89 d8                	mov    %ebx,%eax
    22e3:	5b                   	pop    %ebx
    22e4:	5d                   	pop    %ebp
    22e5:	e9 76 fe ff ff       	jmp    2160 <paint_internal>
    22ea:	8d b6 00 00 00 00    	lea    0x0(%esi),%esi

000022f0 <label_destroy>:
    22f0:	55                   	push   %ebp
    22f1:	89 e5                	mov    %esp,%ebp
    22f3:	53                   	push   %ebx
    22f4:	83 ec 14             	sub    $0x14,%esp
    22f7:	8b 5d 08             	mov    0x8(%ebp),%ebx
    22fa:	89 1c 24             	mov    %ebx,(%esp)
    22fd:	e8 8e 03 00 00       	call   2690 <widget_deinit>
    2302:	8b 83 20 01 00 00    	mov    0x120(%ebx),%eax
    2308:	89 04 24             	mov    %eax,(%esp)
    230b:	e8 80 3f 01 00       	call   16290 <free>
    2310:	8d 83 24 01 00 00    	lea    0x124(%ebx),%eax
    2316:	89 04 24             	mov    %eax,(%esp)
    2319:	e8 92 1d 00 00       	call   40b0 <font_release>
    231e:	89 5d 08             	mov    %ebx,0x8(%ebp)
    2321:	83 c4 14             	add    $0x14,%esp
    2324:	5b                   	pop    %ebx
    2325:	5d                   	pop    %ebp
    2326:	e9 65 3f 01 00       	jmp    16290 <free>
    232b:	90                   	nop
    232c:	8d 74 26 00          	lea    0x0(%esi,%eiz,1),%esi

00002330 <deinit_label>:
    2330:	55                   	push   %ebp
    2331:	89 e5                	mov    %esp,%ebp
    2333:	53                   	push   %ebx
    2334:	83 ec 14             	sub    $0x14,%esp
    2337:	8b 5d 08             	mov    0x8(%ebp),%ebx
    233a:	89 1c 24             	mov    %ebx,(%esp)
    233d:	e8 4e 03 00 00       	call   2690 <widget_deinit>
    2342:	8b 83 20 01 00 00    	mov    0x120(%ebx),%eax
    2348:	89 04 24             	mov    %eax,(%esp)
    234b:	81 c3 24 01 00 00    	add    $0x124,%ebx
    2351:	e8 3a 3f 01 00       	call   16290 <free>
    2356:	89 5d 08             	mov    %ebx,0x8(%ebp)
    2359:	83 c4 14             	add    $0x14,%esp
    235c:	5b                   	pop    %ebx
    235d:	5d                   	pop    %ebp
    235e:	e9 4d 1d 00 00       	jmp    40b0 <font_release>
    2363:	8d b6 00 00 00 00    	lea    0x0(%esi),%esi
    2369:	8d bc 27 00 00 00 00 	lea    0x0(%edi,%eiz,1),%edi

00002370 <init_label>:
    2370:	55                   	push   %ebp
    2371:	89 e5                	mov    %esp,%ebp
    2373:	57                   	push   %edi
    2374:	56                   	push   %esi
    2375:	53                   	push   %ebx
    2376:	83 ec 2c             	sub    $0x2c,%esp
    2379:	8b 5d 08             	mov    0x8(%ebp),%ebx
    237c:	8b 45 0c             	mov    0xc(%ebp),%eax
    237f:	89 44 24 04          	mov    %eax,0x4(%esp)
    2383:	89 1c 24             	mov    %ebx,(%esp)
    2386:	8d 73 58             	lea    0x58(%ebx),%esi
    2389:	8b 7d 14             	mov    0x14(%ebp),%edi
    238c:	e8 3f 02 00 00       	call   25d0 <widget_init>
    2391:	c7 43 40 f0 22 00 00 	movl   $0x22f0,0x40(%ebx)
    2398:	c7 43 44 c0 20 00 00 	movl   $0x20c0,0x44(%ebx)
    239f:	c7 43 48 b0 22 00 00 	movl   $0x22b0,0x48(%ebx)
    23a6:	c7 43 4c 90 22 00 00 	movl   $0x2290,0x4c(%ebx)
    23ad:	c7 43 50 d0 20 00 00 	movl   $0x20d0,0x50(%ebx)
    23b4:	c7 43 54 e0 20 00 00 	movl   $0x20e0,0x54(%ebx)
    23bb:	89 34 24             	mov    %esi,(%esp)
    23be:	e8 6d 20 00 00       	call   4430 <source_init>
    23c3:	8b 55 18             	mov    0x18(%ebp),%edx
    23c6:	89 54 24 04          	mov    %edx,0x4(%esp)
    23ca:	89 34 24             	mov    %esi,(%esp)
    23cd:	8d b3 bc 00 00 00    	lea    0xbc(%ebx),%esi
    23d3:	e8 e8 20 00 00       	call   44c0 <source_set_color>
    23d8:	89 34 24             	mov    %esi,(%esp)
    23db:	e8 50 20 00 00       	call   4430 <source_init>
    23e0:	8b 55 1c             	mov    0x1c(%ebp),%edx
    23e3:	89 54 24 04          	mov    %edx,0x4(%esp)
    23e7:	89 34 24             	mov    %esi,(%esp)
    23ea:	e8 d1 20 00 00       	call   44c0 <source_set_color>
    23ef:	8b 45 10             	mov    0x10(%ebp),%eax
    23f2:	85 c0                	test   %eax,%eax
    23f4:	0f 84 86 00 00 00    	je     2480 <init_label+0x110>
    23fa:	8b 45 10             	mov    0x10(%ebp),%eax
    23fd:	89 04 24             	mov    %eax,(%esp)
    2400:	e8 2b 9b 00 00       	call   bf30 <str_dup>
    2405:	89 83 20 01 00 00    	mov    %eax,0x120(%ebx)
    240b:	8d b3 24 01 00 00    	lea    0x124(%ebx),%esi
    2411:	81 e7 ff ff 00 00    	and    $0xffff,%edi
    2417:	89 7c 24 0c          	mov    %edi,0xc(%esp)
    241b:	89 34 24             	mov    %esi,(%esp)
    241e:	c7 44 24 08 00 00 00 	movl   $0x0,0x8(%esp)
    2425:	00 
    2426:	c7 44 24 04 00 00 00 	movl   $0x0,0x4(%esp)
    242d:	00 
    242e:	e8 bd 1b 00 00       	call   3ff0 <font_init>
    2433:	8d 45 e4             	lea    -0x1c(%ebp),%eax
    2436:	89 44 24 0c          	mov    %eax,0xc(%esp)
    243a:	8d 45 e0             	lea    -0x20(%ebp),%eax
    243d:	89 44 24 08          	mov    %eax,0x8(%esp)
    2441:	8b 83 20 01 00 00    	mov    0x120(%ebx),%eax
    2447:	89 34 24             	mov    %esi,(%esp)
    244a:	89 44 24 04          	mov    %eax,0x4(%esp)
    244e:	e8 cd 1c 00 00       	call   4120 <font_get_box>
    2453:	8b 55 e0             	mov    -0x20(%ebp),%edx
    2456:	8b 45 e4             	mov    -0x1c(%ebp),%eax
    2459:	83 c2 04             	add    $0x4,%edx
    245c:	83 c0 04             	add    $0x4,%eax
    245f:	89 53 28             	mov    %edx,0x28(%ebx)
    2462:	89 43 2c             	mov    %eax,0x2c(%ebx)
    2465:	89 43 34             	mov    %eax,0x34(%ebx)
    2468:	89 53 30             	mov    %edx,0x30(%ebx)
    246b:	c7 83 34 01 00 00 f0 	movl   $0x20f0,0x134(%ebx)
    2472:	20 00 00 
    2475:	83 c4 2c             	add    $0x2c,%esp
    2478:	b0 01                	mov    $0x1,%al
    247a:	5b                   	pop    %ebx
    247b:	5e                   	pop    %esi
    247c:	5f                   	pop    %edi
    247d:	5d                   	pop    %ebp
    247e:	c3                   	ret    
    247f:	90                   	nop
    2480:	c7 83 20 01 00 00 00 	movl   $0x0,0x120(%ebx)
    2487:	00 00 00 
    248a:	e9 7c ff ff ff       	jmp    240b <init_label+0x9b>
    248f:	90                   	nop

00002490 <create_label>:
    2490:	55                   	push   %ebp
    2491:	89 e5                	mov    %esp,%ebp
    2493:	57                   	push   %edi
    2494:	56                   	push   %esi
    2495:	53                   	push   %ebx
    2496:	83 ec 2c             	sub    $0x2c,%esp
    2499:	8b 7d 10             	mov    0x10(%ebp),%edi
    249c:	c7 04 24 38 01 00 00 	movl   $0x138,(%esp)
    24a3:	e8 d8 3c 01 00       	call   16180 <malloc>
    24a8:	89 c3                	mov    %eax,%ebx
    24aa:	85 c0                	test   %eax,%eax
    24ac:	0f 84 f6 00 00 00    	je     25a8 <create_label+0x118>
    24b2:	8b 45 08             	mov    0x8(%ebp),%eax
    24b5:	8d 73 58             	lea    0x58(%ebx),%esi
    24b8:	89 44 24 04          	mov    %eax,0x4(%esp)
    24bc:	89 1c 24             	mov    %ebx,(%esp)
    24bf:	e8 0c 01 00 00       	call   25d0 <widget_init>
    24c4:	89 34 24             	mov    %esi,(%esp)
    24c7:	c7 43 40 f0 22 00 00 	movl   $0x22f0,0x40(%ebx)
    24ce:	c7 43 44 c0 20 00 00 	movl   $0x20c0,0x44(%ebx)
    24d5:	c7 43 48 b0 22 00 00 	movl   $0x22b0,0x48(%ebx)
    24dc:	c7 43 4c 90 22 00 00 	movl   $0x2290,0x4c(%ebx)
    24e3:	c7 43 50 d0 20 00 00 	movl   $0x20d0,0x50(%ebx)
    24ea:	c7 43 54 e0 20 00 00 	movl   $0x20e0,0x54(%ebx)
    24f1:	e8 3a 1f 00 00       	call   4430 <source_init>
    24f6:	8b 55 14             	mov    0x14(%ebp),%edx
    24f9:	89 54 24 04          	mov    %edx,0x4(%esp)
    24fd:	89 34 24             	mov    %esi,(%esp)
    2500:	8d b3 bc 00 00 00    	lea    0xbc(%ebx),%esi
    2506:	e8 b5 1f 00 00       	call   44c0 <source_set_color>
    250b:	89 34 24             	mov    %esi,(%esp)
    250e:	e8 1d 1f 00 00       	call   4430 <source_init>
    2513:	8b 55 18             	mov    0x18(%ebp),%edx
    2516:	89 54 24 04          	mov    %edx,0x4(%esp)
    251a:	89 34 24             	mov    %esi,(%esp)
    251d:	e8 9e 1f 00 00       	call   44c0 <source_set_color>
    2522:	8b 45 0c             	mov    0xc(%ebp),%eax
    2525:	85 c0                	test   %eax,%eax
    2527:	0f 84 8b 00 00 00    	je     25b8 <create_label+0x128>
    252d:	8b 45 0c             	mov    0xc(%ebp),%eax
    2530:	89 04 24             	mov    %eax,(%esp)
    2533:	e8 f8 99 00 00       	call   bf30 <str_dup>
    2538:	89 83 20 01 00 00    	mov    %eax,0x120(%ebx)
    253e:	8d b3 24 01 00 00    	lea    0x124(%ebx),%esi
    2544:	81 e7 ff ff 00 00    	and    $0xffff,%edi
    254a:	89 7c 24 0c          	mov    %edi,0xc(%esp)
    254e:	c7 44 24 08 00 00 00 	movl   $0x0,0x8(%esp)
    2555:	00 
    2556:	c7 44 24 04 00 00 00 	movl   $0x0,0x4(%esp)
    255d:	00 
    255e:	89 34 24             	mov    %esi,(%esp)
    2561:	e8 8a 1a 00 00       	call   3ff0 <font_init>
    2566:	8d 45 e4             	lea    -0x1c(%ebp),%eax
    2569:	89 44 24 0c          	mov    %eax,0xc(%esp)
    256d:	8d 45 e0             	lea    -0x20(%ebp),%eax
    2570:	89 44 24 08          	mov    %eax,0x8(%esp)
    2574:	8b 83 20 01 00 00    	mov    0x120(%ebx),%eax
    257a:	89 44 24 04          	mov    %eax,0x4(%esp)
    257e:	89 34 24             	mov    %esi,(%esp)
    2581:	e8 9a 1b 00 00       	call   4120 <font_get_box>
    2586:	8b 55 e0             	mov    -0x20(%ebp),%edx
    2589:	8b 45 e4             	mov    -0x1c(%ebp),%eax
    258c:	83 c2 04             	add    $0x4,%edx
    258f:	83 c0 04             	add    $0x4,%eax
    2592:	89 53 28             	mov    %edx,0x28(%ebx)
    2595:	89 43 2c             	mov    %eax,0x2c(%ebx)
    2598:	89 53 30             	mov    %edx,0x30(%ebx)
    259b:	89 43 34             	mov    %eax,0x34(%ebx)
    259e:	c7 83 34 01 00 00 f0 	movl   $0x20f0,0x134(%ebx)
    25a5:	20 00 00 
    25a8:	83 c4 2c             	add    $0x2c,%esp
    25ab:	89 d8                	mov    %ebx,%eax
    25ad:	5b                   	pop    %ebx
    25ae:	5e                   	pop    %esi
    25af:	5f                   	pop    %edi
    25b0:	5d                   	pop    %ebp
    25b1:	c3                   	ret    
    25b2:	8d b6 00 00 00 00    	lea    0x0(%esi),%esi
    25b8:	c7 83 20 01 00 00 00 	movl   $0x0,0x120(%ebx)
    25bf:	00 00 00 
    25c2:	e9 77 ff ff ff       	jmp    253e <create_label+0xae>
    25c7:	66 90                	xchg   %ax,%ax
    25c9:	66 90                	xchg   %ax,%ax
    25cb:	66 90                	xchg   %ax,%ax
    25cd:	66 90                	xchg   %ax,%ax
    25cf:	90                   	nop

000025d0 <widget_init>:
    25d0:	55                   	push   %ebp
    25d1:	89 e5                	mov    %esp,%ebp
    25d3:	8b 45 08             	mov    0x8(%ebp),%eax
    25d6:	8b 55 0c             	mov    0xc(%ebp),%edx
    25d9:	85 d2                	test   %edx,%edx
    25db:	8d 48 0c             	lea    0xc(%eax),%ecx
    25de:	c7 00 00 00 00 00    	movl   $0x0,(%eax)
    25e4:	c7 40 04 00 00 00 00 	movl   $0x0,0x4(%eax)
    25eb:	89 48 0c             	mov    %ecx,0xc(%eax)
    25ee:	89 48 10             	mov    %ecx,0x10(%eax)
    25f1:	74 65                	je     2658 <widget_init+0x88>
    25f3:	8d 4a 0c             	lea    0xc(%edx),%ecx
    25f6:	89 50 08             	mov    %edx,0x8(%eax)
    25f9:	89 48 04             	mov    %ecx,0x4(%eax)
    25fc:	8b 4a 0c             	mov    0xc(%edx),%ecx
    25ff:	89 08                	mov    %ecx,(%eax)
    2601:	8b 4a 0c             	mov    0xc(%edx),%ecx
    2604:	89 42 0c             	mov    %eax,0xc(%edx)
    2607:	8b 52 14             	mov    0x14(%edx),%edx
    260a:	89 41 04             	mov    %eax,0x4(%ecx)
    260d:	89 50 14             	mov    %edx,0x14(%eax)
    2610:	c7 40 18 00 00 00 00 	movl   $0x0,0x18(%eax)
    2617:	c7 40 1c 00 00 00 00 	movl   $0x0,0x1c(%eax)
    261e:	c7 40 20 00 00 00 00 	movl   $0x0,0x20(%eax)
    2625:	c7 40 24 00 00 00 00 	movl   $0x0,0x24(%eax)
    262c:	c7 40 28 00 00 00 00 	movl   $0x0,0x28(%eax)
    2633:	c7 40 2c 00 00 00 00 	movl   $0x0,0x2c(%eax)
    263a:	c7 40 30 00 00 00 00 	movl   $0x0,0x30(%eax)
    2641:	c7 40 34 00 00 00 00 	movl   $0x0,0x34(%eax)
    2648:	c7 40 38 ff ff ff ff 	movl   $0xffffffff,0x38(%eax)
    264f:	c7 40 3c ff ff ff ff 	movl   $0xffffffff,0x3c(%eax)
    2656:	5d                   	pop    %ebp
    2657:	c3                   	ret    
    2658:	c7 40 08 00 00 00 00 	movl   $0x0,0x8(%eax)
    265f:	c7 40 14 00 00 00 00 	movl   $0x0,0x14(%eax)
    2666:	eb a8                	jmp    2610 <widget_init+0x40>
    2668:	90                   	nop
    2669:	8d b4 26 00 00 00 00 	lea    0x0(%esi,%eiz,1),%esi

00002670 <widget_modify>:
    2670:	55                   	push   %ebp
    2671:	89 e5                	mov    %esp,%ebp
    2673:	8b 45 08             	mov    0x8(%ebp),%eax
    2676:	8b 55 0c             	mov    0xc(%ebp),%edx
    2679:	89 50 18             	mov    %edx,0x18(%eax)
    267c:	8b 55 10             	mov    0x10(%ebp),%edx
    267f:	89 50 1c             	mov    %edx,0x1c(%eax)
    2682:	8b 55 14             	mov    0x14(%ebp),%edx
    2685:	89 50 20             	mov    %edx,0x20(%eax)
    2688:	8b 55 18             	mov    0x18(%ebp),%edx
    268b:	89 50 24             	mov    %edx,0x24(%eax)
    268e:	5d                   	pop    %ebp
    268f:	c3                   	ret    

00002690 <widget_deinit>:
    2690:	55                   	push   %ebp
    2691:	89 e5                	mov    %esp,%ebp
    2693:	8b 45 08             	mov    0x8(%ebp),%eax
    2696:	8b 50 08             	mov    0x8(%eax),%edx
    2699:	85 d2                	test   %edx,%edx
    269b:	74 21                	je     26be <widget_deinit+0x2e>
    269d:	8b 08                	mov    (%eax),%ecx
    269f:	85 c9                	test   %ecx,%ecx
    26a1:	74 0e                	je     26b1 <widget_deinit+0x21>
    26a3:	8b 50 04             	mov    0x4(%eax),%edx
    26a6:	85 d2                	test   %edx,%edx
    26a8:	74 07                	je     26b1 <widget_deinit+0x21>
    26aa:	89 0a                	mov    %ecx,(%edx)
    26ac:	8b 08                	mov    (%eax),%ecx
    26ae:	89 51 04             	mov    %edx,0x4(%ecx)
    26b1:	c7 00 00 00 00 00    	movl   $0x0,(%eax)
    26b7:	c7 40 04 00 00 00 00 	movl   $0x0,0x4(%eax)
    26be:	5d                   	pop    %ebp
    26bf:	c3                   	ret    

000026c0 <root_handle_keyboard_event>:
    26c0:	55                   	push   %ebp
    26c1:	89 e5                	mov    %esp,%ebp
    26c3:	57                   	push   %edi
    26c4:	56                   	push   %esi
    26c5:	8b 55 08             	mov    0x8(%ebp),%edx
    26c8:	8b 42 10             	mov    0x10(%edx),%eax
    26cb:	83 c2 0c             	add    $0xc,%edx
    26ce:	39 d0                	cmp    %edx,%eax
    26d0:	74 1e                	je     26f0 <root_handle_keyboard_event+0x30>
    26d2:	8d 7d 0c             	lea    0xc(%ebp),%edi
    26d5:	b9 06 00 00 00       	mov    $0x6,%ecx
    26da:	89 fe                	mov    %edi,%esi
    26dc:	f3 a5                	rep movsl %ds:(%esi),%es:(%edi)
    26de:	89 45 08             	mov    %eax,0x8(%ebp)
    26e1:	5e                   	pop    %esi
    26e2:	8b 40 50             	mov    0x50(%eax),%eax
    26e5:	5f                   	pop    %edi
    26e6:	5d                   	pop    %ebp
    26e7:	ff e0                	jmp    *%eax
    26e9:	8d b4 26 00 00 00 00 	lea    0x0(%esi,%eiz,1),%esi
    26f0:	5e                   	pop    %esi
    26f1:	5f                   	pop    %edi
    26f2:	5d                   	pop    %ebp
    26f3:	c3                   	ret    
    26f4:	8d b6 00 00 00 00    	lea    0x0(%esi),%esi
    26fa:	8d bf 00 00 00 00    	lea    0x0(%edi),%edi

00002700 <fetch_input>:
    2700:	55                   	push   %ebp
    2701:	89 e5                	mov    %esp,%ebp
    2703:	57                   	push   %edi
    2704:	56                   	push   %esi
    2705:	53                   	push   %ebx
    2706:	83 ec 2c             	sub    $0x2c,%esp
    2709:	8b 5d 08             	mov    0x8(%ebp),%ebx
    270c:	8d 43 10             	lea    0x10(%ebx),%eax
    270f:	89 45 e4             	mov    %eax,-0x1c(%ebp)
    2712:	c7 04 24 24 00 00 00 	movl   $0x24,(%esp)
    2719:	e8 62 3a 01 00       	call   16180 <malloc>
    271e:	89 c7                	mov    %eax,%edi
    2720:	85 c0                	test   %eax,%eax
    2722:	74 44                	je     2768 <fetch_input+0x68>
    2724:	89 44 24 04          	mov    %eax,0x4(%esp)
    2728:	8b 43 08             	mov    0x8(%ebx),%eax
    272b:	89 04 24             	mov    %eax,(%esp)
    272e:	e8 9d 14 01 00       	call   13bd0 <win_get_event>
    2733:	85 c0                	test   %eax,%eax
    2735:	75 29                	jne    2760 <fetch_input+0x60>
    2737:	8b 45 e4             	mov    -0x1c(%ebp),%eax
    273a:	8b 77 08             	mov    0x8(%edi),%esi
    273d:	89 7c 24 04          	mov    %edi,0x4(%esp)
    2741:	89 04 24             	mov    %eax,(%esp)
    2744:	c7 07 00 00 00 00    	movl   $0x0,(%edi)
    274a:	c7 47 04 00 00 00 00 	movl   $0x0,0x4(%edi)
    2751:	e8 ba a1 01 00       	call   1c910 <prodcons_produce>
    2756:	83 fe 08             	cmp    $0x8,%esi
    2759:	75 b7                	jne    2712 <fetch_input+0x12>
    275b:	eb 0b                	jmp    2768 <fetch_input+0x68>
    275d:	8d 76 00             	lea    0x0(%esi),%esi
    2760:	89 3c 24             	mov    %edi,(%esp)
    2763:	e8 28 3b 01 00       	call   16290 <free>
    2768:	83 c4 2c             	add    $0x2c,%esp
    276b:	31 c0                	xor    %eax,%eax
    276d:	5b                   	pop    %ebx
    276e:	5e                   	pop    %esi
    276f:	5f                   	pop    %edi
    2770:	5d                   	pop    %ebp
    2771:	c3                   	ret    
    2772:	8d b4 26 00 00 00 00 	lea    0x0(%esi,%eiz,1),%esi
    2779:	8d bc 27 00 00 00 00 	lea    0x0(%edi,%eiz,1),%edi

00002780 <root_handle_position_event>:
    2780:	55                   	push   %ebp
    2781:	89 e5                	mov    %esp,%ebp
    2783:	57                   	push   %edi
    2784:	56                   	push   %esi
    2785:	53                   	push   %ebx
    2786:	83 ec 4c             	sub    $0x4c,%esp
    2789:	8b 45 08             	mov    0x8(%ebp),%eax
    278c:	8b 55 0c             	mov    0xc(%ebp),%edx
    278f:	8b 5d 10             	mov    0x10(%ebp),%ebx
    2792:	89 55 e4             	mov    %edx,-0x1c(%ebp)
    2795:	8b 48 14             	mov    0x14(%eax),%ecx
    2798:	89 5d e0             	mov    %ebx,-0x20(%ebp)
    279b:	8b 55 14             	mov    0x14(%ebp),%edx
    279e:	8b 75 18             	mov    0x18(%ebp),%esi
    27a1:	8b 7d 1c             	mov    0x1c(%ebp),%edi
    27a4:	80 79 01 00          	cmpb   $0x0,0x1(%ecx)
    27a8:	0f 84 aa 00 00 00    	je     2858 <root_handle_position_event+0xd8>
    27ae:	8b 58 20             	mov    0x20(%eax),%ebx
    27b1:	83 fa 01             	cmp    $0x1,%edx
    27b4:	89 5d d4             	mov    %ebx,-0x2c(%ebp)
    27b7:	8b 58 24             	mov    0x24(%eax),%ebx
    27ba:	89 5d c8             	mov    %ebx,-0x38(%ebp)
    27bd:	0f 84 c5 01 00 00    	je     2988 <root_handle_position_event+0x208>
    27c3:	83 fa 02             	cmp    $0x2,%edx
    27c6:	0f 84 2c 02 00 00    	je     29f8 <root_handle_position_event+0x278>
    27cc:	c6 45 dc 00          	movb   $0x0,-0x24(%ebp)
    27d0:	c6 45 d2 00          	movb   $0x0,-0x2e(%ebp)
    27d4:	8b 5d d4             	mov    -0x2c(%ebp),%ebx
    27d7:	83 fe 04             	cmp    $0x4,%esi
    27da:	0f 96 45 d1          	setbe  -0x2f(%ebp)
    27de:	83 eb 05             	sub    $0x5,%ebx
    27e1:	39 f3                	cmp    %esi,%ebx
    27e3:	89 5d d8             	mov    %ebx,-0x28(%ebp)
    27e6:	8b 5d c8             	mov    -0x38(%ebp),%ebx
    27e9:	0f 96 45 d0          	setbe  -0x30(%ebp)
    27ed:	83 ff 04             	cmp    $0x4,%edi
    27f0:	0f 96 45 d3          	setbe  -0x2d(%ebp)
    27f4:	83 eb 05             	sub    $0x5,%ebx
    27f7:	39 fb                	cmp    %edi,%ebx
    27f9:	0f 96 45 c8          	setbe  -0x38(%ebp)
    27fd:	83 fe 04             	cmp    $0x4,%esi
    2800:	76 09                	jbe    280b <root_handle_position_event+0x8b>
    2802:	39 75 d8             	cmp    %esi,-0x28(%ebp)
    2805:	0f 87 95 01 00 00    	ja     29a0 <root_handle_position_event+0x220>
    280b:	c6 45 d8 00          	movb   $0x0,-0x28(%ebp)
    280f:	c6 45 d4 00          	movb   $0x0,-0x2c(%ebp)
    2813:	80 7d d3 00          	cmpb   $0x0,-0x2d(%ebp)
    2817:	0f 84 9b 00 00 00    	je     28b8 <root_handle_position_event+0x138>
    281d:	80 7d d1 00          	cmpb   $0x0,-0x2f(%ebp)
    2821:	0f 84 91 00 00 00    	je     28b8 <root_handle_position_event+0x138>
    2827:	80 7d dc 00          	cmpb   $0x0,-0x24(%ebp)
    282b:	0f 84 21 02 00 00    	je     2a52 <root_handle_position_event+0x2d2>
    2831:	80 7d d2 01          	cmpb   $0x1,-0x2e(%ebp)
    2835:	19 c0                	sbb    %eax,%eax
    2837:	83 e0 24             	and    $0x24,%eax
    283a:	83 c0 0f             	add    $0xf,%eax
    283d:	89 45 10             	mov    %eax,0x10(%ebp)
    2840:	8b 45 e4             	mov    -0x1c(%ebp),%eax
    2843:	89 45 0c             	mov    %eax,0xc(%ebp)
    2846:	8b 41 0c             	mov    0xc(%ecx),%eax
    2849:	89 45 08             	mov    %eax,0x8(%ebp)
    284c:	83 c4 4c             	add    $0x4c,%esp
    284f:	5b                   	pop    %ebx
    2850:	5e                   	pop    %esi
    2851:	5f                   	pop    %edi
    2852:	5d                   	pop    %ebp
    2853:	e9 98 14 01 00       	jmp    13cf0 <win_grab>
    2858:	8b 58 10             	mov    0x10(%eax),%ebx
    285b:	83 c0 0c             	add    $0xc,%eax
    285e:	89 45 dc             	mov    %eax,-0x24(%ebp)
    2861:	39 d8                	cmp    %ebx,%eax
    2863:	74 48                	je     28ad <root_handle_position_event+0x12d>
    2865:	8d 76 00             	lea    0x0(%esi),%esi
    2868:	8b 45 e4             	mov    -0x1c(%ebp),%eax
    286b:	8b 4b 54             	mov    0x54(%ebx),%ecx
    286e:	89 45 0c             	mov    %eax,0xc(%ebp)
    2871:	8b 45 e0             	mov    -0x20(%ebp),%eax
    2874:	89 45 10             	mov    %eax,0x10(%ebp)
    2877:	8b 45 e4             	mov    -0x1c(%ebp),%eax
    287a:	89 44 24 04          	mov    %eax,0x4(%esp)
    287e:	8b 45 e0             	mov    -0x20(%ebp),%eax
    2881:	89 54 24 0c          	mov    %edx,0xc(%esp)
    2885:	89 1c 24             	mov    %ebx,(%esp)
    2888:	89 55 cc             	mov    %edx,-0x34(%ebp)
    288b:	89 44 24 08          	mov    %eax,0x8(%esp)
    288f:	89 74 24 10          	mov    %esi,0x10(%esp)
    2893:	89 7c 24 14          	mov    %edi,0x14(%esp)
    2897:	89 55 14             	mov    %edx,0x14(%ebp)
    289a:	89 75 18             	mov    %esi,0x18(%ebp)
    289d:	89 7d 1c             	mov    %edi,0x1c(%ebp)
    28a0:	ff d1                	call   *%ecx
    28a2:	8b 5b 04             	mov    0x4(%ebx),%ebx
    28a5:	8b 55 cc             	mov    -0x34(%ebp),%edx
    28a8:	39 5d dc             	cmp    %ebx,-0x24(%ebp)
    28ab:	75 bb                	jne    2868 <root_handle_position_event+0xe8>
    28ad:	83 c4 4c             	add    $0x4c,%esp
    28b0:	5b                   	pop    %ebx
    28b1:	5e                   	pop    %esi
    28b2:	5f                   	pop    %edi
    28b3:	5d                   	pop    %ebp
    28b4:	c3                   	ret    
    28b5:	8d 76 00             	lea    0x0(%esi),%esi
    28b8:	80 7d c8 00          	cmpb   $0x0,-0x38(%ebp)
    28bc:	75 3a                	jne    28f8 <root_handle_position_event+0x178>
    28be:	80 7d d0 00          	cmpb   $0x0,-0x30(%ebp)
    28c2:	74 0a                	je     28ce <root_handle_position_event+0x14e>
    28c4:	80 7d d3 00          	cmpb   $0x0,-0x2d(%ebp)
    28c8:	0f 85 42 01 00 00    	jne    2a10 <root_handle_position_event+0x290>
    28ce:	80 7d dc 00          	cmpb   $0x0,-0x24(%ebp)
    28d2:	74 3e                	je     2912 <root_handle_position_event+0x192>
    28d4:	80 7d d3 00          	cmpb   $0x0,-0x2d(%ebp)
    28d8:	0f 84 ad 01 00 00    	je     2a8b <root_handle_position_event+0x30b>
    28de:	80 7d d2 01          	cmpb   $0x1,-0x2e(%ebp)
    28e2:	19 c0                	sbb    %eax,%eax
    28e4:	8b 55 e4             	mov    -0x1c(%ebp),%edx
    28e7:	83 e0 18             	and    $0x18,%eax
    28ea:	89 55 0c             	mov    %edx,0xc(%ebp)
    28ed:	83 c0 0a             	add    $0xa,%eax
    28f0:	89 45 10             	mov    %eax,0x10(%ebp)
    28f3:	e9 4e ff ff ff       	jmp    2846 <root_handle_position_event+0xc6>
    28f8:	80 7d d1 00          	cmpb   $0x0,-0x2f(%ebp)
    28fc:	0f 85 ce 00 00 00    	jne    29d0 <root_handle_position_event+0x250>
    2902:	80 7d d0 00          	cmpb   $0x0,-0x30(%ebp)
    2906:	74 c6                	je     28ce <root_handle_position_event+0x14e>
    2908:	80 7d dc 00          	cmpb   $0x0,-0x24(%ebp)
    290c:	0f 85 26 01 00 00    	jne    2a38 <root_handle_position_event+0x2b8>
    2912:	80 7d d4 00          	cmpb   $0x0,-0x2c(%ebp)
    2916:	0f 85 4c 01 00 00    	jne    2a68 <root_handle_position_event+0x2e8>
    291c:	80 7d d8 00          	cmpb   $0x0,-0x28(%ebp)
    2920:	0f 85 5c 01 00 00    	jne    2a82 <root_handle_position_event+0x302>
    2926:	8b 58 10             	mov    0x10(%eax),%ebx
    2929:	83 c0 0c             	add    $0xc,%eax
    292c:	89 45 dc             	mov    %eax,-0x24(%ebp)
    292f:	39 d8                	cmp    %ebx,%eax
    2931:	0f 84 76 ff ff ff    	je     28ad <root_handle_position_event+0x12d>
    2937:	90                   	nop
    2938:	8b 45 e4             	mov    -0x1c(%ebp),%eax
    293b:	8b 4b 54             	mov    0x54(%ebx),%ecx
    293e:	89 45 0c             	mov    %eax,0xc(%ebp)
    2941:	8b 45 e0             	mov    -0x20(%ebp),%eax
    2944:	89 45 10             	mov    %eax,0x10(%ebp)
    2947:	8b 45 e4             	mov    -0x1c(%ebp),%eax
    294a:	89 44 24 04          	mov    %eax,0x4(%esp)
    294e:	8b 45 e0             	mov    -0x20(%ebp),%eax
    2951:	89 54 24 0c          	mov    %edx,0xc(%esp)
    2955:	89 1c 24             	mov    %ebx,(%esp)
    2958:	89 55 cc             	mov    %edx,-0x34(%ebp)
    295b:	89 44 24 08          	mov    %eax,0x8(%esp)
    295f:	89 74 24 10          	mov    %esi,0x10(%esp)
    2963:	89 7c 24 14          	mov    %edi,0x14(%esp)
    2967:	89 55 14             	mov    %edx,0x14(%ebp)
    296a:	89 75 18             	mov    %esi,0x18(%ebp)
    296d:	89 7d 1c             	mov    %edi,0x1c(%ebp)
    2970:	ff d1                	call   *%ecx
    2972:	8b 5b 04             	mov    0x4(%ebx),%ebx
    2975:	8b 55 cc             	mov    -0x34(%ebp),%edx
    2978:	39 5d dc             	cmp    %ebx,-0x24(%ebp)
    297b:	75 bb                	jne    2938 <root_handle_position_event+0x1b8>
    297d:	e9 2b ff ff ff       	jmp    28ad <root_handle_position_event+0x12d>
    2982:	8d b6 00 00 00 00    	lea    0x0(%esi),%esi
    2988:	83 7d e0 01          	cmpl   $0x1,-0x20(%ebp)
    298c:	0f 94 45 dc          	sete   -0x24(%ebp)
    2990:	8a 5d dc             	mov    -0x24(%ebp),%bl
    2993:	88 5d d2             	mov    %bl,-0x2e(%ebp)
    2996:	e9 39 fe ff ff       	jmp    27d4 <root_handle_position_event+0x54>
    299b:	90                   	nop
    299c:	8d 74 26 00          	lea    0x0(%esi,%eiz,1),%esi
    29a0:	83 ff 04             	cmp    $0x4,%edi
    29a3:	0f 86 62 fe ff ff    	jbe    280b <root_handle_position_event+0x8b>
    29a9:	83 ff 18             	cmp    $0x18,%edi
    29ac:	0f 87 59 fe ff ff    	ja     280b <root_handle_position_event+0x8b>
    29b2:	8b 5d d4             	mov    -0x2c(%ebp),%ebx
    29b5:	83 eb 19             	sub    $0x19,%ebx
    29b8:	39 f3                	cmp    %esi,%ebx
    29ba:	8a 5d d2             	mov    -0x2e(%ebp),%bl
    29bd:	88 5d d8             	mov    %bl,-0x28(%ebp)
    29c0:	0f 86 b4 00 00 00    	jbe    2a7a <root_handle_position_event+0x2fa>
    29c6:	c6 45 d4 00          	movb   $0x0,-0x2c(%ebp)
    29ca:	e9 44 fe ff ff       	jmp    2813 <root_handle_position_event+0x93>
    29cf:	90                   	nop
    29d0:	80 7d dc 00          	cmpb   $0x0,-0x24(%ebp)
    29d4:	0f 84 38 ff ff ff    	je     2912 <root_handle_position_event+0x192>
    29da:	80 7d d2 01          	cmpb   $0x1,-0x2e(%ebp)
    29de:	19 c0                	sbb    %eax,%eax
    29e0:	8b 55 e4             	mov    -0x1c(%ebp),%edx
    29e3:	83 e0 24             	and    $0x24,%eax
    29e6:	89 55 0c             	mov    %edx,0xc(%ebp)
    29e9:	83 c0 0d             	add    $0xd,%eax
    29ec:	89 45 10             	mov    %eax,0x10(%ebp)
    29ef:	e9 52 fe ff ff       	jmp    2846 <root_handle_position_event+0xc6>
    29f4:	8d 74 26 00          	lea    0x0(%esi,%eiz,1),%esi
    29f8:	83 7d e0 01          	cmpl   $0x1,-0x20(%ebp)
    29fc:	0f 94 45 dc          	sete   -0x24(%ebp)
    2a00:	c6 45 d2 00          	movb   $0x0,-0x2e(%ebp)
    2a04:	e9 cb fd ff ff       	jmp    27d4 <root_handle_position_event+0x54>
    2a09:	8d b4 26 00 00 00 00 	lea    0x0(%esi,%eiz,1),%esi
    2a10:	80 7d dc 00          	cmpb   $0x0,-0x24(%ebp)
    2a14:	0f 84 f8 fe ff ff    	je     2912 <root_handle_position_event+0x192>
    2a1a:	80 7d d2 01          	cmpb   $0x1,-0x2e(%ebp)
    2a1e:	19 c0                	sbb    %eax,%eax
    2a20:	83 e0 24             	and    $0x24,%eax
    2a23:	83 c0 0e             	add    $0xe,%eax
    2a26:	89 45 10             	mov    %eax,0x10(%ebp)
    2a29:	8b 45 e4             	mov    -0x1c(%ebp),%eax
    2a2c:	89 45 0c             	mov    %eax,0xc(%ebp)
    2a2f:	e9 12 fe ff ff       	jmp    2846 <root_handle_position_event+0xc6>
    2a34:	8d 74 26 00          	lea    0x0(%esi,%eiz,1),%esi
    2a38:	80 7d d2 01          	cmpb   $0x1,-0x2e(%ebp)
    2a3c:	19 c0                	sbb    %eax,%eax
    2a3e:	83 e0 24             	and    $0x24,%eax
    2a41:	83 c0 0c             	add    $0xc,%eax
    2a44:	89 45 10             	mov    %eax,0x10(%ebp)
    2a47:	8b 5d e4             	mov    -0x1c(%ebp),%ebx
    2a4a:	89 5d 0c             	mov    %ebx,0xc(%ebp)
    2a4d:	e9 f4 fd ff ff       	jmp    2846 <root_handle_position_event+0xc6>
    2a52:	80 7d c8 00          	cmpb   $0x0,-0x38(%ebp)
    2a56:	0f 84 62 fe ff ff    	je     28be <root_handle_position_event+0x13e>
    2a5c:	e9 b1 fe ff ff       	jmp    2912 <root_handle_position_event+0x192>
    2a61:	8d b4 26 00 00 00 00 	lea    0x0(%esi,%eiz,1),%esi
    2a68:	8b 41 0c             	mov    0xc(%ecx),%eax
    2a6b:	89 45 08             	mov    %eax,0x8(%ebp)
    2a6e:	83 c4 4c             	add    $0x4c,%esp
    2a71:	5b                   	pop    %ebx
    2a72:	5e                   	pop    %esi
    2a73:	5f                   	pop    %edi
    2a74:	5d                   	pop    %ebp
    2a75:	e9 16 14 01 00       	jmp    13e90 <win_close_request>
    2a7a:	88 5d d4             	mov    %bl,-0x2c(%ebp)
    2a7d:	e9 91 fd ff ff       	jmp    2813 <root_handle_position_event+0x93>
    2a82:	c7 45 10 03 00 00 00 	movl   $0x3,0x10(%ebp)
    2a89:	eb bc                	jmp    2a47 <root_handle_position_event+0x2c7>
    2a8b:	80 7d d1 00          	cmpb   $0x0,-0x2f(%ebp)
    2a8f:	74 11                	je     2aa2 <root_handle_position_event+0x322>
    2a91:	80 7d d2 01          	cmpb   $0x1,-0x2e(%ebp)
    2a95:	19 c0                	sbb    %eax,%eax
    2a97:	83 e0 0c             	and    $0xc,%eax
    2a9a:	83 c0 05             	add    $0x5,%eax
    2a9d:	89 45 10             	mov    %eax,0x10(%ebp)
    2aa0:	eb a5                	jmp    2a47 <root_handle_position_event+0x2c7>
    2aa2:	80 7d c8 00          	cmpb   $0x0,-0x38(%ebp)
    2aa6:	75 24                	jne    2acc <root_handle_position_event+0x34c>
    2aa8:	80 7d d0 00          	cmpb   $0x0,-0x30(%ebp)
    2aac:	0f 84 60 fe ff ff    	je     2912 <root_handle_position_event+0x192>
    2ab2:	80 7d d2 01          	cmpb   $0x1,-0x2e(%ebp)
    2ab6:	19 c0                	sbb    %eax,%eax
    2ab8:	8b 55 e4             	mov    -0x1c(%ebp),%edx
    2abb:	83 e0 0c             	and    $0xc,%eax
    2abe:	89 55 0c             	mov    %edx,0xc(%ebp)
    2ac1:	83 c0 04             	add    $0x4,%eax
    2ac4:	89 45 10             	mov    %eax,0x10(%ebp)
    2ac7:	e9 7a fd ff ff       	jmp    2846 <root_handle_position_event+0xc6>
    2acc:	80 7d d2 01          	cmpb   $0x1,-0x2e(%ebp)
    2ad0:	19 c0                	sbb    %eax,%eax
    2ad2:	83 e0 18             	and    $0x18,%eax
    2ad5:	83 c0 08             	add    $0x8,%eax
    2ad8:	89 45 10             	mov    %eax,0x10(%ebp)
    2adb:	8b 45 e4             	mov    -0x1c(%ebp),%eax
    2ade:	89 45 0c             	mov    %eax,0xc(%ebp)
    2ae1:	e9 60 fd ff ff       	jmp    2846 <root_handle_position_event+0xc6>
    2ae6:	8d 76 00             	lea    0x0(%esi),%esi
    2ae9:	8d bc 27 00 00 00 00 	lea    0x0(%edi,%eiz,1),%edi

00002af0 <root_destroy>:
    2af0:	55                   	push   %ebp
    2af1:	89 e5                	mov    %esp,%ebp
    2af3:	5d                   	pop    %ebp
    2af4:	e9 97 fb ff ff       	jmp    2690 <widget_deinit>
    2af9:	8d b4 26 00 00 00 00 	lea    0x0(%esi,%eiz,1),%esi

00002b00 <root_reconfigure>:
    2b00:	55                   	push   %ebp
    2b01:	89 e5                	mov    %esp,%ebp
    2b03:	57                   	push   %edi
    2b04:	56                   	push   %esi
    2b05:	53                   	push   %ebx
    2b06:	83 ec 2c             	sub    $0x2c,%esp
    2b09:	8b 5d 08             	mov    0x8(%ebp),%ebx
    2b0c:	8b 43 14             	mov    0x14(%ebx),%eax
    2b0f:	8b 73 10             	mov    0x10(%ebx),%esi
    2b12:	8d 7b 0c             	lea    0xc(%ebx),%edi
    2b15:	80 78 01 00          	cmpb   $0x0,0x1(%eax)
    2b19:	74 6a                	je     2b85 <root_reconfigure+0x85>
    2b1b:	39 fe                	cmp    %edi,%esi
    2b1d:	74 36                	je     2b55 <root_reconfigure+0x55>
    2b1f:	90                   	nop
    2b20:	8b 43 24             	mov    0x24(%ebx),%eax
    2b23:	83 e8 1e             	sub    $0x1e,%eax
    2b26:	89 44 24 10          	mov    %eax,0x10(%esp)
    2b2a:	8b 43 20             	mov    0x20(%ebx),%eax
    2b2d:	83 e8 0a             	sub    $0xa,%eax
    2b30:	89 44 24 0c          	mov    %eax,0xc(%esp)
    2b34:	8b 43 1c             	mov    0x1c(%ebx),%eax
    2b37:	83 c0 19             	add    $0x19,%eax
    2b3a:	89 44 24 08          	mov    %eax,0x8(%esp)
    2b3e:	8b 43 18             	mov    0x18(%ebx),%eax
    2b41:	89 34 24             	mov    %esi,(%esp)
    2b44:	83 c0 05             	add    $0x5,%eax
    2b47:	89 44 24 04          	mov    %eax,0x4(%esp)
    2b4b:	ff 56 48             	call   *0x48(%esi)
    2b4e:	8b 76 04             	mov    0x4(%esi),%esi
    2b51:	39 f7                	cmp    %esi,%edi
    2b53:	75 cb                	jne    2b20 <root_reconfigure+0x20>
    2b55:	83 c4 2c             	add    $0x2c,%esp
    2b58:	5b                   	pop    %ebx
    2b59:	5e                   	pop    %esi
    2b5a:	5f                   	pop    %edi
    2b5b:	5d                   	pop    %ebp
    2b5c:	c3                   	ret    
    2b5d:	8d 76 00             	lea    0x0(%esi),%esi
    2b60:	8b 43 24             	mov    0x24(%ebx),%eax
    2b63:	89 44 24 10          	mov    %eax,0x10(%esp)
    2b67:	8b 43 20             	mov    0x20(%ebx),%eax
    2b6a:	89 44 24 0c          	mov    %eax,0xc(%esp)
    2b6e:	8b 43 1c             	mov    0x1c(%ebx),%eax
    2b71:	89 44 24 08          	mov    %eax,0x8(%esp)
    2b75:	8b 43 18             	mov    0x18(%ebx),%eax
    2b78:	89 34 24             	mov    %esi,(%esp)
    2b7b:	89 44 24 04          	mov    %eax,0x4(%esp)
    2b7f:	ff 56 48             	call   *0x48(%esi)
    2b82:	8b 76 04             	mov    0x4(%esi),%esi
    2b85:	39 fe                	cmp    %edi,%esi
    2b87:	75 d7                	jne    2b60 <root_reconfigure+0x60>
    2b89:	83 c4 2c             	add    $0x2c,%esp
    2b8c:	5b                   	pop    %ebx
    2b8d:	5e                   	pop    %esi
    2b8e:	5f                   	pop    %edi
    2b8f:	5d                   	pop    %ebp
    2b90:	c3                   	ret    
    2b91:	eb 0d                	jmp    2ba0 <paint_internal>
    2b93:	90                   	nop
    2b94:	90                   	nop
    2b95:	90                   	nop
    2b96:	90                   	nop
    2b97:	90                   	nop
    2b98:	90                   	nop
    2b99:	90                   	nop
    2b9a:	90                   	nop
    2b9b:	90                   	nop
    2b9c:	90                   	nop
    2b9d:	90                   	nop
    2b9e:	90                   	nop
    2b9f:	90                   	nop

00002ba0 <paint_internal>:
    2ba0:	55                   	push   %ebp
    2ba1:	89 e5                	mov    %esp,%ebp
    2ba3:	57                   	push   %edi
    2ba4:	56                   	push   %esi
    2ba5:	53                   	push   %ebx
    2ba6:	81 ec fc 00 00 00    	sub    $0xfc,%esp
    2bac:	89 c6                	mov    %eax,%esi
    2bae:	8b 58 14             	mov    0x14(%eax),%ebx
    2bb1:	8d 93 90 00 00 00    	lea    0x90(%ebx),%edx
    2bb7:	89 14 24             	mov    %edx,(%esp)
    2bba:	e8 f1 a5 00 00       	call   d1b0 <fibril_mutex_lock>
    2bbf:	8b 9b a0 00 00 00    	mov    0xa0(%ebx),%ebx
    2bc5:	85 db                	test   %ebx,%ebx
    2bc7:	0f 84 ab 02 00 00    	je     2e78 <paint_internal+0x2d8>
    2bcd:	8d 7d 84             	lea    -0x7c(%ebp),%edi
    2bd0:	89 3c 24             	mov    %edi,(%esp)
    2bd3:	e8 58 18 00 00       	call   4430 <source_init>
    2bd8:	8d 85 3c ff ff ff    	lea    -0xc4(%ebp),%eax
    2bde:	89 04 24             	mov    %eax,(%esp)
    2be1:	c7 44 24 0c 10 00 00 	movl   $0x10,0xc(%esp)
    2be8:	00 
    2be9:	c7 44 24 08 00 00 00 	movl   $0x0,0x8(%esp)
    2bf0:	00 
    2bf1:	c7 44 24 04 00 00 00 	movl   $0x0,0x4(%esp)
    2bf8:	00 
    2bf9:	e8 f2 13 00 00       	call   3ff0 <font_init>
    2bfe:	89 5c 24 04          	mov    %ebx,0x4(%esp)
    2c02:	8d 9d 4c ff ff ff    	lea    -0xb4(%ebp),%ebx
    2c08:	89 1c 24             	mov    %ebx,(%esp)
    2c0b:	e8 d0 0e 00 00       	call   3ae0 <drawctx_init>
    2c10:	89 7c 24 04          	mov    %edi,0x4(%esp)
    2c14:	89 1c 24             	mov    %ebx,(%esp)
    2c17:	e8 b4 10 00 00       	call   3cd0 <drawctx_set_source>
    2c1c:	8d 85 3c ff ff ff    	lea    -0xc4(%ebp),%eax
    2c22:	89 44 24 04          	mov    %eax,0x4(%esp)
    2c26:	89 1c 24             	mov    %ebx,(%esp)
    2c29:	e8 b2 10 00 00       	call   3ce0 <drawctx_set_font>
    2c2e:	89 3c 24             	mov    %edi,(%esp)
    2c31:	c7 44 24 04 00 00 00 	movl   $0xff000000,0x4(%esp)
    2c38:	ff 
    2c39:	e8 82 18 00 00       	call   44c0 <source_set_color>
    2c3e:	8b 56 24             	mov    0x24(%esi),%edx
    2c41:	89 54 24 10          	mov    %edx,0x10(%esp)
    2c45:	8b 56 1c             	mov    0x1c(%esi),%edx
    2c48:	89 54 24 08          	mov    %edx,0x8(%esp)
    2c4c:	8b 56 18             	mov    0x18(%esi),%edx
    2c4f:	89 54 24 04          	mov    %edx,0x4(%esp)
    2c53:	c7 44 24 0c 05 00 00 	movl   $0x5,0xc(%esp)
    2c5a:	00 
    2c5b:	89 1c 24             	mov    %ebx,(%esp)
    2c5e:	e8 8d 10 00 00       	call   3cf0 <drawctx_transfer>
    2c63:	8b 56 24             	mov    0x24(%esi),%edx
    2c66:	89 54 24 10          	mov    %edx,0x10(%esp)
    2c6a:	8b 56 1c             	mov    0x1c(%esi),%edx
    2c6d:	8b 46 20             	mov    0x20(%esi),%eax
    2c70:	89 54 24 08          	mov    %edx,0x8(%esp)
    2c74:	8b 56 18             	mov    0x18(%esi),%edx
    2c77:	c7 44 24 0c 05 00 00 	movl   $0x5,0xc(%esp)
    2c7e:	00 
    2c7f:	01 c2                	add    %eax,%edx
    2c81:	89 1c 24             	mov    %ebx,(%esp)
    2c84:	83 ea 05             	sub    $0x5,%edx
    2c87:	89 54 24 04          	mov    %edx,0x4(%esp)
    2c8b:	e8 60 10 00 00       	call   3cf0 <drawctx_transfer>
    2c90:	8b 56 20             	mov    0x20(%esi),%edx
    2c93:	89 54 24 0c          	mov    %edx,0xc(%esp)
    2c97:	8b 56 1c             	mov    0x1c(%esi),%edx
    2c9a:	89 54 24 08          	mov    %edx,0x8(%esp)
    2c9e:	8b 56 18             	mov    0x18(%esi),%edx
    2ca1:	89 54 24 04          	mov    %edx,0x4(%esp)
    2ca5:	c7 44 24 10 05 00 00 	movl   $0x5,0x10(%esp)
    2cac:	00 
    2cad:	89 1c 24             	mov    %ebx,(%esp)
    2cb0:	e8 3b 10 00 00       	call   3cf0 <drawctx_transfer>
    2cb5:	8b 56 20             	mov    0x20(%esi),%edx
    2cb8:	8b 46 24             	mov    0x24(%esi),%eax
    2cbb:	89 54 24 0c          	mov    %edx,0xc(%esp)
    2cbf:	8b 56 1c             	mov    0x1c(%esi),%edx
    2cc2:	c7 44 24 10 05 00 00 	movl   $0x5,0x10(%esp)
    2cc9:	00 
    2cca:	01 c2                	add    %eax,%edx
    2ccc:	89 1c 24             	mov    %ebx,(%esp)
    2ccf:	83 ea 05             	sub    $0x5,%edx
    2cd2:	89 54 24 08          	mov    %edx,0x8(%esp)
    2cd6:	8b 56 18             	mov    0x18(%esi),%edx
    2cd9:	89 54 24 04          	mov    %edx,0x4(%esp)
    2cdd:	e8 0e 10 00 00       	call   3cf0 <drawctx_transfer>
    2ce2:	8b 56 14             	mov    0x14(%esi),%edx
    2ce5:	80 7a 02 01          	cmpb   $0x1,0x2(%edx)
    2ce9:	19 d2                	sbb    %edx,%edx
    2ceb:	89 3c 24             	mov    %edi,(%esp)
    2cee:	81 e2 44 69 2d 00    	and    $0x2d6944,%edx
    2cf4:	81 ea 90 e6 e6 00    	sub    $0xe6e690,%edx
    2cfa:	89 54 24 04          	mov    %edx,0x4(%esp)
    2cfe:	e8 bd 17 00 00       	call   44c0 <source_set_color>
    2d03:	8b 56 20             	mov    0x20(%esi),%edx
    2d06:	83 ea 0a             	sub    $0xa,%edx
    2d09:	c7 44 24 10 14 00 00 	movl   $0x14,0x10(%esp)
    2d10:	00 
    2d11:	89 54 24 0c          	mov    %edx,0xc(%esp)
    2d15:	8b 56 1c             	mov    0x1c(%esi),%edx
    2d18:	83 c2 05             	add    $0x5,%edx
    2d1b:	89 1c 24             	mov    %ebx,(%esp)
    2d1e:	89 54 24 08          	mov    %edx,0x8(%esp)
    2d22:	8b 56 18             	mov    0x18(%esi),%edx
    2d25:	83 c2 05             	add    $0x5,%edx
    2d28:	89 54 24 04          	mov    %edx,0x4(%esp)
    2d2c:	e8 bf 0f 00 00       	call   3cf0 <drawctx_transfer>
    2d31:	8d 95 30 ff ff ff    	lea    -0xd0(%ebp),%edx
    2d37:	89 54 24 0c          	mov    %edx,0xc(%esp)
    2d3b:	8d 95 2c ff ff ff    	lea    -0xd4(%ebp),%edx
    2d41:	89 54 24 08          	mov    %edx,0x8(%esp)
    2d45:	8b 56 14             	mov    0x14(%esi),%edx
    2d48:	8d 85 3c ff ff ff    	lea    -0xc4(%ebp),%eax
    2d4e:	8b 52 04             	mov    0x4(%edx),%edx
    2d51:	89 04 24             	mov    %eax,(%esp)
    2d54:	89 54 24 04          	mov    %edx,0x4(%esp)
    2d58:	e8 c3 13 00 00       	call   4120 <font_get_box>
    2d5d:	8d 95 38 ff ff ff    	lea    -0xc8(%ebp),%edx
    2d63:	8d 8d 2a ff ff ff    	lea    -0xd6(%ebp),%ecx
    2d69:	8d 85 3c ff ff ff    	lea    -0xc4(%ebp),%eax
    2d6f:	89 54 24 0c          	mov    %edx,0xc(%esp)
    2d73:	8d 95 34 ff ff ff    	lea    -0xcc(%ebp),%edx
    2d79:	89 54 24 08          	mov    %edx,0x8(%esp)
    2d7d:	89 4c 24 04          	mov    %ecx,0x4(%esp)
    2d81:	89 04 24             	mov    %eax,(%esp)
    2d84:	89 8d 24 ff ff ff    	mov    %ecx,-0xdc(%ebp)
    2d8a:	66 c7 85 2a ff ff ff 	movw   $0x78,-0xd6(%ebp)
    2d91:	78 00 
    2d93:	e8 88 13 00 00       	call   4120 <font_get_box>
    2d98:	89 3c 24             	mov    %edi,(%esp)
    2d9b:	c7 44 24 04 ff ff ff 	movl   $0xffffffff,0x4(%esp)
    2da2:	ff 
    2da3:	e8 18 17 00 00       	call   44c0 <source_set_color>
    2da8:	b8 14 00 00 00       	mov    $0x14,%eax
    2dad:	89 c2                	mov    %eax,%edx
    2daf:	8b 8d 38 ff ff ff    	mov    -0xc8(%ebp),%ecx
    2db5:	29 ca                	sub    %ecx,%edx
    2db7:	8b 7e 1c             	mov    0x1c(%esi),%edi
    2dba:	d1 ea                	shr    %edx
    2dbc:	8b 8d 34 ff ff ff    	mov    -0xcc(%ebp),%ecx
    2dc2:	89 1c 24             	mov    %ebx,(%esp)
    2dc5:	8d 54 17 05          	lea    0x5(%edi,%edx,1),%edx
    2dc9:	8b 7e 18             	mov    0x18(%esi),%edi
    2dcc:	89 54 24 0c          	mov    %edx,0xc(%esp)
    2dd0:	8b 56 20             	mov    0x20(%esi),%edx
    2dd3:	01 d7                	add    %edx,%edi
    2dd5:	89 c2                	mov    %eax,%edx
    2dd7:	29 ca                	sub    %ecx,%edx
    2dd9:	8b 8d 24 ff ff ff    	mov    -0xdc(%ebp),%ecx
    2ddf:	d1 ea                	shr    %edx
    2de1:	89 4c 24 04          	mov    %ecx,0x4(%esp)
    2de5:	89 85 24 ff ff ff    	mov    %eax,-0xdc(%ebp)
    2deb:	8d 54 17 e7          	lea    -0x19(%edi,%edx,1),%edx
    2def:	89 54 24 08          	mov    %edx,0x8(%esp)
    2df3:	e8 a8 11 00 00       	call   3fa0 <drawctx_print>
    2df8:	8b 95 2c ff ff ff    	mov    -0xd4(%ebp),%edx
    2dfe:	8b 4e 20             	mov    0x20(%esi),%ecx
    2e01:	8d 7a 1e             	lea    0x1e(%edx),%edi
    2e04:	39 f9                	cmp    %edi,%ecx
    2e06:	8b 85 24 ff ff ff    	mov    -0xdc(%ebp),%eax
    2e0c:	72 3a                	jb     2e48 <paint_internal+0x2a8>
    2e0e:	29 d1                	sub    %edx,%ecx
    2e10:	89 c7                	mov    %eax,%edi
    2e12:	8b 85 30 ff ff ff    	mov    -0xd0(%ebp),%eax
    2e18:	8b 56 18             	mov    0x18(%esi),%edx
    2e1b:	d1 e9                	shr    %ecx
    2e1d:	29 c7                	sub    %eax,%edi
    2e1f:	d1 ef                	shr    %edi
    2e21:	01 d1                	add    %edx,%ecx
    2e23:	8b 56 1c             	mov    0x1c(%esi),%edx
    2e26:	8d 7c 3a 05          	lea    0x5(%edx,%edi,1),%edi
    2e2a:	8b 56 14             	mov    0x14(%esi),%edx
    2e2d:	8b 52 04             	mov    0x4(%edx),%edx
    2e30:	85 d2                	test   %edx,%edx
    2e32:	74 14                	je     2e48 <paint_internal+0x2a8>
    2e34:	89 7c 24 0c          	mov    %edi,0xc(%esp)
    2e38:	89 4c 24 08          	mov    %ecx,0x8(%esp)
    2e3c:	89 54 24 04          	mov    %edx,0x4(%esp)
    2e40:	89 1c 24             	mov    %ebx,(%esp)
    2e43:	e8 58 11 00 00       	call   3fa0 <drawctx_print>
    2e48:	8d 85 3c ff ff ff    	lea    -0xc4(%ebp),%eax
    2e4e:	89 04 24             	mov    %eax,(%esp)
    2e51:	e8 5a 12 00 00       	call   40b0 <font_release>
    2e56:	8b 46 14             	mov    0x14(%esi),%eax
    2e59:	05 90 00 00 00       	add    $0x90,%eax
    2e5e:	89 04 24             	mov    %eax,(%esp)
    2e61:	e8 6a a4 00 00       	call   d2d0 <fibril_mutex_unlock>
    2e66:	81 c4 fc 00 00 00    	add    $0xfc,%esp
    2e6c:	5b                   	pop    %ebx
    2e6d:	5e                   	pop    %esi
    2e6e:	5f                   	pop    %edi
    2e6f:	5d                   	pop    %ebp
    2e70:	c3                   	ret    
    2e71:	8d b4 26 00 00 00 00 	lea    0x0(%esi,%eiz,1),%esi
    2e78:	8b 56 14             	mov    0x14(%esi),%edx
    2e7b:	81 c2 90 00 00 00    	add    $0x90,%edx
    2e81:	89 14 24             	mov    %edx,(%esp)
    2e84:	e8 47 a4 00 00       	call   d2d0 <fibril_mutex_unlock>
    2e89:	e9 3f fd ff ff       	jmp    2bcd <paint_internal+0x2d>
    2e8e:	66 90                	xchg   %ax,%ax

00002e90 <root_rearrange>:
    2e90:	55                   	push   %ebp
    2e91:	89 e5                	mov    %esp,%ebp
    2e93:	57                   	push   %edi
    2e94:	56                   	push   %esi
    2e95:	53                   	push   %ebx
    2e96:	83 ec 3c             	sub    $0x3c,%esp
    2e99:	8b 45 10             	mov    0x10(%ebp),%eax
    2e9c:	8b 4d 08             	mov    0x8(%ebp),%ecx
    2e9f:	8b 75 14             	mov    0x14(%ebp),%esi
    2ea2:	8b 7d 18             	mov    0x18(%ebp),%edi
    2ea5:	89 44 24 08          	mov    %eax,0x8(%esp)
    2ea9:	8b 45 0c             	mov    0xc(%ebp),%eax
    2eac:	89 44 24 04          	mov    %eax,0x4(%esp)
    2eb0:	89 0c 24             	mov    %ecx,(%esp)
    2eb3:	89 7c 24 10          	mov    %edi,0x10(%esp)
    2eb7:	89 74 24 0c          	mov    %esi,0xc(%esp)
    2ebb:	89 4d d8             	mov    %ecx,-0x28(%ebp)
    2ebe:	e8 ad f7 ff ff       	call   2670 <widget_modify>
    2ec3:	8b 4d d8             	mov    -0x28(%ebp),%ecx
    2ec6:	8b 41 14             	mov    0x14(%ecx),%eax
    2ec9:	80 78 01 00          	cmpb   $0x0,0x1(%eax)
    2ecd:	75 41                	jne    2f10 <root_rearrange+0x80>
    2ecf:	8b 59 10             	mov    0x10(%ecx),%ebx
    2ed2:	83 c1 0c             	add    $0xc,%ecx
    2ed5:	89 4d dc             	mov    %ecx,-0x24(%ebp)
    2ed8:	39 cb                	cmp    %ecx,%ebx
    2eda:	74 28                	je     2f04 <root_rearrange+0x74>
    2edc:	8d 74 26 00          	lea    0x0(%esi,%eiz,1),%esi
    2ee0:	8b 45 10             	mov    0x10(%ebp),%eax
    2ee3:	89 1c 24             	mov    %ebx,(%esp)
    2ee6:	89 44 24 08          	mov    %eax,0x8(%esp)
    2eea:	8b 45 0c             	mov    0xc(%ebp),%eax
    2eed:	89 7c 24 10          	mov    %edi,0x10(%esp)
    2ef1:	89 74 24 0c          	mov    %esi,0xc(%esp)
    2ef5:	89 44 24 04          	mov    %eax,0x4(%esp)
    2ef9:	ff 53 48             	call   *0x48(%ebx)
    2efc:	8b 5b 04             	mov    0x4(%ebx),%ebx
    2eff:	3b 5d dc             	cmp    -0x24(%ebp),%ebx
    2f02:	75 dc                	jne    2ee0 <root_rearrange+0x50>
    2f04:	83 c4 3c             	add    $0x3c,%esp
    2f07:	5b                   	pop    %ebx
    2f08:	5e                   	pop    %esi
    2f09:	5f                   	pop    %edi
    2f0a:	5d                   	pop    %ebp
    2f0b:	c3                   	ret    
    2f0c:	8d 74 26 00          	lea    0x0(%esi,%eiz,1),%esi
    2f10:	89 c8                	mov    %ecx,%eax
    2f12:	e8 89 fc ff ff       	call   2ba0 <paint_internal>
    2f17:	8b 4d d8             	mov    -0x28(%ebp),%ecx
    2f1a:	8b 59 10             	mov    0x10(%ecx),%ebx
    2f1d:	83 c1 0c             	add    $0xc,%ecx
    2f20:	89 4d dc             	mov    %ecx,-0x24(%ebp)
    2f23:	39 cb                	cmp    %ecx,%ebx
    2f25:	74 dd                	je     2f04 <root_rearrange+0x74>
    2f27:	8b 45 10             	mov    0x10(%ebp),%eax
    2f2a:	83 ef 1e             	sub    $0x1e,%edi
    2f2d:	83 c0 19             	add    $0x19,%eax
    2f30:	83 ee 0a             	sub    $0xa,%esi
    2f33:	89 45 e0             	mov    %eax,-0x20(%ebp)
    2f36:	8b 45 0c             	mov    0xc(%ebp),%eax
    2f39:	83 c0 05             	add    $0x5,%eax
    2f3c:	89 45 e4             	mov    %eax,-0x1c(%ebp)
    2f3f:	90                   	nop
    2f40:	8b 45 e0             	mov    -0x20(%ebp),%eax
    2f43:	89 1c 24             	mov    %ebx,(%esp)
    2f46:	89 44 24 08          	mov    %eax,0x8(%esp)
    2f4a:	8b 45 e4             	mov    -0x1c(%ebp),%eax
    2f4d:	89 7c 24 10          	mov    %edi,0x10(%esp)
    2f51:	89 74 24 0c          	mov    %esi,0xc(%esp)
    2f55:	89 44 24 04          	mov    %eax,0x4(%esp)
    2f59:	ff 53 48             	call   *0x48(%ebx)
    2f5c:	8b 5b 04             	mov    0x4(%ebx),%ebx
    2f5f:	39 5d dc             	cmp    %ebx,-0x24(%ebp)
    2f62:	75 dc                	jne    2f40 <root_rearrange+0xb0>
    2f64:	83 c4 3c             	add    $0x3c,%esp
    2f67:	5b                   	pop    %ebx
    2f68:	5e                   	pop    %esi
    2f69:	5f                   	pop    %edi
    2f6a:	5d                   	pop    %ebp
    2f6b:	c3                   	ret    
    2f6c:	8d 74 26 00          	lea    0x0(%esi,%eiz,1),%esi

00002f70 <destroy_children>:
    2f70:	55                   	push   %ebp
    2f71:	89 e5                	mov    %esp,%ebp
    2f73:	57                   	push   %edi
    2f74:	56                   	push   %esi
    2f75:	53                   	push   %ebx
    2f76:	83 ec 5c             	sub    $0x5c,%esp
    2f79:	89 45 c0             	mov    %eax,-0x40(%ebp)
    2f7c:	8b 40 10             	mov    0x10(%eax),%eax
    2f7f:	89 45 d4             	mov    %eax,-0x2c(%ebp)
    2f82:	8b 45 c0             	mov    -0x40(%ebp),%eax
    2f85:	83 c0 0c             	add    $0xc,%eax
    2f88:	89 45 bc             	mov    %eax,-0x44(%ebp)
    2f8b:	39 45 d4             	cmp    %eax,-0x2c(%ebp)
    2f8e:	0f 84 b7 01 00 00    	je     314b <destroy_children+0x1db>
    2f94:	8b 45 d4             	mov    -0x2c(%ebp),%eax
    2f97:	8b 40 10             	mov    0x10(%eax),%eax
    2f9a:	89 45 d0             	mov    %eax,-0x30(%ebp)
    2f9d:	8b 45 d4             	mov    -0x2c(%ebp),%eax
    2fa0:	83 c0 0c             	add    $0xc,%eax
    2fa3:	89 45 ac             	mov    %eax,-0x54(%ebp)
    2fa6:	39 45 d0             	cmp    %eax,-0x30(%ebp)
    2fa9:	0f 84 7e 01 00 00    	je     312d <destroy_children+0x1bd>
    2faf:	8b 45 d0             	mov    -0x30(%ebp),%eax
    2fb2:	8b 40 10             	mov    0x10(%eax),%eax
    2fb5:	89 45 cc             	mov    %eax,-0x34(%ebp)
    2fb8:	8b 45 d0             	mov    -0x30(%ebp),%eax
    2fbb:	83 c0 0c             	add    $0xc,%eax
    2fbe:	89 45 b0             	mov    %eax,-0x50(%ebp)
    2fc1:	39 45 cc             	cmp    %eax,-0x34(%ebp)
    2fc4:	0f 84 45 01 00 00    	je     310f <destroy_children+0x19f>
    2fca:	8b 45 cc             	mov    -0x34(%ebp),%eax
    2fcd:	8b 40 10             	mov    0x10(%eax),%eax
    2fd0:	89 45 c8             	mov    %eax,-0x38(%ebp)
    2fd3:	8b 45 cc             	mov    -0x34(%ebp),%eax
    2fd6:	83 c0 0c             	add    $0xc,%eax
    2fd9:	89 45 b4             	mov    %eax,-0x4c(%ebp)
    2fdc:	39 45 c8             	cmp    %eax,-0x38(%ebp)
    2fdf:	0f 84 0c 01 00 00    	je     30f1 <destroy_children+0x181>
    2fe5:	8b 45 c8             	mov    -0x38(%ebp),%eax
    2fe8:	8b 40 10             	mov    0x10(%eax),%eax
    2feb:	89 45 c4             	mov    %eax,-0x3c(%ebp)
    2fee:	8b 45 c8             	mov    -0x38(%ebp),%eax
    2ff1:	83 c0 0c             	add    $0xc,%eax
    2ff4:	89 45 b8             	mov    %eax,-0x48(%ebp)
    2ff7:	39 45 c4             	cmp    %eax,-0x3c(%ebp)
    2ffa:	0f 84 d3 00 00 00    	je     30d3 <destroy_children+0x163>
    3000:	8b 45 c4             	mov    -0x3c(%ebp),%eax
    3003:	8b 40 10             	mov    0x10(%eax),%eax
    3006:	89 45 dc             	mov    %eax,-0x24(%ebp)
    3009:	8b 45 c4             	mov    -0x3c(%ebp),%eax
    300c:	83 c0 0c             	add    $0xc,%eax
    300f:	89 45 a8             	mov    %eax,-0x58(%ebp)
    3012:	39 45 dc             	cmp    %eax,-0x24(%ebp)
    3015:	0f 84 9a 00 00 00    	je     30b5 <destroy_children+0x145>
    301b:	8b 45 dc             	mov    -0x24(%ebp),%eax
    301e:	8b 40 10             	mov    0x10(%eax),%eax
    3021:	89 45 e4             	mov    %eax,-0x1c(%ebp)
    3024:	8b 45 dc             	mov    -0x24(%ebp),%eax
    3027:	83 c0 0c             	add    $0xc,%eax
    302a:	89 45 d8             	mov    %eax,-0x28(%ebp)
    302d:	39 45 e4             	cmp    %eax,-0x1c(%ebp)
    3030:	74 65                	je     3097 <destroy_children+0x127>
    3032:	8b 45 e4             	mov    -0x1c(%ebp),%eax
    3035:	8b 58 10             	mov    0x10(%eax),%ebx
    3038:	83 c0 0c             	add    $0xc,%eax
    303b:	89 45 e0             	mov    %eax,-0x20(%ebp)
    303e:	39 c3                	cmp    %eax,%ebx
    3040:	74 3b                	je     307d <destroy_children+0x10d>
    3042:	8d b6 00 00 00 00    	lea    0x0(%esi),%esi
    3048:	8b 7b 10             	mov    0x10(%ebx),%edi
    304b:	8d 73 0c             	lea    0xc(%ebx),%esi
    304e:	39 f7                	cmp    %esi,%edi
    3050:	74 1a                	je     306c <destroy_children+0xfc>
    3052:	8d b6 00 00 00 00    	lea    0x0(%esi),%esi
    3058:	89 f8                	mov    %edi,%eax
    305a:	e8 11 ff ff ff       	call   2f70 <destroy_children>
    305f:	89 3c 24             	mov    %edi,(%esp)
    3062:	ff 57 40             	call   *0x40(%edi)
    3065:	8b 7b 10             	mov    0x10(%ebx),%edi
    3068:	39 f7                	cmp    %esi,%edi
    306a:	75 ec                	jne    3058 <destroy_children+0xe8>
    306c:	89 1c 24             	mov    %ebx,(%esp)
    306f:	ff 53 40             	call   *0x40(%ebx)
    3072:	8b 45 e4             	mov    -0x1c(%ebp),%eax
    3075:	8b 58 10             	mov    0x10(%eax),%ebx
    3078:	3b 5d e0             	cmp    -0x20(%ebp),%ebx
    307b:	75 cb                	jne    3048 <destroy_children+0xd8>
    307d:	8b 45 e4             	mov    -0x1c(%ebp),%eax
    3080:	89 04 24             	mov    %eax,(%esp)
    3083:	ff 50 40             	call   *0x40(%eax)
    3086:	8b 45 dc             	mov    -0x24(%ebp),%eax
    3089:	8b 40 10             	mov    0x10(%eax),%eax
    308c:	89 45 e4             	mov    %eax,-0x1c(%ebp)
    308f:	8b 45 d8             	mov    -0x28(%ebp),%eax
    3092:	39 45 e4             	cmp    %eax,-0x1c(%ebp)
    3095:	75 9b                	jne    3032 <destroy_children+0xc2>
    3097:	8b 45 dc             	mov    -0x24(%ebp),%eax
    309a:	89 04 24             	mov    %eax,(%esp)
    309d:	ff 50 40             	call   *0x40(%eax)
    30a0:	8b 45 c4             	mov    -0x3c(%ebp),%eax
    30a3:	8b 40 10             	mov    0x10(%eax),%eax
    30a6:	89 45 dc             	mov    %eax,-0x24(%ebp)
    30a9:	8b 45 a8             	mov    -0x58(%ebp),%eax
    30ac:	39 45 dc             	cmp    %eax,-0x24(%ebp)
    30af:	0f 85 66 ff ff ff    	jne    301b <destroy_children+0xab>
    30b5:	8b 45 c4             	mov    -0x3c(%ebp),%eax
    30b8:	89 04 24             	mov    %eax,(%esp)
    30bb:	ff 50 40             	call   *0x40(%eax)
    30be:	8b 45 c8             	mov    -0x38(%ebp),%eax
    30c1:	8b 40 10             	mov    0x10(%eax),%eax
    30c4:	89 45 c4             	mov    %eax,-0x3c(%ebp)
    30c7:	8b 45 b8             	mov    -0x48(%ebp),%eax
    30ca:	39 45 c4             	cmp    %eax,-0x3c(%ebp)
    30cd:	0f 85 2d ff ff ff    	jne    3000 <destroy_children+0x90>
    30d3:	8b 45 c8             	mov    -0x38(%ebp),%eax
    30d6:	89 04 24             	mov    %eax,(%esp)
    30d9:	ff 50 40             	call   *0x40(%eax)
    30dc:	8b 45 cc             	mov    -0x34(%ebp),%eax
    30df:	8b 40 10             	mov    0x10(%eax),%eax
    30e2:	89 45 c8             	mov    %eax,-0x38(%ebp)
    30e5:	8b 45 b4             	mov    -0x4c(%ebp),%eax
    30e8:	39 45 c8             	cmp    %eax,-0x38(%ebp)
    30eb:	0f 85 f4 fe ff ff    	jne    2fe5 <destroy_children+0x75>
    30f1:	8b 45 cc             	mov    -0x34(%ebp),%eax
    30f4:	89 04 24             	mov    %eax,(%esp)
    30f7:	ff 50 40             	call   *0x40(%eax)
    30fa:	8b 45 d0             	mov    -0x30(%ebp),%eax
    30fd:	8b 40 10             	mov    0x10(%eax),%eax
    3100:	89 45 cc             	mov    %eax,-0x34(%ebp)
    3103:	8b 45 b0             	mov    -0x50(%ebp),%eax
    3106:	39 45 cc             	cmp    %eax,-0x34(%ebp)
    3109:	0f 85 bb fe ff ff    	jne    2fca <destroy_children+0x5a>
    310f:	8b 45 d0             	mov    -0x30(%ebp),%eax
    3112:	89 04 24             	mov    %eax,(%esp)
    3115:	ff 50 40             	call   *0x40(%eax)
    3118:	8b 45 d4             	mov    -0x2c(%ebp),%eax
    311b:	8b 40 10             	mov    0x10(%eax),%eax
    311e:	89 45 d0             	mov    %eax,-0x30(%ebp)
    3121:	8b 45 ac             	mov    -0x54(%ebp),%eax
    3124:	39 45 d0             	cmp    %eax,-0x30(%ebp)
    3127:	0f 85 82 fe ff ff    	jne    2faf <destroy_children+0x3f>
    312d:	8b 45 d4             	mov    -0x2c(%ebp),%eax
    3130:	89 04 24             	mov    %eax,(%esp)
    3133:	ff 50 40             	call   *0x40(%eax)
    3136:	8b 45 c0             	mov    -0x40(%ebp),%eax
    3139:	8b 40 10             	mov    0x10(%eax),%eax
    313c:	89 45 d4             	mov    %eax,-0x2c(%ebp)
    313f:	8b 45 bc             	mov    -0x44(%ebp),%eax
    3142:	39 45 d4             	cmp    %eax,-0x2c(%ebp)
    3145:	0f 85 49 fe ff ff    	jne    2f94 <destroy_children+0x24>
    314b:	83 c4 5c             	add    $0x5c,%esp
    314e:	5b                   	pop    %ebx
    314f:	5e                   	pop    %esi
    3150:	5f                   	pop    %edi
    3151:	5d                   	pop    %ebp
    3152:	c3                   	ret    
    3153:	8d b6 00 00 00 00    	lea    0x0(%esi),%esi
    3159:	8d bc 27 00 00 00 00 	lea    0x0(%edi,%eiz,1),%edi

00003160 <event_loop>:
    3160:	55                   	push   %ebp
    3161:	89 e5                	mov    %esp,%ebp
    3163:	57                   	push   %edi
    3164:	56                   	push   %esi
    3165:	53                   	push   %ebx
    3166:	81 ec 8c 00 00 00    	sub    $0x8c,%esp
    316c:	8b 55 08             	mov    0x8(%ebp),%edx
    316f:	83 c2 10             	add    $0x10,%edx
    3172:	89 55 a4             	mov    %edx,-0x5c(%ebp)
    3175:	8b 55 08             	mov    0x8(%ebp),%edx
    3178:	83 c2 30             	add    $0x30,%edx
    317b:	89 55 a0             	mov    %edx,-0x60(%ebp)
    317e:	8b 55 08             	mov    0x8(%ebp),%edx
    3181:	81 c2 90 00 00 00    	add    $0x90,%edx
    3187:	89 55 9c             	mov    %edx,-0x64(%ebp)
    318a:	8d b6 00 00 00 00    	lea    0x0(%esi),%esi
    3190:	8b 55 a4             	mov    -0x5c(%ebp),%edx
    3193:	89 14 24             	mov    %edx,(%esp)
    3196:	e8 c5 97 01 00       	call   1c960 <prodcons_consume>
    319b:	89 c3                	mov    %eax,%ebx
    319d:	83 78 08 08          	cmpl   $0x8,0x8(%eax)
    31a1:	0f 87 a9 00 00 00    	ja     3250 <event_loop+0xf0>
    31a7:	8b 40 08             	mov    0x8(%eax),%eax
    31aa:	ff 24 85 a4 2f 02 00 	jmp    *0x22fa4(,%eax,4)
    31b1:	8d b4 26 00 00 00 00 	lea    0x0(%esi,%eiz,1),%esi
    31b8:	8b 55 9c             	mov    -0x64(%ebp),%edx
    31bb:	89 14 24             	mov    %edx,(%esp)
    31be:	e8 ed 9f 00 00       	call   d1b0 <fibril_mutex_lock>
    31c3:	8d 45 b4             	lea    -0x4c(%ebp),%eax
    31c6:	89 44 24 0c          	mov    %eax,0xc(%esp)
    31ca:	8d 45 b0             	lea    -0x50(%ebp),%eax
    31cd:	8d 4d b8             	lea    -0x48(%ebp),%ecx
    31d0:	89 44 24 08          	mov    %eax,0x8(%esp)
    31d4:	8b 55 08             	mov    0x8(%ebp),%edx
    31d7:	8d 45 ac             	lea    -0x54(%ebp),%eax
    31da:	89 4c 24 10          	mov    %ecx,0x10(%esp)
    31de:	89 44 24 04          	mov    %eax,0x4(%esp)
    31e2:	8b 82 a0 00 00 00    	mov    0xa0(%edx),%eax
    31e8:	89 04 24             	mov    %eax,(%esp)
    31eb:	e8 70 17 00 00       	call   4960 <surface_get_damaged_region>
    31f0:	8b 55 08             	mov    0x8(%ebp),%edx
    31f3:	8b 82 a0 00 00 00    	mov    0xa0(%edx),%eax
    31f9:	89 04 24             	mov    %eax,(%esp)
    31fc:	e8 9f 18 00 00       	call   4aa0 <surface_reset_damaged_region>
    3201:	8b 55 9c             	mov    -0x64(%ebp),%edx
    3204:	89 14 24             	mov    %edx,(%esp)
    3207:	e8 c4 a0 00 00       	call   d2d0 <fibril_mutex_unlock>
    320c:	8b 45 b4             	mov    -0x4c(%ebp),%eax
    320f:	85 c0                	test   %eax,%eax
    3211:	74 3d                	je     3250 <event_loop+0xf0>
    3213:	8b 55 b8             	mov    -0x48(%ebp),%edx
    3216:	85 d2                	test   %edx,%edx
    3218:	74 36                	je     3250 <event_loop+0xf0>
    321a:	89 44 24 0c          	mov    %eax,0xc(%esp)
    321e:	8b 45 b0             	mov    -0x50(%ebp),%eax
    3221:	89 54 24 10          	mov    %edx,0x10(%esp)
    3225:	89 44 24 08          	mov    %eax,0x8(%esp)
    3229:	8b 55 08             	mov    0x8(%ebp),%edx
    322c:	8b 45 ac             	mov    -0x54(%ebp),%eax
    322f:	89 44 24 04          	mov    %eax,0x4(%esp)
    3233:	8b 42 0c             	mov    0xc(%edx),%eax
    3236:	89 04 24             	mov    %eax,(%esp)
    3239:	e8 32 0a 01 00       	call   13c70 <win_damage>
    323e:	eb 10                	jmp    3250 <event_loop+0xf0>
    3240:	8b 55 a0             	mov    -0x60(%ebp),%edx
    3243:	89 14 24             	mov    %edx,(%esp)
    3246:	8b 55 08             	mov    0x8(%ebp),%edx
    3249:	ff 52 7c             	call   *0x7c(%edx)
    324c:	8d 74 26 00          	lea    0x0(%esi,%eiz,1),%esi
    3250:	89 1c 24             	mov    %ebx,(%esp)
    3253:	e8 38 30 01 00       	call   16290 <free>
    3258:	e9 33 ff ff ff       	jmp    3190 <event_loop+0x30>
    325d:	8d 76 00             	lea    0x0(%esi),%esi
    3260:	8b 73 0c             	mov    0xc(%ebx),%esi
    3263:	8b 7b 10             	mov    0x10(%ebx),%edi
    3266:	83 fe 31             	cmp    $0x31,%esi
    3269:	0f 86 91 03 00 00    	jbe    3600 <event_loop+0x4a0>
    326f:	83 ff 1d             	cmp    $0x1d,%edi
    3272:	0f 86 88 03 00 00    	jbe    3600 <event_loop+0x4a0>
    3278:	c7 44 24 0c 01 00 00 	movl   $0x1,0xc(%esp)
    327f:	00 
    3280:	c7 44 24 08 00 00 00 	movl   $0x0,0x8(%esp)
    3287:	00 
    3288:	89 7c 24 04          	mov    %edi,0x4(%esp)
    328c:	89 34 24             	mov    %esi,(%esp)
    328f:	e8 0c 15 00 00       	call   47a0 <surface_create>
    3294:	85 c0                	test   %eax,%eax
    3296:	74 b8                	je     3250 <event_loop+0xf0>
    3298:	8b 55 9c             	mov    -0x64(%ebp),%edx
    329b:	89 45 94             	mov    %eax,-0x6c(%ebp)
    329e:	89 14 24             	mov    %edx,(%esp)
    32a1:	e8 0a 9f 00 00       	call   d1b0 <fibril_mutex_lock>
    32a6:	8b 55 08             	mov    0x8(%ebp),%edx
    32a9:	8b 92 a0 00 00 00    	mov    0xa0(%edx),%edx
    32af:	8b 45 94             	mov    -0x6c(%ebp),%eax
    32b2:	89 55 98             	mov    %edx,-0x68(%ebp)
    32b5:	8b 55 08             	mov    0x8(%ebp),%edx
    32b8:	89 82 a0 00 00 00    	mov    %eax,0xa0(%edx)
    32be:	8b 55 9c             	mov    -0x64(%ebp),%edx
    32c1:	89 14 24             	mov    %edx,(%esp)
    32c4:	e8 07 a0 00 00       	call   d2d0 <fibril_mutex_unlock>
    32c9:	8b 55 a0             	mov    -0x60(%ebp),%edx
    32cc:	89 14 24             	mov    %edx,(%esp)
    32cf:	8b 55 08             	mov    0x8(%ebp),%edx
    32d2:	89 7c 24 10          	mov    %edi,0x10(%esp)
    32d6:	89 74 24 0c          	mov    %esi,0xc(%esp)
    32da:	c7 44 24 08 00 00 00 	movl   $0x0,0x8(%esp)
    32e1:	00 
    32e2:	c7 44 24 04 00 00 00 	movl   $0x0,0x4(%esp)
    32e9:	00 
    32ea:	ff 52 78             	call   *0x78(%edx)
    32ed:	8b 55 9c             	mov    -0x64(%ebp),%edx
    32f0:	89 14 24             	mov    %edx,(%esp)
    32f3:	e8 b8 9e 00 00       	call   d1b0 <fibril_mutex_lock>
    32f8:	8b 55 08             	mov    0x8(%ebp),%edx
    32fb:	8b 8a a0 00 00 00    	mov    0xa0(%edx),%ecx
    3301:	89 0c 24             	mov    %ecx,(%esp)
    3304:	e8 97 17 00 00       	call   4aa0 <surface_reset_damaged_region>
    3309:	8b 55 9c             	mov    -0x64(%ebp),%edx
    330c:	89 14 24             	mov    %edx,(%esp)
    330f:	e8 bc 9f 00 00       	call   d2d0 <fibril_mutex_unlock>
    3314:	8b 45 94             	mov    -0x6c(%ebp),%eax
    3317:	89 04 24             	mov    %eax,(%esp)
    331a:	e8 c1 15 00 00       	call   48e0 <surface_direct_access>
    331f:	8b 55 08             	mov    0x8(%ebp),%edx
    3322:	89 44 24 0c          	mov    %eax,0xc(%esp)
    3326:	89 7c 24 08          	mov    %edi,0x8(%esp)
    332a:	89 74 24 04          	mov    %esi,0x4(%esp)
    332e:	8b 42 0c             	mov    0xc(%edx),%eax
    3331:	89 04 24             	mov    %eax,(%esp)
    3334:	e8 37 0a 01 00       	call   13d70 <win_resize>
    3339:	85 c0                	test   %eax,%eax
    333b:	0f 84 0f 03 00 00    	je     3650 <event_loop+0x4f0>
    3341:	8b 45 98             	mov    -0x68(%ebp),%eax
    3344:	c7 45 b4 00 00 00 00 	movl   $0x0,-0x4c(%ebp)
    334b:	c7 45 b8 00 00 00 00 	movl   $0x0,-0x48(%ebp)
    3352:	85 c0                	test   %eax,%eax
    3354:	74 19                	je     336f <event_loop+0x20f>
    3356:	8d 4d b8             	lea    -0x48(%ebp),%ecx
    3359:	8d 45 b4             	lea    -0x4c(%ebp),%eax
    335c:	8b 55 98             	mov    -0x68(%ebp),%edx
    335f:	89 4c 24 08          	mov    %ecx,0x8(%esp)
    3363:	89 44 24 04          	mov    %eax,0x4(%esp)
    3367:	89 14 24             	mov    %edx,(%esp)
    336a:	e8 91 15 00 00       	call   4900 <surface_get_resolution>
    336f:	8b 55 9c             	mov    -0x64(%ebp),%edx
    3372:	89 14 24             	mov    %edx,(%esp)
    3375:	e8 36 9e 00 00       	call   d1b0 <fibril_mutex_lock>
    337a:	8b 55 08             	mov    0x8(%ebp),%edx
    337d:	8b 4d 98             	mov    -0x68(%ebp),%ecx
    3380:	8b b2 a0 00 00 00    	mov    0xa0(%edx),%esi
    3386:	89 8a a0 00 00 00    	mov    %ecx,0xa0(%edx)
    338c:	8b 55 9c             	mov    -0x64(%ebp),%edx
    338f:	89 14 24             	mov    %edx,(%esp)
    3392:	e8 39 9f 00 00       	call   d2d0 <fibril_mutex_unlock>
    3397:	8b 45 b8             	mov    -0x48(%ebp),%eax
    339a:	8b 55 a0             	mov    -0x60(%ebp),%edx
    339d:	89 44 24 10          	mov    %eax,0x10(%esp)
    33a1:	89 14 24             	mov    %edx,(%esp)
    33a4:	8b 45 b4             	mov    -0x4c(%ebp),%eax
    33a7:	8b 55 08             	mov    0x8(%ebp),%edx
    33aa:	89 44 24 0c          	mov    %eax,0xc(%esp)
    33ae:	c7 44 24 08 00 00 00 	movl   $0x0,0x8(%esp)
    33b5:	00 
    33b6:	c7 44 24 04 00 00 00 	movl   $0x0,0x4(%esp)
    33bd:	00 
    33be:	ff 52 78             	call   *0x78(%edx)
    33c1:	8b 55 08             	mov    0x8(%ebp),%edx
    33c4:	8b ba a0 00 00 00    	mov    0xa0(%edx),%edi
    33ca:	85 ff                	test   %edi,%edi
    33cc:	74 27                	je     33f5 <event_loop+0x295>
    33ce:	8b 55 9c             	mov    -0x64(%ebp),%edx
    33d1:	89 14 24             	mov    %edx,(%esp)
    33d4:	e8 d7 9d 00 00       	call   d1b0 <fibril_mutex_lock>
    33d9:	8b 55 08             	mov    0x8(%ebp),%edx
    33dc:	8b 82 a0 00 00 00    	mov    0xa0(%edx),%eax
    33e2:	89 04 24             	mov    %eax,(%esp)
    33e5:	e8 b6 16 00 00       	call   4aa0 <surface_reset_damaged_region>
    33ea:	8b 55 9c             	mov    -0x64(%ebp),%edx
    33ed:	89 14 24             	mov    %edx,(%esp)
    33f0:	e8 db 9e 00 00       	call   d2d0 <fibril_mutex_unlock>
    33f5:	89 34 24             	mov    %esi,(%esp)
    33f8:	e8 93 14 00 00       	call   4890 <surface_destroy>
    33fd:	e9 4e fe ff ff       	jmp    3250 <event_loop+0xf0>
    3402:	8d b6 00 00 00 00    	lea    0x0(%esi),%esi
    3408:	8b 55 08             	mov    0x8(%ebp),%edx
    340b:	80 7a 02 00          	cmpb   $0x0,0x2(%edx)
    340f:	0f 84 3b fe ff ff    	je     3250 <event_loop+0xf0>
    3415:	c6 42 02 00          	movb   $0x0,0x2(%edx)
    3419:	8b 55 a0             	mov    -0x60(%ebp),%edx
    341c:	89 14 24             	mov    %edx,(%esp)
    341f:	8b 55 08             	mov    0x8(%ebp),%edx
    3422:	ff 52 7c             	call   *0x7c(%edx)
    3425:	e9 26 fe ff ff       	jmp    3250 <event_loop+0xf0>
    342a:	8d b6 00 00 00 00    	lea    0x0(%esi),%esi
    3430:	8b 55 08             	mov    0x8(%ebp),%edx
    3433:	80 7a 02 00          	cmpb   $0x0,0x2(%edx)
    3437:	0f 85 13 fe ff ff    	jne    3250 <event_loop+0xf0>
    343d:	c6 42 02 01          	movb   $0x1,0x2(%edx)
    3441:	8b 55 a0             	mov    -0x60(%ebp),%edx
    3444:	89 14 24             	mov    %edx,(%esp)
    3447:	8b 55 08             	mov    0x8(%ebp),%edx
    344a:	ff 52 7c             	call   *0x7c(%edx)
    344d:	e9 fe fd ff ff       	jmp    3250 <event_loop+0xf0>
    3452:	8d b6 00 00 00 00    	lea    0x0(%esi),%esi
    3458:	8b 73 14             	mov    0x14(%ebx),%esi
    345b:	89 74 24 04          	mov    %esi,0x4(%esp)
    345f:	8b 43 0c             	mov    0xc(%ebx),%eax
    3462:	89 04 24             	mov    %eax,(%esp)
    3465:	ff 53 10             	call   *0x10(%ebx)
    3468:	89 34 24             	mov    %esi,(%esp)
    346b:	e8 20 2e 01 00       	call   16290 <free>
    3470:	e9 db fd ff ff       	jmp    3250 <event_loop+0xf0>
    3475:	8d 76 00             	lea    0x0(%esi),%esi
    3478:	8b 55 08             	mov    0x8(%ebp),%edx
    347b:	80 7a 02 00          	cmpb   $0x0,0x2(%edx)
    347f:	0f 84 b3 01 00 00    	je     3638 <event_loop+0x4d8>
    3485:	8b 4b 14             	mov    0x14(%ebx),%ecx
    3488:	8b 43 18             	mov    0x18(%ebx),%eax
    348b:	89 4d 90             	mov    %ecx,-0x70(%ebp)
    348e:	89 4d c4             	mov    %ecx,-0x3c(%ebp)
    3491:	8b 4d 08             	mov    0x8(%ebp),%ecx
    3494:	8b 7b 0c             	mov    0xc(%ebx),%edi
    3497:	8b 73 10             	mov    0x10(%ebx),%esi
    349a:	8b 53 1c             	mov    0x1c(%ebx),%edx
    349d:	89 45 98             	mov    %eax,-0x68(%ebp)
    34a0:	89 45 c8             	mov    %eax,-0x38(%ebp)
    34a3:	8b 81 88 00 00 00    	mov    0x88(%ecx),%eax
    34a9:	89 7d bc             	mov    %edi,-0x44(%ebp)
    34ac:	89 75 c0             	mov    %esi,-0x40(%ebp)
    34af:	89 55 cc             	mov    %edx,-0x34(%ebp)
    34b2:	89 7c 24 04          	mov    %edi,0x4(%esp)
    34b6:	89 74 24 08          	mov    %esi,0x8(%esp)
    34ba:	85 c0                	test   %eax,%eax
    34bc:	0f 84 c6 01 00 00    	je     3688 <event_loop+0x528>
    34c2:	8b 4d 90             	mov    -0x70(%ebp),%ecx
    34c5:	89 54 24 14          	mov    %edx,0x14(%esp)
    34c9:	89 4c 24 0c          	mov    %ecx,0xc(%esp)
    34cd:	8b 4d 98             	mov    -0x68(%ebp),%ecx
    34d0:	89 4c 24 10          	mov    %ecx,0x10(%esp)
    34d4:	89 04 24             	mov    %eax,(%esp)
    34d7:	ff 50 54             	call   *0x54(%eax)
    34da:	e9 71 fd ff ff       	jmp    3250 <event_loop+0xf0>
    34df:	90                   	nop
    34e0:	8b 55 08             	mov    0x8(%ebp),%edx
    34e3:	8b 45 a0             	mov    -0x60(%ebp),%eax
    34e6:	0f b6 3a             	movzbl (%edx),%edi
    34e9:	e8 82 fa ff ff       	call   2f70 <destroy_children>
    34ee:	8b 55 a0             	mov    -0x60(%ebp),%edx
    34f1:	89 14 24             	mov    %edx,(%esp)
    34f4:	8b 55 08             	mov    0x8(%ebp),%edx
    34f7:	ff 52 70             	call   *0x70(%edx)
    34fa:	8b 55 08             	mov    0x8(%ebp),%edx
    34fd:	8b 42 0c             	mov    0xc(%edx),%eax
    3500:	c7 82 88 00 00 00 00 	movl   $0x0,0x88(%edx)
    3507:	00 00 00 
    350a:	c7 82 8c 00 00 00 00 	movl   $0x0,0x8c(%edx)
    3511:	00 00 00 
    3514:	89 04 24             	mov    %eax,(%esp)
    3517:	e8 f4 08 01 00       	call   13e10 <win_close>
    351c:	8b 55 08             	mov    0x8(%ebp),%edx
    351f:	8b 42 08             	mov    0x8(%edx),%eax
    3522:	89 04 24             	mov    %eax,(%esp)
    3525:	e8 96 60 01 00       	call   195c0 <async_hangup>
    352a:	8b 55 08             	mov    0x8(%ebp),%edx
    352d:	8b 42 0c             	mov    0xc(%edx),%eax
    3530:	89 04 24             	mov    %eax,(%esp)
    3533:	e8 88 60 01 00       	call   195c0 <async_hangup>
    3538:	8b 55 08             	mov    0x8(%ebp),%edx
    353b:	89 d6                	mov    %edx,%esi
    353d:	8b 42 2c             	mov    0x2c(%edx),%eax
    3540:	83 c6 28             	add    $0x28,%esi
    3543:	39 f0                	cmp    %esi,%eax
    3545:	74 37                	je     357e <event_loop+0x41e>
    3547:	89 5d a4             	mov    %ebx,-0x5c(%ebp)
    354a:	8b 5d 08             	mov    0x8(%ebp),%ebx
    354d:	8d 76 00             	lea    0x0(%esi),%esi
    3550:	8b 08                	mov    (%eax),%ecx
    3552:	85 c9                	test   %ecx,%ecx
    3554:	74 0e                	je     3564 <event_loop+0x404>
    3556:	8b 50 04             	mov    0x4(%eax),%edx
    3559:	85 d2                	test   %edx,%edx
    355b:	74 07                	je     3564 <event_loop+0x404>
    355d:	89 0a                	mov    %ecx,(%edx)
    355f:	8b 08                	mov    (%eax),%ecx
    3561:	89 51 04             	mov    %edx,0x4(%ecx)
    3564:	c7 40 04 00 00 00 00 	movl   $0x0,0x4(%eax)
    356b:	c7 00 00 00 00 00    	movl   $0x0,(%eax)
    3571:	8b 43 2c             	mov    0x2c(%ebx),%eax
    3574:	39 f0                	cmp    %esi,%eax
    3576:	75 d8                	jne    3550 <event_loop+0x3f0>
    3578:	8b 5d a4             	mov    -0x5c(%ebp),%ebx
    357b:	8b 55 08             	mov    0x8(%ebp),%edx
    357e:	8b 82 a0 00 00 00    	mov    0xa0(%edx),%eax
    3584:	85 c0                	test   %eax,%eax
    3586:	74 08                	je     3590 <event_loop+0x430>
    3588:	89 04 24             	mov    %eax,(%esp)
    358b:	e8 00 13 00 00       	call   4890 <surface_destroy>
    3590:	8b 55 08             	mov    0x8(%ebp),%edx
    3593:	8b 42 04             	mov    0x4(%edx),%eax
    3596:	89 04 24             	mov    %eax,(%esp)
    3599:	e8 f2 2c 01 00       	call   16290 <free>
    359e:	8b 55 08             	mov    0x8(%ebp),%edx
    35a1:	89 14 24             	mov    %edx,(%esp)
    35a4:	e8 e7 2c 01 00       	call   16290 <free>
    35a9:	89 1c 24             	mov    %ebx,(%esp)
    35ac:	e8 df 2c 01 00       	call   16290 <free>
    35b1:	89 f9                	mov    %edi,%ecx
    35b3:	84 c9                	test   %cl,%cl
    35b5:	0f 85 f3 00 00 00    	jne    36ae <event_loop+0x54e>
    35bb:	81 c4 8c 00 00 00    	add    $0x8c,%esp
    35c1:	31 c0                	xor    %eax,%eax
    35c3:	5b                   	pop    %ebx
    35c4:	5e                   	pop    %esi
    35c5:	5f                   	pop    %edi
    35c6:	5d                   	pop    %ebp
    35c7:	c3                   	ret    
    35c8:	8d 55 d0             	lea    -0x30(%ebp),%edx
    35cb:	8d 73 0c             	lea    0xc(%ebx),%esi
    35ce:	b9 06 00 00 00       	mov    $0x6,%ecx
    35d3:	89 d7                	mov    %edx,%edi
    35d5:	f3 a5                	rep movsl %ds:(%esi),%es:(%edi)
    35d7:	8b 4d 08             	mov    0x8(%ebp),%ecx
    35da:	8d 7c 24 04          	lea    0x4(%esp),%edi
    35de:	89 d6                	mov    %edx,%esi
    35e0:	8b 81 8c 00 00 00    	mov    0x8c(%ecx),%eax
    35e6:	b9 06 00 00 00       	mov    $0x6,%ecx
    35eb:	f3 a5                	rep movsl %ds:(%esi),%es:(%edi)
    35ed:	85 c0                	test   %eax,%eax
    35ef:	74 7f                	je     3670 <event_loop+0x510>
    35f1:	89 04 24             	mov    %eax,(%esp)
    35f4:	ff 50 50             	call   *0x50(%eax)
    35f7:	e9 54 fc ff ff       	jmp    3250 <event_loop+0xf0>
    35fc:	8d 74 26 00          	lea    0x0(%esi,%eiz,1),%esi
    3600:	8b 55 08             	mov    0x8(%ebp),%edx
    3603:	c7 44 24 10 00 00 00 	movl   $0x0,0x10(%esp)
    360a:	00 
    360b:	c7 44 24 0c 00 00 00 	movl   $0x0,0xc(%esp)
    3612:	00 
    3613:	c7 44 24 08 00 00 00 	movl   $0x0,0x8(%esp)
    361a:	00 
    361b:	c7 44 24 04 00 00 00 	movl   $0x0,0x4(%esp)
    3622:	00 
    3623:	8b 42 0c             	mov    0xc(%edx),%eax
    3626:	89 04 24             	mov    %eax,(%esp)
    3629:	e8 42 06 01 00       	call   13c70 <win_damage>
    362e:	e9 1d fc ff ff       	jmp    3250 <event_loop+0xf0>
    3633:	90                   	nop
    3634:	8d 74 26 00          	lea    0x0(%esi,%eiz,1),%esi
    3638:	c6 42 02 01          	movb   $0x1,0x2(%edx)
    363c:	8b 55 a0             	mov    -0x60(%ebp),%edx
    363f:	89 14 24             	mov    %edx,(%esp)
    3642:	8b 55 08             	mov    0x8(%ebp),%edx
    3645:	ff 52 7c             	call   *0x7c(%edx)
    3648:	e9 38 fe ff ff       	jmp    3485 <event_loop+0x325>
    364d:	8d 76 00             	lea    0x0(%esi),%esi
    3650:	8b 75 98             	mov    -0x68(%ebp),%esi
    3653:	85 f6                	test   %esi,%esi
    3655:	0f 84 f5 fb ff ff    	je     3250 <event_loop+0xf0>
    365b:	8b 4d 98             	mov    -0x68(%ebp),%ecx
    365e:	89 0c 24             	mov    %ecx,(%esp)
    3661:	e8 2a 12 00 00       	call   4890 <surface_destroy>
    3666:	e9 e5 fb ff ff       	jmp    3250 <event_loop+0xf0>
    366b:	90                   	nop
    366c:	8d 74 26 00          	lea    0x0(%esi,%eiz,1),%esi
    3670:	8b 55 a0             	mov    -0x60(%ebp),%edx
    3673:	89 14 24             	mov    %edx,(%esp)
    3676:	8b 55 08             	mov    0x8(%ebp),%edx
    3679:	ff 92 80 00 00 00    	call   *0x80(%edx)
    367f:	e9 cc fb ff ff       	jmp    3250 <event_loop+0xf0>
    3684:	8d 74 26 00          	lea    0x0(%esi,%eiz,1),%esi
    3688:	89 54 24 14          	mov    %edx,0x14(%esp)
    368c:	8b 55 a0             	mov    -0x60(%ebp),%edx
    368f:	8b 45 90             	mov    -0x70(%ebp),%eax
    3692:	8b 4d 98             	mov    -0x68(%ebp),%ecx
    3695:	89 14 24             	mov    %edx,(%esp)
    3698:	8b 55 08             	mov    0x8(%ebp),%edx
    369b:	89 44 24 0c          	mov    %eax,0xc(%esp)
    369f:	89 4c 24 10          	mov    %ecx,0x10(%esp)
    36a3:	ff 92 84 00 00 00    	call   *0x84(%edx)
    36a9:	e9 a2 fb ff ff       	jmp    3250 <event_loop+0xf0>
    36ae:	c7 04 24 00 00 00 00 	movl   $0x0,(%esp)
    36b5:	e8 b6 2c 00 00       	call   6370 <exit>
    36ba:	8d b6 00 00 00 00    	lea    0x0(%esi),%esi

000036c0 <root_repaint>:
    36c0:	55                   	push   %ebp
    36c1:	89 e5                	mov    %esp,%ebp
    36c3:	57                   	push   %edi
    36c4:	56                   	push   %esi
    36c5:	53                   	push   %ebx
    36c6:	83 ec 1c             	sub    $0x1c,%esp
    36c9:	8b 7d 08             	mov    0x8(%ebp),%edi
    36cc:	8b 47 14             	mov    0x14(%edi),%eax
    36cf:	80 78 01 00          	cmpb   $0x0,0x1(%eax)
    36d3:	75 6b                	jne    3740 <root_repaint+0x80>
    36d5:	8b 5f 10             	mov    0x10(%edi),%ebx
    36d8:	8d 77 0c             	lea    0xc(%edi),%esi
    36db:	39 f3                	cmp    %esi,%ebx
    36dd:	74 0e                	je     36ed <root_repaint+0x2d>
    36df:	90                   	nop
    36e0:	89 1c 24             	mov    %ebx,(%esp)
    36e3:	ff 53 4c             	call   *0x4c(%ebx)
    36e6:	8b 5b 04             	mov    0x4(%ebx),%ebx
    36e9:	39 f3                	cmp    %esi,%ebx
    36eb:	75 f3                	jne    36e0 <root_repaint+0x20>
    36ed:	8b 5f 14             	mov    0x14(%edi),%ebx
    36f0:	80 7b 01 00          	cmpb   $0x0,0x1(%ebx)
    36f4:	75 0a                	jne    3700 <root_repaint+0x40>
    36f6:	83 c4 1c             	add    $0x1c,%esp
    36f9:	5b                   	pop    %ebx
    36fa:	5e                   	pop    %esi
    36fb:	5f                   	pop    %edi
    36fc:	5d                   	pop    %ebp
    36fd:	c3                   	ret    
    36fe:	66 90                	xchg   %ax,%ax
    3700:	c7 04 24 24 00 00 00 	movl   $0x24,(%esp)
    3707:	e8 74 2a 01 00       	call   16180 <malloc>
    370c:	85 c0                	test   %eax,%eax
    370e:	74 e6                	je     36f6 <root_repaint+0x36>
    3710:	83 c3 10             	add    $0x10,%ebx
    3713:	c7 00 00 00 00 00    	movl   $0x0,(%eax)
    3719:	c7 40 04 00 00 00 00 	movl   $0x0,0x4(%eax)
    3720:	c7 40 08 07 00 00 00 	movl   $0x7,0x8(%eax)
    3727:	89 1c 24             	mov    %ebx,(%esp)
    372a:	89 44 24 04          	mov    %eax,0x4(%esp)
    372e:	e8 dd 91 01 00       	call   1c910 <prodcons_produce>
    3733:	83 c4 1c             	add    $0x1c,%esp
    3736:	5b                   	pop    %ebx
    3737:	5e                   	pop    %esi
    3738:	5f                   	pop    %edi
    3739:	5d                   	pop    %ebp
    373a:	c3                   	ret    
    373b:	90                   	nop
    373c:	8d 74 26 00          	lea    0x0(%esi,%eiz,1),%esi
    3740:	89 f8                	mov    %edi,%eax
    3742:	e8 59 f4 ff ff       	call   2ba0 <paint_internal>
    3747:	eb 8c                	jmp    36d5 <root_repaint+0x15>
    3749:	8d b4 26 00 00 00 00 	lea    0x0(%esi,%eiz,1),%esi

00003750 <window_open>:
    3750:	55                   	push   %ebp
    3751:	89 e5                	mov    %esp,%ebp
    3753:	57                   	push   %edi
    3754:	56                   	push   %esi
    3755:	53                   	push   %ebx
    3756:	83 ec 3c             	sub    $0x3c,%esp
    3759:	8b 7d 0c             	mov    0xc(%ebp),%edi
    375c:	8b 75 10             	mov    0x10(%ebp),%esi
    375f:	c7 04 24 a4 00 00 00 	movl   $0xa4,(%esp)
    3766:	e8 15 2a 01 00       	call   16180 <malloc>
    376b:	89 c3                	mov    %eax,%ebx
    376d:	85 c0                	test   %eax,%eax
    376f:	0f 84 60 01 00 00    	je     38d5 <window_open+0x185>
    3775:	89 f8                	mov    %edi,%eax
    3777:	c6 43 02 01          	movb   $0x1,0x2(%ebx)
    377b:	88 03                	mov    %al,(%ebx)
    377d:	89 f0                	mov    %esi,%eax
    377f:	88 43 01             	mov    %al,0x1(%ebx)
    3782:	8d 43 10             	lea    0x10(%ebx),%eax
    3785:	89 04 24             	mov    %eax,(%esp)
    3788:	e8 53 91 01 00       	call   1c8e0 <prodcons_initialize>
    378d:	8d 83 90 00 00 00    	lea    0x90(%ebx),%eax
    3793:	89 04 24             	mov    %eax,(%esp)
    3796:	e8 f5 99 00 00       	call   d190 <fibril_mutex_initialize>
    379b:	8d 43 30             	lea    0x30(%ebx),%eax
    379e:	89 04 24             	mov    %eax,(%esp)
    37a1:	c7 44 24 04 00 00 00 	movl   $0x0,0x4(%esp)
    37a8:	00 
    37a9:	e8 22 ee ff ff       	call   25d0 <widget_init>
    37ae:	8d 45 dc             	lea    -0x24(%ebp),%eax
    37b1:	89 5b 44             	mov    %ebx,0x44(%ebx)
    37b4:	c7 43 70 f0 2a 00 00 	movl   $0x2af0,0x70(%ebx)
    37bb:	c7 43 74 00 2b 00 00 	movl   $0x2b00,0x74(%ebx)
    37c2:	c7 43 78 90 2e 00 00 	movl   $0x2e90,0x78(%ebx)
    37c9:	c7 43 7c c0 36 00 00 	movl   $0x36c0,0x7c(%ebx)
    37d0:	c7 83 80 00 00 00 c0 	movl   $0x26c0,0x80(%ebx)
    37d7:	26 00 00 
    37da:	c7 83 84 00 00 00 80 	movl   $0x2780,0x84(%ebx)
    37e1:	27 00 00 
    37e4:	c7 83 88 00 00 00 00 	movl   $0x0,0x88(%ebx)
    37eb:	00 00 00 
    37ee:	c7 83 8c 00 00 00 00 	movl   $0x0,0x8c(%ebx)
    37f5:	00 00 00 
    37f8:	c7 83 a0 00 00 00 00 	movl   $0x0,0xa0(%ebx)
    37ff:	00 00 00 
    3802:	89 44 24 04          	mov    %eax,0x4(%esp)
    3806:	8b 45 08             	mov    0x8(%ebp),%eax
    3809:	c7 44 24 08 00 00 00 	movl   $0x0,0x8(%esp)
    3810:	00 
    3811:	89 04 24             	mov    %eax,(%esp)
    3814:	e8 a7 3f 00 00       	call   77c0 <loc_service_get_id>
    3819:	85 c0                	test   %eax,%eax
    381b:	0f 85 df 00 00 00    	jne    3900 <window_open+0x1b0>
    3821:	8b 45 dc             	mov    -0x24(%ebp),%eax
    3824:	c7 44 24 08 00 00 00 	movl   $0x0,0x8(%esp)
    382b:	00 
    382c:	89 44 24 04          	mov    %eax,0x4(%esp)
    3830:	c7 04 24 02 00 00 00 	movl   $0x2,(%esp)
    3837:	e8 74 48 00 00       	call   80b0 <loc_service_connect>
    383c:	89 c6                	mov    %eax,%esi
    383e:	85 c0                	test   %eax,%eax
    3840:	0f 84 ba 00 00 00    	je     3900 <window_open+0x1b0>
    3846:	8b 45 1c             	mov    0x1c(%ebp),%eax
    3849:	89 34 24             	mov    %esi,(%esp)
    384c:	89 44 24 10          	mov    %eax,0x10(%esp)
    3850:	8b 45 18             	mov    0x18(%ebp),%eax
    3853:	89 44 24 0c          	mov    %eax,0xc(%esp)
    3857:	8d 45 e4             	lea    -0x1c(%ebp),%eax
    385a:	89 44 24 08          	mov    %eax,0x8(%esp)
    385e:	8d 45 e0             	lea    -0x20(%ebp),%eax
    3861:	89 44 24 04          	mov    %eax,0x4(%esp)
    3865:	e8 e6 02 01 00       	call   13b50 <win_register>
    386a:	89 34 24             	mov    %esi,(%esp)
    386d:	89 c7                	mov    %eax,%edi
    386f:	e8 4c 5d 01 00       	call   195c0 <async_hangup>
    3874:	85 ff                	test   %edi,%edi
    3876:	0f 85 84 00 00 00    	jne    3900 <window_open+0x1b0>
    387c:	8b 45 e4             	mov    -0x1c(%ebp),%eax
    387f:	c7 44 24 08 00 00 00 	movl   $0x0,0x8(%esp)
    3886:	00 
    3887:	89 44 24 04          	mov    %eax,0x4(%esp)
    388b:	c7 04 24 02 00 00 00 	movl   $0x2,(%esp)
    3892:	e8 19 48 00 00       	call   80b0 <loc_service_connect>
    3897:	89 43 0c             	mov    %eax,0xc(%ebx)
    389a:	85 c0                	test   %eax,%eax
    389c:	74 62                	je     3900 <window_open+0x1b0>
    389e:	8b 45 e0             	mov    -0x20(%ebp),%eax
    38a1:	c7 44 24 08 00 00 00 	movl   $0x0,0x8(%esp)
    38a8:	00 
    38a9:	89 44 24 04          	mov    %eax,0x4(%esp)
    38ad:	c7 04 24 02 00 00 00 	movl   $0x2,(%esp)
    38b4:	e8 f7 47 00 00       	call   80b0 <loc_service_connect>
    38b9:	89 43 08             	mov    %eax,0x8(%ebx)
    38bc:	85 c0                	test   %eax,%eax
    38be:	74 31                	je     38f1 <window_open+0x1a1>
    38c0:	8b 45 14             	mov    0x14(%ebp),%eax
    38c3:	85 c0                	test   %eax,%eax
    38c5:	74 19                	je     38e0 <window_open+0x190>
    38c7:	8b 45 14             	mov    0x14(%ebp),%eax
    38ca:	89 04 24             	mov    %eax,(%esp)
    38cd:	e8 5e 86 00 00       	call   bf30 <str_dup>
    38d2:	89 43 04             	mov    %eax,0x4(%ebx)
    38d5:	83 c4 3c             	add    $0x3c,%esp
    38d8:	89 d8                	mov    %ebx,%eax
    38da:	5b                   	pop    %ebx
    38db:	5e                   	pop    %esi
    38dc:	5f                   	pop    %edi
    38dd:	5d                   	pop    %ebp
    38de:	c3                   	ret    
    38df:	90                   	nop
    38e0:	c7 43 04 00 00 00 00 	movl   $0x0,0x4(%ebx)
    38e7:	83 c4 3c             	add    $0x3c,%esp
    38ea:	89 d8                	mov    %ebx,%eax
    38ec:	5b                   	pop    %ebx
    38ed:	5e                   	pop    %esi
    38ee:	5f                   	pop    %edi
    38ef:	5d                   	pop    %ebp
    38f0:	c3                   	ret    
    38f1:	8b 43 0c             	mov    0xc(%ebx),%eax
    38f4:	89 04 24             	mov    %eax,(%esp)
    38f7:	e8 c4 5c 01 00       	call   195c0 <async_hangup>
    38fc:	8d 74 26 00          	lea    0x0(%esi,%eiz,1),%esi
    3900:	89 1c 24             	mov    %ebx,(%esp)
    3903:	31 db                	xor    %ebx,%ebx
    3905:	e8 86 29 01 00       	call   16290 <free>
    390a:	83 c4 3c             	add    $0x3c,%esp
    390d:	89 d8                	mov    %ebx,%eax
    390f:	5b                   	pop    %ebx
    3910:	5e                   	pop    %esi
    3911:	5f                   	pop    %edi
    3912:	5d                   	pop    %ebp
    3913:	c3                   	ret    
    3914:	8d b6 00 00 00 00    	lea    0x0(%esi),%esi
    391a:	8d bf 00 00 00 00    	lea    0x0(%edi),%edi

00003920 <window_resize>:
    3920:	55                   	push   %ebp
    3921:	89 e5                	mov    %esp,%ebp
    3923:	57                   	push   %edi
    3924:	56                   	push   %esi
    3925:	53                   	push   %ebx
    3926:	83 ec 1c             	sub    $0x1c,%esp
    3929:	8b 5d 08             	mov    0x8(%ebp),%ebx
    392c:	8b 7d 0c             	mov    0xc(%ebp),%edi
    392f:	c7 04 24 24 00 00 00 	movl   $0x24,(%esp)
    3936:	8b 75 10             	mov    0x10(%ebp),%esi
    3939:	e8 42 28 01 00       	call   16180 <malloc>
    393e:	85 c0                	test   %eax,%eax
    3940:	74 36                	je     3978 <window_resize+0x58>
    3942:	83 c3 10             	add    $0x10,%ebx
    3945:	c7 00 00 00 00 00    	movl   $0x0,(%eax)
    394b:	c7 40 04 00 00 00 00 	movl   $0x0,0x4(%eax)
    3952:	c7 40 08 05 00 00 00 	movl   $0x5,0x8(%eax)
    3959:	89 78 0c             	mov    %edi,0xc(%eax)
    395c:	89 70 10             	mov    %esi,0x10(%eax)
    395f:	89 5d 08             	mov    %ebx,0x8(%ebp)
    3962:	89 45 0c             	mov    %eax,0xc(%ebp)
    3965:	83 c4 1c             	add    $0x1c,%esp
    3968:	5b                   	pop    %ebx
    3969:	5e                   	pop    %esi
    396a:	5f                   	pop    %edi
    396b:	5d                   	pop    %ebp
    396c:	e9 9f 8f 01 00       	jmp    1c910 <prodcons_produce>
    3971:	8d b4 26 00 00 00 00 	lea    0x0(%esi,%eiz,1),%esi
    3978:	83 c4 1c             	add    $0x1c,%esp
    397b:	5b                   	pop    %ebx
    397c:	5e                   	pop    %esi
    397d:	5f                   	pop    %edi
    397e:	5d                   	pop    %ebp
    397f:	c3                   	ret    

00003980 <window_refresh>:
    3980:	55                   	push   %ebp
    3981:	89 e5                	mov    %esp,%ebp
    3983:	83 ec 18             	sub    $0x18,%esp
    3986:	c7 04 24 24 00 00 00 	movl   $0x24,(%esp)
    398d:	e8 ee 27 01 00       	call   16180 <malloc>
    3992:	85 c0                	test   %eax,%eax
    3994:	74 26                	je     39bc <window_refresh+0x3c>
    3996:	c7 00 00 00 00 00    	movl   $0x0,(%eax)
    399c:	c7 40 04 00 00 00 00 	movl   $0x0,0x4(%eax)
    39a3:	c7 40 08 06 00 00 00 	movl   $0x6,0x8(%eax)
    39aa:	89 44 24 04          	mov    %eax,0x4(%esp)
    39ae:	8b 45 08             	mov    0x8(%ebp),%eax
    39b1:	83 c0 10             	add    $0x10,%eax
    39b4:	89 04 24             	mov    %eax,(%esp)
    39b7:	e8 54 8f 01 00       	call   1c910 <prodcons_produce>
    39bc:	c9                   	leave  
    39bd:	c3                   	ret    
    39be:	66 90                	xchg   %ax,%ax

000039c0 <window_damage>:
    39c0:	55                   	push   %ebp
    39c1:	89 e5                	mov    %esp,%ebp
    39c3:	83 ec 18             	sub    $0x18,%esp
    39c6:	c7 04 24 24 00 00 00 	movl   $0x24,(%esp)
    39cd:	e8 ae 27 01 00       	call   16180 <malloc>
    39d2:	85 c0                	test   %eax,%eax
    39d4:	74 26                	je     39fc <window_damage+0x3c>
    39d6:	c7 00 00 00 00 00    	movl   $0x0,(%eax)
    39dc:	c7 40 04 00 00 00 00 	movl   $0x0,0x4(%eax)
    39e3:	c7 40 08 07 00 00 00 	movl   $0x7,0x8(%eax)
    39ea:	89 44 24 04          	mov    %eax,0x4(%esp)
    39ee:	8b 45 08             	mov    0x8(%ebp),%eax
    39f1:	83 c0 10             	add    $0x10,%eax
    39f4:	89 04 24             	mov    %eax,(%esp)
    39f7:	e8 14 8f 01 00       	call   1c910 <prodcons_produce>
    39fc:	c9                   	leave  
    39fd:	c3                   	ret    
    39fe:	66 90                	xchg   %ax,%ax

00003a00 <window_root>:
    3a00:	55                   	push   %ebp
    3a01:	89 e5                	mov    %esp,%ebp
    3a03:	8b 45 08             	mov    0x8(%ebp),%eax
    3a06:	5d                   	pop    %ebp
    3a07:	83 c0 30             	add    $0x30,%eax
    3a0a:	c3                   	ret    
    3a0b:	90                   	nop
    3a0c:	8d 74 26 00          	lea    0x0(%esi,%eiz,1),%esi

00003a10 <window_exec>:
    3a10:	55                   	push   %ebp
    3a11:	89 e5                	mov    %esp,%ebp
    3a13:	56                   	push   %esi
    3a14:	53                   	push   %ebx
    3a15:	83 ec 20             	sub    $0x20,%esp
    3a18:	8b 5d 08             	mov    0x8(%ebp),%ebx
    3a1b:	89 5c 24 04          	mov    %ebx,0x4(%esp)
    3a1f:	c7 04 24 60 31 00 00 	movl   $0x3160,(%esp)
    3a26:	e8 a5 92 00 00       	call   ccd0 <fibril_create>
    3a2b:	89 5c 24 04          	mov    %ebx,0x4(%esp)
    3a2f:	c7 04 24 00 27 00 00 	movl   $0x2700,(%esp)
    3a36:	89 c6                	mov    %eax,%esi
    3a38:	e8 93 92 00 00       	call   ccd0 <fibril_create>
    3a3d:	85 c0                	test   %eax,%eax
    3a3f:	75 07                	jne    3a48 <window_exec+0x38>
    3a41:	83 c4 20             	add    $0x20,%esp
    3a44:	5b                   	pop    %ebx
    3a45:	5e                   	pop    %esi
    3a46:	5d                   	pop    %ebp
    3a47:	c3                   	ret    
    3a48:	85 f6                	test   %esi,%esi
    3a4a:	74 f5                	je     3a41 <window_exec+0x31>
    3a4c:	89 34 24             	mov    %esi,(%esp)
    3a4f:	89 45 f4             	mov    %eax,-0xc(%ebp)
    3a52:	e8 b9 93 00 00       	call   ce10 <fibril_add_ready>
    3a57:	8b 45 f4             	mov    -0xc(%ebp),%eax
    3a5a:	89 45 08             	mov    %eax,0x8(%ebp)
    3a5d:	83 c4 20             	add    $0x20,%esp
    3a60:	5b                   	pop    %ebx
    3a61:	5e                   	pop    %esi
    3a62:	5d                   	pop    %ebp
    3a63:	e9 a8 93 00 00       	jmp    ce10 <fibril_add_ready>
    3a68:	90                   	nop
    3a69:	8d b4 26 00 00 00 00 	lea    0x0(%esi,%eiz,1),%esi

00003a70 <window_claim>:
    3a70:	55                   	push   %ebp
    3a71:	89 e5                	mov    %esp,%ebp
    3a73:	53                   	push   %ebx
    3a74:	83 ec 14             	sub    $0x14,%esp
    3a77:	8b 5d 08             	mov    0x8(%ebp),%ebx
    3a7a:	8d 83 90 00 00 00    	lea    0x90(%ebx),%eax
    3a80:	89 04 24             	mov    %eax,(%esp)
    3a83:	e8 28 97 00 00       	call   d1b0 <fibril_mutex_lock>
    3a88:	8b 83 a0 00 00 00    	mov    0xa0(%ebx),%eax
    3a8e:	83 c4 14             	add    $0x14,%esp
    3a91:	5b                   	pop    %ebx
    3a92:	5d                   	pop    %ebp
    3a93:	c3                   	ret    
    3a94:	8d b6 00 00 00 00    	lea    0x0(%esi),%esi
    3a9a:	8d bf 00 00 00 00    	lea    0x0(%edi),%edi

00003aa0 <window_yield>:
    3aa0:	55                   	push   %ebp
    3aa1:	89 e5                	mov    %esp,%ebp
    3aa3:	8b 45 08             	mov    0x8(%ebp),%eax
    3aa6:	05 90 00 00 00       	add    $0x90,%eax
    3aab:	89 45 08             	mov    %eax,0x8(%ebp)
    3aae:	5d                   	pop    %ebp
    3aaf:	e9 1c 98 00 00       	jmp    d2d0 <fibril_mutex_unlock>
    3ab4:	8d b6 00 00 00 00    	lea    0x0(%esi),%esi
    3aba:	8d bf 00 00 00 00    	lea    0x0(%edi),%edi

00003ac0 <window_close>:
    3ac0:	55                   	push   %ebp
    3ac1:	89 e5                	mov    %esp,%ebp
    3ac3:	8b 45 08             	mov    0x8(%ebp),%eax
    3ac6:	8b 40 0c             	mov    0xc(%eax),%eax
    3ac9:	89 45 08             	mov    %eax,0x8(%ebp)
    3acc:	5d                   	pop    %ebp
    3acd:	e9 be 03 01 00       	jmp    13e90 <win_close_request>
    3ad2:	66 90                	xchg   %ax,%ax
    3ad4:	66 90                	xchg   %ax,%ax
    3ad6:	66 90                	xchg   %ax,%ax
    3ad8:	66 90                	xchg   %ax,%ax
    3ada:	66 90                	xchg   %ax,%ax
    3adc:	66 90                	xchg   %ax,%ax
    3ade:	66 90                	xchg   %ax,%ax

00003ae0 <drawctx_init>:
    3ae0:	55                   	push   %ebp
    3ae1:	89 e5                	mov    %esp,%ebp
    3ae3:	83 ec 18             	sub    $0x18,%esp
    3ae6:	8b 55 0c             	mov    0xc(%ebp),%edx
    3ae9:	8b 45 08             	mov    0x8(%ebp),%eax
    3aec:	85 d2                	test   %edx,%edx
    3aee:	74 4b                	je     3b3b <drawctx_init+0x5b>
    3af0:	8d 48 08             	lea    0x8(%eax),%ecx
    3af3:	89 50 10             	mov    %edx,0x10(%eax)
    3af6:	89 48 08             	mov    %ecx,0x8(%eax)
    3af9:	89 48 0c             	mov    %ecx,0xc(%eax)
    3afc:	c7 40 14 90 58 00 00 	movl   $0x5890,0x14(%eax)
    3b03:	c7 40 18 00 00 00 00 	movl   $0x0,0x18(%eax)
    3b0a:	c7 40 1c 00 00 00 00 	movl   $0x0,0x1c(%eax)
    3b11:	c6 40 24 00          	movb   $0x0,0x24(%eax)
    3b15:	c7 40 28 00 00 00 00 	movl   $0x0,0x28(%eax)
    3b1c:	c7 40 2c 00 00 00 00 	movl   $0x0,0x2c(%eax)
    3b23:	8d 48 34             	lea    0x34(%eax),%ecx
    3b26:	83 c0 30             	add    $0x30,%eax
    3b29:	89 4c 24 08          	mov    %ecx,0x8(%esp)
    3b2d:	89 44 24 04          	mov    %eax,0x4(%esp)
    3b31:	89 14 24             	mov    %edx,(%esp)
    3b34:	e8 c7 0d 00 00       	call   4900 <surface_get_resolution>
    3b39:	c9                   	leave  
    3b3a:	c3                   	ret    
    3b3b:	c7 44 24 08 2d 00 00 	movl   $0x2d,0x8(%esp)
    3b42:	00 
    3b43:	c7 44 24 04 c8 2f 02 	movl   $0x22fc8,0x4(%esp)
    3b4a:	00 
    3b4b:	c7 04 24 d2 2f 02 00 	movl   $0x22fd2,(%esp)
    3b52:	e8 09 cf 01 00       	call   20a60 <assert_abort>
    3b57:	89 f6                	mov    %esi,%esi
    3b59:	8d bc 27 00 00 00 00 	lea    0x0(%edi,%eiz,1),%edi

00003b60 <drawctx_save>:
    3b60:	55                   	push   %ebp
    3b61:	89 e5                	mov    %esp,%ebp
    3b63:	53                   	push   %ebx
    3b64:	83 ec 14             	sub    $0x14,%esp
    3b67:	8b 5d 08             	mov    0x8(%ebp),%ebx
    3b6a:	c7 04 24 38 00 00 00 	movl   $0x38,(%esp)
    3b71:	e8 0a 26 01 00       	call   16180 <malloc>
    3b76:	85 c0                	test   %eax,%eax
    3b78:	74 47                	je     3bc1 <drawctx_save+0x61>
    3b7a:	8b 53 14             	mov    0x14(%ebx),%edx
    3b7d:	c7 00 00 00 00 00    	movl   $0x0,(%eax)
    3b83:	89 50 14             	mov    %edx,0x14(%eax)
    3b86:	8b 53 18             	mov    0x18(%ebx),%edx
    3b89:	89 50 18             	mov    %edx,0x18(%eax)
    3b8c:	8b 53 1c             	mov    0x1c(%ebx),%edx
    3b8f:	89 50 1c             	mov    %edx,0x1c(%eax)
    3b92:	8a 53 24             	mov    0x24(%ebx),%dl
    3b95:	88 50 24             	mov    %dl,0x24(%eax)
    3b98:	8b 53 28             	mov    0x28(%ebx),%edx
    3b9b:	89 50 28             	mov    %edx,0x28(%eax)
    3b9e:	8b 53 2c             	mov    0x2c(%ebx),%edx
    3ba1:	89 50 2c             	mov    %edx,0x2c(%eax)
    3ba4:	8b 53 30             	mov    0x30(%ebx),%edx
    3ba7:	89 50 30             	mov    %edx,0x30(%eax)
    3baa:	8b 53 34             	mov    0x34(%ebx),%edx
    3bad:	89 50 34             	mov    %edx,0x34(%eax)
    3bb0:	8d 53 08             	lea    0x8(%ebx),%edx
    3bb3:	89 50 04             	mov    %edx,0x4(%eax)
    3bb6:	8b 53 08             	mov    0x8(%ebx),%edx
    3bb9:	89 10                	mov    %edx,(%eax)
    3bbb:	89 43 08             	mov    %eax,0x8(%ebx)
    3bbe:	89 42 04             	mov    %eax,0x4(%edx)
    3bc1:	83 c4 14             	add    $0x14,%esp
    3bc4:	5b                   	pop    %ebx
    3bc5:	5d                   	pop    %ebp
    3bc6:	c3                   	ret    
    3bc7:	89 f6                	mov    %esi,%esi
    3bc9:	8d bc 27 00 00 00 00 	lea    0x0(%edi,%eiz,1),%edi

00003bd0 <drawctx_restore>:
    3bd0:	55                   	push   %ebp
    3bd1:	89 e5                	mov    %esp,%ebp
    3bd3:	53                   	push   %ebx
    3bd4:	8b 55 08             	mov    0x8(%ebp),%edx
    3bd7:	8b 42 08             	mov    0x8(%edx),%eax
    3bda:	8d 4a 08             	lea    0x8(%edx),%ecx
    3bdd:	39 c8                	cmp    %ecx,%eax
    3bdf:	74 5f                	je     3c40 <drawctx_restore+0x70>
    3be1:	85 c0                	test   %eax,%eax
    3be3:	74 5b                	je     3c40 <drawctx_restore+0x70>
    3be5:	8b 18                	mov    (%eax),%ebx
    3be7:	85 db                	test   %ebx,%ebx
    3be9:	74 0e                	je     3bf9 <drawctx_restore+0x29>
    3beb:	8b 48 04             	mov    0x4(%eax),%ecx
    3bee:	85 c9                	test   %ecx,%ecx
    3bf0:	74 07                	je     3bf9 <drawctx_restore+0x29>
    3bf2:	89 19                	mov    %ebx,(%ecx)
    3bf4:	8b 18                	mov    (%eax),%ebx
    3bf6:	89 4b 04             	mov    %ecx,0x4(%ebx)
    3bf9:	8b 48 14             	mov    0x14(%eax),%ecx
    3bfc:	c7 00 00 00 00 00    	movl   $0x0,(%eax)
    3c02:	c7 40 04 00 00 00 00 	movl   $0x0,0x4(%eax)
    3c09:	89 4a 14             	mov    %ecx,0x14(%edx)
    3c0c:	8b 48 18             	mov    0x18(%eax),%ecx
    3c0f:	89 4a 18             	mov    %ecx,0x18(%edx)
    3c12:	8b 48 1c             	mov    0x1c(%eax),%ecx
    3c15:	89 4a 1c             	mov    %ecx,0x1c(%edx)
    3c18:	8a 48 24             	mov    0x24(%eax),%cl
    3c1b:	88 4a 24             	mov    %cl,0x24(%edx)
    3c1e:	8b 48 28             	mov    0x28(%eax),%ecx
    3c21:	89 4a 28             	mov    %ecx,0x28(%edx)
    3c24:	8b 48 2c             	mov    0x2c(%eax),%ecx
    3c27:	89 4a 2c             	mov    %ecx,0x2c(%edx)
    3c2a:	8b 48 30             	mov    0x30(%eax),%ecx
    3c2d:	89 4a 30             	mov    %ecx,0x30(%edx)
    3c30:	8b 48 34             	mov    0x34(%eax),%ecx
    3c33:	89 4a 34             	mov    %ecx,0x34(%edx)
    3c36:	89 45 08             	mov    %eax,0x8(%ebp)
    3c39:	5b                   	pop    %ebx
    3c3a:	5d                   	pop    %ebp
    3c3b:	e9 50 26 01 00       	jmp    16290 <free>
    3c40:	5b                   	pop    %ebx
    3c41:	5d                   	pop    %ebp
    3c42:	c3                   	ret    
    3c43:	8d b6 00 00 00 00    	lea    0x0(%esi),%esi
    3c49:	8d bc 27 00 00 00 00 	lea    0x0(%edi,%eiz,1),%edi

00003c50 <drawctx_set_compose>:
    3c50:	55                   	push   %ebp
    3c51:	89 e5                	mov    %esp,%ebp
    3c53:	8b 45 08             	mov    0x8(%ebp),%eax
    3c56:	8b 55 0c             	mov    0xc(%ebp),%edx
    3c59:	89 50 14             	mov    %edx,0x14(%eax)
    3c5c:	5d                   	pop    %ebp
    3c5d:	c3                   	ret    
    3c5e:	66 90                	xchg   %ax,%ax

00003c60 <drawctx_set_clip>:
    3c60:	55                   	push   %ebp
    3c61:	89 e5                	mov    %esp,%ebp
    3c63:	57                   	push   %edi
    3c64:	56                   	push   %esi
    3c65:	53                   	push   %ebx
    3c66:	83 ec 1c             	sub    $0x1c,%esp
    3c69:	8b 5d 08             	mov    0x8(%ebp),%ebx
    3c6c:	8b 75 0c             	mov    0xc(%ebp),%esi
    3c6f:	8b 7d 14             	mov    0x14(%ebp),%edi
    3c72:	8d 53 34             	lea    0x34(%ebx),%edx
    3c75:	89 54 24 08          	mov    %edx,0x8(%esp)
    3c79:	8d 53 30             	lea    0x30(%ebx),%edx
    3c7c:	89 54 24 04          	mov    %edx,0x4(%esp)
    3c80:	8b 53 10             	mov    0x10(%ebx),%edx
    3c83:	89 14 24             	mov    %edx,(%esp)
    3c86:	e8 75 0c 00 00       	call   4900 <surface_get_resolution>
    3c8b:	8b 45 10             	mov    0x10(%ebp),%eax
    3c8e:	b2 01                	mov    $0x1,%dl
    3c90:	09 f0                	or     %esi,%eax
    3c92:	75 0e                	jne    3ca2 <drawctx_set_clip+0x42>
    3c94:	39 7b 30             	cmp    %edi,0x30(%ebx)
    3c97:	77 09                	ja     3ca2 <drawctx_set_clip+0x42>
    3c99:	8b 45 18             	mov    0x18(%ebp),%eax
    3c9c:	39 43 34             	cmp    %eax,0x34(%ebx)
    3c9f:	0f 97 c2             	seta   %dl
    3ca2:	8b 45 10             	mov    0x10(%ebp),%eax
    3ca5:	88 53 24             	mov    %dl,0x24(%ebx)
    3ca8:	89 43 2c             	mov    %eax,0x2c(%ebx)
    3cab:	8b 45 18             	mov    0x18(%ebp),%eax
    3cae:	89 73 28             	mov    %esi,0x28(%ebx)
    3cb1:	89 7b 30             	mov    %edi,0x30(%ebx)
    3cb4:	89 43 34             	mov    %eax,0x34(%ebx)
    3cb7:	83 c4 1c             	add    $0x1c,%esp
    3cba:	5b                   	pop    %ebx
    3cbb:	5e                   	pop    %esi
    3cbc:	5f                   	pop    %edi
    3cbd:	5d                   	pop    %ebp
    3cbe:	c3                   	ret    
    3cbf:	90                   	nop

00003cc0 <drawctx_set_mask>:
    3cc0:	55                   	push   %ebp
    3cc1:	89 e5                	mov    %esp,%ebp
    3cc3:	8b 45 08             	mov    0x8(%ebp),%eax
    3cc6:	8b 55 0c             	mov    0xc(%ebp),%edx
    3cc9:	89 50 18             	mov    %edx,0x18(%eax)
    3ccc:	5d                   	pop    %ebp
    3ccd:	c3                   	ret    
    3cce:	66 90                	xchg   %ax,%ax

00003cd0 <drawctx_set_source>:
    3cd0:	55                   	push   %ebp
    3cd1:	89 e5                	mov    %esp,%ebp
    3cd3:	8b 45 08             	mov    0x8(%ebp),%eax
    3cd6:	8b 55 0c             	mov    0xc(%ebp),%edx
    3cd9:	89 50 1c             	mov    %edx,0x1c(%eax)
    3cdc:	5d                   	pop    %ebp
    3cdd:	c3                   	ret    
    3cde:	66 90                	xchg   %ax,%ax

00003ce0 <drawctx_set_font>:
    3ce0:	55                   	push   %ebp
    3ce1:	89 e5                	mov    %esp,%ebp
    3ce3:	8b 45 08             	mov    0x8(%ebp),%eax
    3ce6:	8b 55 0c             	mov    0xc(%ebp),%edx
    3ce9:	89 50 20             	mov    %edx,0x20(%eax)
    3cec:	5d                   	pop    %ebp
    3ced:	c3                   	ret    
    3cee:	66 90                	xchg   %ax,%ax

00003cf0 <drawctx_transfer>:
    3cf0:	55                   	push   %ebp
    3cf1:	89 e5                	mov    %esp,%ebp
    3cf3:	57                   	push   %edi
    3cf4:	56                   	push   %esi
    3cf5:	53                   	push   %ebx
    3cf6:	83 ec 6c             	sub    $0x6c,%esp
    3cf9:	8b 75 0c             	mov    0xc(%ebp),%esi
    3cfc:	8b 7d 08             	mov    0x8(%ebp),%edi
    3cff:	89 75 c4             	mov    %esi,-0x3c(%ebp)
    3d02:	8b 75 10             	mov    0x10(%ebp),%esi
    3d05:	89 75 c8             	mov    %esi,-0x38(%ebp)
    3d08:	8b 47 1c             	mov    0x1c(%edi),%eax
    3d0b:	8b 75 18             	mov    0x18(%ebp),%esi
    3d0e:	8b 5d 14             	mov    0x14(%ebp),%ebx
    3d11:	89 75 c0             	mov    %esi,-0x40(%ebp)
    3d14:	85 c0                	test   %eax,%eax
    3d16:	0f 84 32 01 00 00    	je     3e4e <drawctx_transfer+0x15e>
    3d1c:	89 04 24             	mov    %eax,(%esp)
    3d1f:	e8 fc 07 00 00       	call   4520 <source_is_fast>
    3d24:	84 c0                	test   %al,%al
    3d26:	0f 85 2a 01 00 00    	jne    3e56 <drawctx_transfer+0x166>
    3d2c:	8b 75 c0             	mov    -0x40(%ebp),%esi
    3d2f:	8b 45 c8             	mov    -0x38(%ebp),%eax
    3d32:	01 c6                	add    %eax,%esi
    3d34:	89 75 c0             	mov    %esi,-0x40(%ebp)
    3d37:	39 75 c8             	cmp    %esi,-0x38(%ebp)
    3d3a:	0f 83 0e 01 00 00    	jae    3e4e <drawctx_transfer+0x15e>
    3d40:	8b 4d c4             	mov    -0x3c(%ebp),%ecx
    3d43:	8b 75 c8             	mov    -0x38(%ebp),%esi
    3d46:	01 cb                	add    %ecx,%ebx
    3d48:	c6 45 d0 00          	movb   $0x0,-0x30(%ebp)
    3d4c:	89 5d d8             	mov    %ebx,-0x28(%ebp)
    3d4f:	31 c9                	xor    %ecx,%ecx
    3d51:	8d b4 26 00 00 00 00 	lea    0x0(%esi,%eiz,1),%esi
    3d58:	8b 5d c4             	mov    -0x3c(%ebp),%ebx
    3d5b:	89 75 c8             	mov    %esi,-0x38(%ebp)
    3d5e:	c7 45 cc 00 00 00 00 	movl   $0x0,-0x34(%ebp)
    3d65:	39 5d d8             	cmp    %ebx,-0x28(%ebp)
    3d68:	77 10                	ja     3d7a <drawctx_transfer+0x8a>
    3d6a:	e9 d5 00 00 00       	jmp    3e44 <drawctx_transfer+0x154>
    3d6f:	90                   	nop
    3d70:	43                   	inc    %ebx
    3d71:	39 5d d8             	cmp    %ebx,-0x28(%ebp)
    3d74:	0f 86 ca 00 00 00    	jbe    3e44 <drawctx_transfer+0x154>
    3d7a:	80 7f 24 00          	cmpb   $0x0,0x24(%edi)
    3d7e:	74 28                	je     3da8 <drawctx_transfer+0xb8>
    3d80:	39 5f 28             	cmp    %ebx,0x28(%edi)
    3d83:	0f 86 c7 01 00 00    	jbe    3f50 <drawctx_transfer+0x260>
    3d89:	39 5f 30             	cmp    %ebx,0x30(%edi)
    3d8c:	0f 87 be 01 00 00    	ja     3f50 <drawctx_transfer+0x260>
    3d92:	39 77 2c             	cmp    %esi,0x2c(%edi)
    3d95:	0f 86 b5 01 00 00    	jbe    3f50 <drawctx_transfer+0x260>
    3d9b:	3b 77 34             	cmp    0x34(%edi),%esi
    3d9e:	0f 93 45 d0          	setae  -0x30(%ebp)
    3da2:	8d b6 00 00 00 00    	lea    0x0(%esi),%esi
    3da8:	8a 45 d0             	mov    -0x30(%ebp),%al
    3dab:	83 f0 01             	xor    $0x1,%eax
    3dae:	88 45 df             	mov    %al,-0x21(%ebp)
    3db1:	8b 47 18             	mov    0x18(%edi),%eax
    3db4:	85 c0                	test   %eax,%eax
    3db6:	74 15                	je     3dcd <drawctx_transfer+0xdd>
    3db8:	89 74 24 08          	mov    %esi,0x8(%esp)
    3dbc:	89 5c 24 04          	mov    %ebx,0x4(%esp)
    3dc0:	89 04 24             	mov    %eax,(%esp)
    3dc3:	e8 78 0d 00 00       	call   4b40 <surface_get_pixel>
    3dc8:	85 c0                	test   %eax,%eax
    3dca:	0f 94 c1             	sete   %cl
    3dcd:	84 c9                	test   %cl,%cl
    3dcf:	75 9f                	jne    3d70 <drawctx_transfer+0x80>
    3dd1:	80 7d df 00          	cmpb   $0x0,-0x21(%ebp)
    3dd5:	74 99                	je     3d70 <drawctx_transfer+0x80>
    3dd7:	df 6d c8             	fildll -0x38(%ebp)
    3dda:	31 d2                	xor    %edx,%edx
    3ddc:	89 5d e0             	mov    %ebx,-0x20(%ebp)
    3ddf:	dd 5c 24 0c          	fstpl  0xc(%esp)
    3de3:	89 55 e4             	mov    %edx,-0x1c(%ebp)
    3de6:	df 6d e0             	fildll -0x20(%ebp)
    3de9:	dd 5c 24 04          	fstpl  0x4(%esp)
    3ded:	8b 47 1c             	mov    0x1c(%edi),%eax
    3df0:	88 4d bc             	mov    %cl,-0x44(%ebp)
    3df3:	89 04 24             	mov    %eax,(%esp)
    3df6:	e8 55 08 00 00       	call   4650 <source_determine_pixel>
    3dfb:	89 5c 24 04          	mov    %ebx,0x4(%esp)
    3dff:	89 74 24 08          	mov    %esi,0x8(%esp)
    3e03:	89 c2                	mov    %eax,%edx
    3e05:	8b 47 10             	mov    0x10(%edi),%eax
    3e08:	89 55 b8             	mov    %edx,-0x48(%ebp)
    3e0b:	89 04 24             	mov    %eax,(%esp)
    3e0e:	e8 2d 0d 00 00       	call   4b40 <surface_get_pixel>
    3e13:	8b 55 b8             	mov    -0x48(%ebp),%edx
    3e16:	89 14 24             	mov    %edx,(%esp)
    3e19:	89 44 24 04          	mov    %eax,0x4(%esp)
    3e1d:	ff 57 14             	call   *0x14(%edi)
    3e20:	89 5c 24 04          	mov    %ebx,0x4(%esp)
    3e24:	89 44 24 0c          	mov    %eax,0xc(%esp)
    3e28:	89 74 24 08          	mov    %esi,0x8(%esp)
    3e2c:	8b 47 10             	mov    0x10(%edi),%eax
    3e2f:	43                   	inc    %ebx
    3e30:	89 04 24             	mov    %eax,(%esp)
    3e33:	e8 98 0c 00 00       	call   4ad0 <surface_put_pixel>
    3e38:	8a 4d bc             	mov    -0x44(%ebp),%cl
    3e3b:	39 5d d8             	cmp    %ebx,-0x28(%ebp)
    3e3e:	0f 87 36 ff ff ff    	ja     3d7a <drawctx_transfer+0x8a>
    3e44:	46                   	inc    %esi
    3e45:	3b 75 c0             	cmp    -0x40(%ebp),%esi
    3e48:	0f 82 0a ff ff ff    	jb     3d58 <drawctx_transfer+0x68>
    3e4e:	83 c4 6c             	add    $0x6c,%esp
    3e51:	5b                   	pop    %ebx
    3e52:	5e                   	pop    %esi
    3e53:	5f                   	pop    %edi
    3e54:	5d                   	pop    %ebp
    3e55:	c3                   	ret    
    3e56:	80 7f 24 00          	cmpb   $0x0,0x24(%edi)
    3e5a:	0f 85 cc fe ff ff    	jne    3d2c <drawctx_transfer+0x3c>
    3e60:	8b 57 18             	mov    0x18(%edi),%edx
    3e63:	85 d2                	test   %edx,%edx
    3e65:	0f 85 c1 fe ff ff    	jne    3d2c <drawctx_transfer+0x3c>
    3e6b:	8b 47 14             	mov    0x14(%edi),%eax
    3e6e:	3d 90 58 00 00       	cmp    $0x5890,%eax
    3e73:	74 0b                	je     3e80 <drawctx_transfer+0x190>
    3e75:	3d b0 58 00 00       	cmp    $0x58b0,%eax
    3e7a:	0f 85 ac fe ff ff    	jne    3d2c <drawctx_transfer+0x3c>
    3e80:	8b 45 c8             	mov    -0x38(%ebp),%eax
    3e83:	8b 75 c0             	mov    -0x40(%ebp),%esi
    3e86:	01 c6                	add    %eax,%esi
    3e88:	89 75 d8             	mov    %esi,-0x28(%ebp)
    3e8b:	8b 75 c8             	mov    -0x38(%ebp),%esi
    3e8e:	8b 45 d8             	mov    -0x28(%ebp),%eax
    3e91:	39 c6                	cmp    %eax,%esi
    3e93:	0f 83 8b 00 00 00    	jae    3f24 <drawctx_transfer+0x234>
    3e99:	8b 45 c4             	mov    -0x3c(%ebp),%eax
    3e9c:	31 d2                	xor    %edx,%edx
    3e9e:	89 45 e0             	mov    %eax,-0x20(%ebp)
    3ea1:	89 55 e4             	mov    %edx,-0x1c(%ebp)
    3ea4:	df 6d e0             	fildll -0x20(%ebp)
    3ea7:	dd 5d d0             	fstpl  -0x30(%ebp)
    3eaa:	8d b6 00 00 00 00    	lea    0x0(%esi),%esi
    3eb0:	31 d2                	xor    %edx,%edx
    3eb2:	89 75 e0             	mov    %esi,-0x20(%ebp)
    3eb5:	89 55 e4             	mov    %edx,-0x1c(%ebp)
    3eb8:	df 6d e0             	fildll -0x20(%ebp)
    3ebb:	dd 5c 24 0c          	fstpl  0xc(%esp)
    3ebf:	dd 45 d0             	fldl   -0x30(%ebp)
    3ec2:	dd 5c 24 04          	fstpl  0x4(%esp)
    3ec6:	8b 47 1c             	mov    0x1c(%edi),%eax
    3ec9:	89 04 24             	mov    %eax,(%esp)
    3ecc:	e8 8f 06 00 00       	call   4560 <source_direct_access>
    3ed1:	89 c1                	mov    %eax,%ecx
    3ed3:	8b 47 10             	mov    0x10(%edi),%eax
    3ed6:	89 04 24             	mov    %eax,(%esp)
    3ed9:	89 4d bc             	mov    %ecx,-0x44(%ebp)
    3edc:	e8 0f 0a 00 00       	call   48f0 <surface_pixmap_access>
    3ee1:	8b 4d bc             	mov    -0x44(%ebp),%ecx
    3ee4:	8b 10                	mov    (%eax),%edx
    3ee6:	39 55 c4             	cmp    %edx,-0x3c(%ebp)
    3ee9:	73 33                	jae    3f1e <drawctx_transfer+0x22e>
    3eeb:	3b 70 04             	cmp    0x4(%eax),%esi
    3eee:	73 2e                	jae    3f1e <drawctx_transfer+0x22e>
    3ef0:	0f af d6             	imul   %esi,%edx
    3ef3:	03 55 c4             	add    -0x3c(%ebp),%edx
    3ef6:	8b 40 08             	mov    0x8(%eax),%eax
    3ef9:	8d 04 90             	lea    (%eax,%edx,4),%eax
    3efc:	85 c0                	test   %eax,%eax
    3efe:	74 1e                	je     3f1e <drawctx_transfer+0x22e>
    3f00:	85 c9                	test   %ecx,%ecx
    3f02:	74 1a                	je     3f1e <drawctx_transfer+0x22e>
    3f04:	85 db                	test   %ebx,%ebx
    3f06:	74 16                	je     3f1e <drawctx_transfer+0x22e>
    3f08:	31 d2                	xor    %edx,%edx
    3f0a:	89 75 b4             	mov    %esi,-0x4c(%ebp)
    3f0d:	8d 76 00             	lea    0x0(%esi),%esi
    3f10:	8b 34 91             	mov    (%ecx,%edx,4),%esi
    3f13:	89 34 90             	mov    %esi,(%eax,%edx,4)
    3f16:	42                   	inc    %edx
    3f17:	39 da                	cmp    %ebx,%edx
    3f19:	75 f5                	jne    3f10 <drawctx_transfer+0x220>
    3f1b:	8b 75 b4             	mov    -0x4c(%ebp),%esi
    3f1e:	46                   	inc    %esi
    3f1f:	3b 75 d8             	cmp    -0x28(%ebp),%esi
    3f22:	72 8c                	jb     3eb0 <drawctx_transfer+0x1c0>
    3f24:	8b 75 c0             	mov    -0x40(%ebp),%esi
    3f27:	89 5d 14             	mov    %ebx,0x14(%ebp)
    3f2a:	89 75 18             	mov    %esi,0x18(%ebp)
    3f2d:	8b 75 c8             	mov    -0x38(%ebp),%esi
    3f30:	89 75 10             	mov    %esi,0x10(%ebp)
    3f33:	8b 75 c4             	mov    -0x3c(%ebp),%esi
    3f36:	89 75 0c             	mov    %esi,0xc(%ebp)
    3f39:	8b 47 10             	mov    0x10(%edi),%eax
    3f3c:	89 45 08             	mov    %eax,0x8(%ebp)
    3f3f:	83 c4 6c             	add    $0x6c,%esp
    3f42:	5b                   	pop    %ebx
    3f43:	5e                   	pop    %esi
    3f44:	5f                   	pop    %edi
    3f45:	5d                   	pop    %ebp
    3f46:	e9 f5 0a 00 00       	jmp    4a40 <surface_add_damaged_region>
    3f4b:	90                   	nop
    3f4c:	8d 74 26 00          	lea    0x0(%esi,%eiz,1),%esi
    3f50:	c6 45 df 01          	movb   $0x1,-0x21(%ebp)
    3f54:	c6 45 d0 00          	movb   $0x0,-0x30(%ebp)
    3f58:	e9 54 fe ff ff       	jmp    3db1 <drawctx_transfer+0xc1>
    3f5d:	8d 76 00             	lea    0x0(%esi),%esi

00003f60 <drawctx_stroke>:
    3f60:	55                   	push   %ebp
    3f61:	89 e5                	mov    %esp,%ebp
    3f63:	8b 45 08             	mov    0x8(%ebp),%eax
    3f66:	8b 55 0c             	mov    0xc(%ebp),%edx
    3f69:	8b 40 1c             	mov    0x1c(%eax),%eax
    3f6c:	85 c0                	test   %eax,%eax
    3f6e:	74 17                	je     3f87 <drawctx_stroke+0x27>
    3f70:	85 d2                	test   %edx,%edx
    3f72:	74 13                	je     3f87 <drawctx_stroke+0x27>
    3f74:	8b 42 04             	mov    0x4(%edx),%eax
    3f77:	39 d0                	cmp    %edx,%eax
    3f79:	74 0c                	je     3f87 <drawctx_stroke+0x27>
    3f7b:	90                   	nop
    3f7c:	8d 74 26 00          	lea    0x0(%esi,%eiz,1),%esi
    3f80:	8b 40 04             	mov    0x4(%eax),%eax
    3f83:	39 d0                	cmp    %edx,%eax
    3f85:	75 f9                	jne    3f80 <drawctx_stroke+0x20>
    3f87:	5d                   	pop    %ebp
    3f88:	c3                   	ret    
    3f89:	8d b4 26 00 00 00 00 	lea    0x0(%esi,%eiz,1),%esi

00003f90 <drawctx_fill>:
    3f90:	55                   	push   %ebp
    3f91:	89 e5                	mov    %esp,%ebp
    3f93:	5d                   	pop    %ebp
    3f94:	c3                   	ret    
    3f95:	8d 74 26 00          	lea    0x0(%esi,%eiz,1),%esi
    3f99:	8d bc 27 00 00 00 00 	lea    0x0(%edi,%eiz,1),%edi

00003fa0 <drawctx_print>:
    3fa0:	55                   	push   %ebp
    3fa1:	89 e5                	mov    %esp,%ebp
    3fa3:	53                   	push   %ebx
    3fa4:	83 ec 24             	sub    $0x24,%esp
    3fa7:	8b 45 08             	mov    0x8(%ebp),%eax
    3faa:	8b 50 20             	mov    0x20(%eax),%edx
    3fad:	85 d2                	test   %edx,%edx
    3faf:	74 2c                	je     3fdd <drawctx_print+0x3d>
    3fb1:	8b 48 1c             	mov    0x1c(%eax),%ecx
    3fb4:	85 c9                	test   %ecx,%ecx
    3fb6:	74 25                	je     3fdd <drawctx_print+0x3d>
    3fb8:	8b 5d 14             	mov    0x14(%ebp),%ebx
    3fbb:	89 4c 24 08          	mov    %ecx,0x8(%esp)
    3fbf:	89 5c 24 14          	mov    %ebx,0x14(%esp)
    3fc3:	8b 5d 10             	mov    0x10(%ebp),%ebx
    3fc6:	89 5c 24 10          	mov    %ebx,0x10(%esp)
    3fca:	8b 5d 0c             	mov    0xc(%ebp),%ebx
    3fcd:	89 5c 24 0c          	mov    %ebx,0xc(%esp)
    3fd1:	89 44 24 04          	mov    %eax,0x4(%esp)
    3fd5:	89 14 24             	mov    %edx,(%esp)
    3fd8:	e8 63 02 00 00       	call   4240 <font_draw_text>
    3fdd:	83 c4 24             	add    $0x24,%esp
    3fe0:	5b                   	pop    %ebx
    3fe1:	5d                   	pop    %ebp
    3fe2:	c3                   	ret    
    3fe3:	66 90                	xchg   %ax,%ax
    3fe5:	66 90                	xchg   %ax,%ax
    3fe7:	66 90                	xchg   %ax,%ax
    3fe9:	66 90                	xchg   %ax,%ax
    3feb:	66 90                	xchg   %ax,%ax
    3fed:	66 90                	xchg   %ax,%ax
    3fef:	90                   	nop

00003ff0 <font_init>:
    3ff0:	55                   	push   %ebp
    3ff1:	89 e5                	mov    %esp,%ebp
    3ff3:	53                   	push   %ebx
    3ff4:	83 ec 14             	sub    $0x14,%esp
    3ff7:	8b 5d 08             	mov    0x8(%ebp),%ebx
    3ffa:	8b 45 14             	mov    0x14(%ebp),%eax
    3ffd:	66 89 03             	mov    %ax,(%ebx)
    4000:	8b 45 0c             	mov    0xc(%ebp),%eax
    4003:	85 c0                	test   %eax,%eax
    4005:	75 39                	jne    4040 <font_init+0x50>
    4007:	8d 43 0c             	lea    0xc(%ebx),%eax
    400a:	c7 43 08 c0 59 02 00 	movl   $0x259c0,0x8(%ebx)
    4011:	89 44 24 08          	mov    %eax,0x8(%esp)
    4015:	8d 43 02             	lea    0x2(%ebx),%eax
    4018:	89 44 24 04          	mov    %eax,0x4(%esp)
    401c:	8b 45 10             	mov    0x10(%ebp),%eax
    401f:	89 04 24             	mov    %eax,(%esp)
    4022:	ff 15 c0 59 02 00    	call   *0x259c0
    4028:	66 8b 43 02          	mov    0x2(%ebx),%ax
    402c:	66 85 c0             	test   %ax,%ax
    402f:	75 37                	jne    4068 <font_init+0x78>
    4031:	c7 43 04 00 00 00 00 	movl   $0x0,0x4(%ebx)
    4038:	66 c7 43 02 00 00    	movw   $0x0,0x2(%ebx)
    403e:	eb 1b                	jmp    405b <font_init+0x6b>
    4040:	c7 43 08 00 00 00 00 	movl   $0x0,0x8(%ebx)
    4047:	66 c7 43 02 00 00    	movw   $0x0,0x2(%ebx)
    404d:	c7 43 04 00 00 00 00 	movl   $0x0,0x4(%ebx)
    4054:	c7 43 0c 00 00 00 00 	movl   $0x0,0xc(%ebx)
    405b:	83 c4 14             	add    $0x14,%esp
    405e:	5b                   	pop    %ebx
    405f:	5d                   	pop    %ebp
    4060:	c3                   	ret    
    4061:	8d b4 26 00 00 00 00 	lea    0x0(%esi,%eiz,1),%esi
    4068:	25 ff ff 00 00       	and    $0xffff,%eax
    406d:	c1 e0 02             	shl    $0x2,%eax
    4070:	89 04 24             	mov    %eax,(%esp)
    4073:	e8 08 21 01 00       	call   16180 <malloc>
    4078:	89 43 04             	mov    %eax,0x4(%ebx)
    407b:	85 c0                	test   %eax,%eax
    407d:	74 b9                	je     4038 <font_init+0x48>
    407f:	66 8b 4b 02          	mov    0x2(%ebx),%cx
    4083:	66 85 c9             	test   %cx,%cx
    4086:	74 d3                	je     405b <font_init+0x6b>
    4088:	81 e1 ff ff 00 00    	and    $0xffff,%ecx
    408e:	31 d2                	xor    %edx,%edx
    4090:	49                   	dec    %ecx
    4091:	eb 09                	jmp    409c <font_init+0xac>
    4093:	90                   	nop
    4094:	8d 74 26 00          	lea    0x0(%esi,%eiz,1),%esi
    4098:	8b 43 04             	mov    0x4(%ebx),%eax
    409b:	42                   	inc    %edx
    409c:	c7 04 90 00 00 00 00 	movl   $0x0,(%eax,%edx,4)
    40a3:	39 ca                	cmp    %ecx,%edx
    40a5:	75 f1                	jne    4098 <font_init+0xa8>
    40a7:	83 c4 14             	add    $0x14,%esp
    40aa:	5b                   	pop    %ebx
    40ab:	5d                   	pop    %ebp
    40ac:	c3                   	ret    
    40ad:	8d 76 00             	lea    0x0(%esi),%esi

000040b0 <font_release>:
    40b0:	55                   	push   %ebp
    40b1:	89 e5                	mov    %esp,%ebp
    40b3:	56                   	push   %esi
    40b4:	53                   	push   %ebx
    40b5:	83 ec 10             	sub    $0x10,%esp
    40b8:	8b 75 08             	mov    0x8(%ebp),%esi
    40bb:	8b 56 04             	mov    0x4(%esi),%edx
    40be:	85 d2                	test   %edx,%edx
    40c0:	74 38                	je     40fa <font_release+0x4a>
    40c2:	66 8b 4e 02          	mov    0x2(%esi),%cx
    40c6:	66 85 c9             	test   %cx,%cx
    40c9:	74 27                	je     40f2 <font_release+0x42>
    40cb:	31 db                	xor    %ebx,%ebx
    40cd:	8d 76 00             	lea    0x0(%esi),%esi
    40d0:	8b 04 9a             	mov    (%edx,%ebx,4),%eax
    40d3:	85 c0                	test   %eax,%eax
    40d5:	74 0f                	je     40e6 <font_release+0x36>
    40d7:	89 04 24             	mov    %eax,(%esp)
    40da:	e8 b1 07 00 00       	call   4890 <surface_destroy>
    40df:	8b 56 04             	mov    0x4(%esi),%edx
    40e2:	66 8b 4e 02          	mov    0x2(%esi),%cx
    40e6:	89 c8                	mov    %ecx,%eax
    40e8:	43                   	inc    %ebx
    40e9:	25 ff ff 00 00       	and    $0xffff,%eax
    40ee:	39 d8                	cmp    %ebx,%eax
    40f0:	77 de                	ja     40d0 <font_release+0x20>
    40f2:	89 14 24             	mov    %edx,(%esp)
    40f5:	e8 96 21 01 00       	call   16290 <free>
    40fa:	8b 46 08             	mov    0x8(%esi),%eax
    40fd:	85 c0                	test   %eax,%eax
    40ff:	74 17                	je     4118 <font_release+0x68>
    4101:	8b 56 0c             	mov    0xc(%esi),%edx
    4104:	89 55 08             	mov    %edx,0x8(%ebp)
    4107:	8b 40 0c             	mov    0xc(%eax),%eax
    410a:	83 c4 10             	add    $0x10,%esp
    410d:	5b                   	pop    %ebx
    410e:	5e                   	pop    %esi
    410f:	5d                   	pop    %ebp
    4110:	ff e0                	jmp    *%eax
    4112:	8d b6 00 00 00 00    	lea    0x0(%esi),%esi
    4118:	83 c4 10             	add    $0x10,%esp
    411b:	5b                   	pop    %ebx
    411c:	5e                   	pop    %esi
    411d:	5d                   	pop    %ebp
    411e:	c3                   	ret    
    411f:	90                   	nop

00004120 <font_get_box>:
    4120:	55                   	push   %ebp
    4121:	89 e5                	mov    %esp,%ebp
    4123:	57                   	push   %edi
    4124:	56                   	push   %esi
    4125:	53                   	push   %ebx
    4126:	83 ec 3c             	sub    $0x3c,%esp
    4129:	8b 7d 10             	mov    0x10(%ebp),%edi
    412c:	8b 5d 08             	mov    0x8(%ebp),%ebx
    412f:	8b 75 0c             	mov    0xc(%ebp),%esi
    4132:	85 ff                	test   %edi,%edi
    4134:	0f 84 e7 00 00 00    	je     4221 <font_get_box+0x101>
    413a:	8b 4d 14             	mov    0x14(%ebp),%ecx
    413d:	85 c9                	test   %ecx,%ecx
    413f:	0f 84 c0 00 00 00    	je     4205 <font_get_box+0xe5>
    4145:	8b 55 14             	mov    0x14(%ebp),%edx
    4148:	c7 07 00 00 00 00    	movl   $0x0,(%edi)
    414e:	85 f6                	test   %esi,%esi
    4150:	c7 02 00 00 00 00    	movl   $0x0,(%edx)
    4156:	74 72                	je     41ca <font_get_box+0xaa>
    4158:	0f be 06             	movsbl (%esi),%eax
    415b:	84 c0                	test   %al,%al
    415d:	74 6b                	je     41ca <font_get_box+0xaa>
    415f:	90                   	nop
    4160:	8b 4b 08             	mov    0x8(%ebx),%ecx
    4163:	8b 53 0c             	mov    0xc(%ebx),%edx
    4166:	89 54 24 04          	mov    %edx,0x4(%esp)
    416a:	89 04 24             	mov    %eax,(%esp)
    416d:	ff 51 04             	call   *0x4(%ecx)
    4170:	66 3b 43 02          	cmp    0x2(%ebx),%ax
    4174:	73 4c                	jae    41c2 <font_get_box+0xa2>
    4176:	25 ff ff 00 00       	and    $0xffff,%eax
    417b:	8b 53 04             	mov    0x4(%ebx),%edx
    417e:	8d 0c 85 00 00 00 00 	lea    0x0(,%eax,4),%ecx
    4185:	89 4d d4             	mov    %ecx,-0x2c(%ebp)
    4188:	01 d1                	add    %edx,%ecx
    418a:	8b 11                	mov    (%ecx),%edx
    418c:	85 d2                	test   %edx,%edx
    418e:	74 48                	je     41d8 <font_get_box+0xb8>
    4190:	8d 45 e4             	lea    -0x1c(%ebp),%eax
    4193:	8d 4d e0             	lea    -0x20(%ebp),%ecx
    4196:	89 44 24 08          	mov    %eax,0x8(%esp)
    419a:	89 4c 24 04          	mov    %ecx,0x4(%esp)
    419e:	89 14 24             	mov    %edx,(%esp)
    41a1:	e8 5a 07 00 00       	call   4900 <surface_get_resolution>
    41a6:	8b 45 e0             	mov    -0x20(%ebp),%eax
    41a9:	8b 17                	mov    (%edi),%edx
    41ab:	8b 4d 14             	mov    0x14(%ebp),%ecx
    41ae:	01 c2                	add    %eax,%edx
    41b0:	89 17                	mov    %edx,(%edi)
    41b2:	8b 55 e4             	mov    -0x1c(%ebp),%edx
    41b5:	8b 01                	mov    (%ecx),%eax
    41b7:	39 d0                	cmp    %edx,%eax
    41b9:	73 02                	jae    41bd <font_get_box+0x9d>
    41bb:	89 d0                	mov    %edx,%eax
    41bd:	8b 55 14             	mov    0x14(%ebp),%edx
    41c0:	89 02                	mov    %eax,(%edx)
    41c2:	46                   	inc    %esi
    41c3:	0f be 06             	movsbl (%esi),%eax
    41c6:	84 c0                	test   %al,%al
    41c8:	75 96                	jne    4160 <font_get_box+0x40>
    41ca:	83 c4 3c             	add    $0x3c,%esp
    41cd:	5b                   	pop    %ebx
    41ce:	5e                   	pop    %esi
    41cf:	5f                   	pop    %edi
    41d0:	5d                   	pop    %ebp
    41d1:	c3                   	ret    
    41d2:	8d b6 00 00 00 00    	lea    0x0(%esi),%esi
    41d8:	8b 13                	mov    (%ebx),%edx
    41da:	89 04 24             	mov    %eax,(%esp)
    41dd:	81 e2 ff ff 00 00    	and    $0xffff,%edx
    41e3:	89 4d d0             	mov    %ecx,-0x30(%ebp)
    41e6:	89 54 24 04          	mov    %edx,0x4(%esp)
    41ea:	8b 53 08             	mov    0x8(%ebx),%edx
    41ed:	ff 52 08             	call   *0x8(%edx)
    41f0:	8b 4d d0             	mov    -0x30(%ebp),%ecx
    41f3:	89 01                	mov    %eax,(%ecx)
    41f5:	8b 4d d4             	mov    -0x2c(%ebp),%ecx
    41f8:	8b 43 04             	mov    0x4(%ebx),%eax
    41fb:	8b 14 08             	mov    (%eax,%ecx,1),%edx
    41fe:	85 d2                	test   %edx,%edx
    4200:	75 8e                	jne    4190 <font_get_box+0x70>
    4202:	46                   	inc    %esi
    4203:	eb be                	jmp    41c3 <font_get_box+0xa3>
    4205:	c7 44 24 08 62 00 00 	movl   $0x62,0x8(%esp)
    420c:	00 
    420d:	c7 44 24 04 da 2f 02 	movl   $0x22fda,0x4(%esp)
    4214:	00 
    4215:	c7 04 24 e7 2f 02 00 	movl   $0x22fe7,(%esp)
    421c:	e8 3f c8 01 00       	call   20a60 <assert_abort>
    4221:	c7 44 24 08 61 00 00 	movl   $0x61,0x8(%esp)
    4228:	00 
    4229:	c7 44 24 04 da 2f 02 	movl   $0x22fda,0x4(%esp)
    4230:	00 
    4231:	c7 04 24 e1 2f 02 00 	movl   $0x22fe1,(%esp)
    4238:	e8 23 c8 01 00       	call   20a60 <assert_abort>
    423d:	8d 76 00             	lea    0x0(%esi),%esi

00004240 <font_draw_text>:
    4240:	55                   	push   %ebp
    4241:	89 e5                	mov    %esp,%ebp
    4243:	57                   	push   %edi
    4244:	56                   	push   %esi
    4245:	53                   	push   %ebx
    4246:	81 ec bc 00 00 00    	sub    $0xbc,%esp
    424c:	8b 45 0c             	mov    0xc(%ebp),%eax
    424f:	8b 5d 08             	mov    0x8(%ebp),%ebx
    4252:	85 c0                	test   %eax,%eax
    4254:	0f 84 b3 01 00 00    	je     440d <font_draw_text+0x1cd>
    425a:	8b 45 10             	mov    0x10(%ebp),%eax
    425d:	85 c0                	test   %eax,%eax
    425f:	0f 84 8c 01 00 00    	je     43f1 <font_draw_text+0x1b1>
    4265:	8b 55 0c             	mov    0xc(%ebp),%edx
    4268:	89 14 24             	mov    %edx,(%esp)
    426b:	e8 f0 f8 ff ff       	call   3b60 <drawctx_save>
    4270:	8b 55 0c             	mov    0xc(%ebp),%edx
    4273:	89 14 24             	mov    %edx,(%esp)
    4276:	c7 44 24 04 b0 58 00 	movl   $0x58b0,0x4(%esp)
    427d:	00 
    427e:	e8 cd f9 ff ff       	call   3c50 <drawctx_set_compose>
    4283:	8b 55 14             	mov    0x14(%ebp),%edx
    4286:	0f be 02             	movsbl (%edx),%eax
    4289:	84 c0                	test   %al,%al
    428b:	0f 84 06 01 00 00    	je     4397 <font_draw_text+0x157>
    4291:	8d b4 26 00 00 00 00 	lea    0x0(%esi,%eiz,1),%esi
    4298:	8b 53 08             	mov    0x8(%ebx),%edx
    429b:	8b 4b 0c             	mov    0xc(%ebx),%ecx
    429e:	89 4c 24 04          	mov    %ecx,0x4(%esp)
    42a2:	89 04 24             	mov    %eax,(%esp)
    42a5:	ff 52 04             	call   *0x4(%edx)
    42a8:	66 3b 43 02          	cmp    0x2(%ebx),%ax
    42ac:	0f 83 d0 00 00 00    	jae    4382 <font_draw_text+0x142>
    42b2:	25 ff ff 00 00       	and    $0xffff,%eax
    42b7:	8b 7b 04             	mov    0x4(%ebx),%edi
    42ba:	8d 34 85 00 00 00 00 	lea    0x0(,%eax,4),%esi
    42c1:	01 f7                	add    %esi,%edi
    42c3:	8b 17                	mov    (%edi),%edx
    42c5:	89 55 8c             	mov    %edx,-0x74(%ebp)
    42c8:	85 d2                	test   %edx,%edx
    42ca:	0f 84 f8 00 00 00    	je     43c8 <font_draw_text+0x188>
    42d0:	8d 45 9c             	lea    -0x64(%ebp),%eax
    42d3:	8d 55 98             	lea    -0x68(%ebp),%edx
    42d6:	89 44 24 08          	mov    %eax,0x8(%esp)
    42da:	8b 45 8c             	mov    -0x74(%ebp),%eax
    42dd:	89 54 24 04          	mov    %edx,0x4(%esp)
    42e1:	89 04 24             	mov    %eax,(%esp)
    42e4:	8d 75 a0             	lea    -0x60(%ebp),%esi
    42e7:	e8 14 06 00 00       	call   4900 <surface_get_resolution>
    42ec:	89 34 24             	mov    %esi,(%esp)
    42ef:	8d 7c 24 04          	lea    0x4(%esp),%edi
    42f3:	e8 38 1a 00 00       	call   5d30 <transform_identity>
    42f8:	8b 45 1c             	mov    0x1c(%ebp),%eax
    42fb:	31 d2                	xor    %edx,%edx
    42fd:	89 45 90             	mov    %eax,-0x70(%ebp)
    4300:	89 55 94             	mov    %edx,-0x6c(%ebp)
    4303:	8b 45 18             	mov    0x18(%ebp),%eax
    4306:	df 6d 90             	fildll -0x70(%ebp)
    4309:	31 d2                	xor    %edx,%edx
    430b:	89 45 90             	mov    %eax,-0x70(%ebp)
    430e:	dd 5c 24 0c          	fstpl  0xc(%esp)
    4312:	89 55 94             	mov    %edx,-0x6c(%ebp)
    4315:	89 34 24             	mov    %esi,(%esp)
    4318:	df 6d 90             	fildll -0x70(%ebp)
    431b:	dd 5c 24 04          	fstpl  0x4(%esp)
    431f:	e8 3c 1a 00 00       	call   5d60 <transform_translate>
    4324:	b9 12 00 00 00       	mov    $0x12,%ecx
    4329:	f3 a5                	rep movsl %ds:(%esi),%es:(%edi)
    432b:	8b 55 10             	mov    0x10(%ebp),%edx
    432e:	89 14 24             	mov    %edx,(%esp)
    4331:	e8 4a 01 00 00       	call   4480 <source_set_transform>
    4336:	8b 45 8c             	mov    -0x74(%ebp),%eax
    4339:	8b 55 10             	mov    0x10(%ebp),%edx
    433c:	89 44 24 04          	mov    %eax,0x4(%esp)
    4340:	89 14 24             	mov    %edx,(%esp)
    4343:	c7 44 24 08 00 00 00 	movl   $0x0,0x8(%esp)
    434a:	00 
    434b:	e8 b0 01 00 00       	call   4500 <source_set_mask>
    4350:	8b 55 1c             	mov    0x1c(%ebp),%edx
    4353:	8b 45 9c             	mov    -0x64(%ebp),%eax
    4356:	89 54 24 08          	mov    %edx,0x8(%esp)
    435a:	8b 55 18             	mov    0x18(%ebp),%edx
    435d:	89 44 24 10          	mov    %eax,0x10(%esp)
    4361:	89 54 24 04          	mov    %edx,0x4(%esp)
    4365:	8b 45 98             	mov    -0x68(%ebp),%eax
    4368:	8b 55 0c             	mov    0xc(%ebp),%edx
    436b:	89 44 24 0c          	mov    %eax,0xc(%esp)
    436f:	89 14 24             	mov    %edx,(%esp)
    4372:	e8 79 f9 ff ff       	call   3cf0 <drawctx_transfer>
    4377:	8b 7d 18             	mov    0x18(%ebp),%edi
    437a:	8b 45 98             	mov    -0x68(%ebp),%eax
    437d:	01 c7                	add    %eax,%edi
    437f:	89 7d 18             	mov    %edi,0x18(%ebp)
    4382:	8b 75 14             	mov    0x14(%ebp),%esi
    4385:	46                   	inc    %esi
    4386:	89 75 14             	mov    %esi,0x14(%ebp)
    4389:	8b 55 14             	mov    0x14(%ebp),%edx
    438c:	0f be 02             	movsbl (%edx),%eax
    438f:	84 c0                	test   %al,%al
    4391:	0f 85 01 ff ff ff    	jne    4298 <font_draw_text+0x58>
    4397:	8b 55 0c             	mov    0xc(%ebp),%edx
    439a:	89 14 24             	mov    %edx,(%esp)
    439d:	e8 2e f8 ff ff       	call   3bd0 <drawctx_restore>
    43a2:	8b 55 10             	mov    0x10(%ebp),%edx
    43a5:	c7 44 24 08 00 00 00 	movl   $0x0,0x8(%esp)
    43ac:	00 
    43ad:	c7 44 24 04 00 00 00 	movl   $0x0,0x4(%esp)
    43b4:	00 
    43b5:	89 14 24             	mov    %edx,(%esp)
    43b8:	e8 43 01 00 00       	call   4500 <source_set_mask>
    43bd:	81 c4 bc 00 00 00    	add    $0xbc,%esp
    43c3:	5b                   	pop    %ebx
    43c4:	5e                   	pop    %esi
    43c5:	5f                   	pop    %edi
    43c6:	5d                   	pop    %ebp
    43c7:	c3                   	ret    
    43c8:	8b 13                	mov    (%ebx),%edx
    43ca:	8b 4b 08             	mov    0x8(%ebx),%ecx
    43cd:	81 e2 ff ff 00 00    	and    $0xffff,%edx
    43d3:	89 04 24             	mov    %eax,(%esp)
    43d6:	89 54 24 04          	mov    %edx,0x4(%esp)
    43da:	ff 51 08             	call   *0x8(%ecx)
    43dd:	89 07                	mov    %eax,(%edi)
    43df:	8b 43 04             	mov    0x4(%ebx),%eax
    43e2:	8b 04 30             	mov    (%eax,%esi,1),%eax
    43e5:	89 45 8c             	mov    %eax,-0x74(%ebp)
    43e8:	85 c0                	test   %eax,%eax
    43ea:	74 96                	je     4382 <font_draw_text+0x142>
    43ec:	e9 df fe ff ff       	jmp    42d0 <font_draw_text+0x90>
    43f1:	c7 44 24 08 84 00 00 	movl   $0x84,0x8(%esp)
    43f8:	00 
    43f9:	c7 44 24 04 da 2f 02 	movl   $0x22fda,0x4(%esp)
    4400:	00 
    4401:	c7 04 24 f6 2f 02 00 	movl   $0x22ff6,(%esp)
    4408:	e8 53 c6 01 00       	call   20a60 <assert_abort>
    440d:	c7 44 24 08 83 00 00 	movl   $0x83,0x8(%esp)
    4414:	00 
    4415:	c7 44 24 04 da 2f 02 	movl   $0x22fda,0x4(%esp)
    441c:	00 
    441d:	c7 04 24 ee 2f 02 00 	movl   $0x22fee,(%esp)
    4424:	e8 37 c6 01 00       	call   20a60 <assert_abort>
    4429:	66 90                	xchg   %ax,%ax
    442b:	66 90                	xchg   %ax,%ax
    442d:	66 90                	xchg   %ax,%ax
    442f:	90                   	nop

00004430 <source_init>:
    4430:	55                   	push   %ebp
    4431:	89 e5                	mov    %esp,%ebp
    4433:	53                   	push   %ebx
    4434:	83 ec 14             	sub    $0x14,%esp
    4437:	8b 5d 08             	mov    0x8(%ebp),%ebx
    443a:	89 1c 24             	mov    %ebx,(%esp)
    443d:	e8 ee 18 00 00       	call   5d30 <transform_identity>
    4442:	c7 43 48 60 5a 00 00 	movl   $0x5a60,0x48(%ebx)
    4449:	c7 43 4c 00 00 00 00 	movl   $0x0,0x4c(%ebx)
    4450:	c7 43 50 00 00 00 00 	movl   $0x0,0x50(%ebx)
    4457:	c6 43 54 00          	movb   $0x0,0x54(%ebx)
    445b:	c7 43 58 00 00 00 ff 	movl   $0xff000000,0x58(%ebx)
    4462:	c7 43 5c 00 00 00 00 	movl   $0x0,0x5c(%ebx)
    4469:	c6 43 60 00          	movb   $0x0,0x60(%ebx)
    446d:	83 c4 14             	add    $0x14,%esp
    4470:	5b                   	pop    %ebx
    4471:	5d                   	pop    %ebp
    4472:	c3                   	ret    
    4473:	8d b6 00 00 00 00    	lea    0x0(%esi),%esi
    4479:	8d bc 27 00 00 00 00 	lea    0x0(%edi,%eiz,1),%edi

00004480 <source_set_transform>:
    4480:	55                   	push   %ebp
    4481:	b9 12 00 00 00       	mov    $0x12,%ecx
    4486:	89 e5                	mov    %esp,%ebp
    4488:	57                   	push   %edi
    4489:	56                   	push   %esi
    448a:	8b 45 08             	mov    0x8(%ebp),%eax
    448d:	8d 75 0c             	lea    0xc(%ebp),%esi
    4490:	89 c7                	mov    %eax,%edi
    4492:	f3 a5                	rep movsl %ds:(%esi),%es:(%edi)
    4494:	5e                   	pop    %esi
    4495:	5f                   	pop    %edi
    4496:	5d                   	pop    %ebp
    4497:	e9 b4 17 00 00       	jmp    5c50 <transform_invert>
    449c:	8d 74 26 00          	lea    0x0(%esi,%eiz,1),%esi

000044a0 <source_reset_transform>:
    44a0:	55                   	push   %ebp
    44a1:	89 e5                	mov    %esp,%ebp
    44a3:	5d                   	pop    %ebp
    44a4:	e9 87 18 00 00       	jmp    5d30 <transform_identity>
    44a9:	8d b4 26 00 00 00 00 	lea    0x0(%esi,%eiz,1),%esi

000044b0 <source_set_filter>:
    44b0:	55                   	push   %ebp
    44b1:	89 e5                	mov    %esp,%ebp
    44b3:	8b 45 08             	mov    0x8(%ebp),%eax
    44b6:	8b 55 0c             	mov    0xc(%ebp),%edx
    44b9:	89 50 48             	mov    %edx,0x48(%eax)
    44bc:	5d                   	pop    %ebp
    44bd:	c3                   	ret    
    44be:	66 90                	xchg   %ax,%ax

000044c0 <source_set_color>:
    44c0:	55                   	push   %ebp
    44c1:	89 e5                	mov    %esp,%ebp
    44c3:	8b 45 08             	mov    0x8(%ebp),%eax
    44c6:	8b 55 0c             	mov    0xc(%ebp),%edx
    44c9:	89 50 4c             	mov    %edx,0x4c(%eax)
    44cc:	5d                   	pop    %ebp
    44cd:	c3                   	ret    
    44ce:	66 90                	xchg   %ax,%ax

000044d0 <source_set_texture>:
    44d0:	55                   	push   %ebp
    44d1:	89 e5                	mov    %esp,%ebp
    44d3:	8b 45 08             	mov    0x8(%ebp),%eax
    44d6:	8b 55 0c             	mov    0xc(%ebp),%edx
    44d9:	89 50 50             	mov    %edx,0x50(%eax)
    44dc:	8b 55 10             	mov    0x10(%ebp),%edx
    44df:	88 50 54             	mov    %dl,0x54(%eax)
    44e2:	5d                   	pop    %ebp
    44e3:	c3                   	ret    
    44e4:	8d b6 00 00 00 00    	lea    0x0(%esi),%esi
    44ea:	8d bf 00 00 00 00    	lea    0x0(%edi),%edi

000044f0 <source_set_alpha>:
    44f0:	55                   	push   %ebp
    44f1:	89 e5                	mov    %esp,%ebp
    44f3:	8b 45 08             	mov    0x8(%ebp),%eax
    44f6:	8b 55 0c             	mov    0xc(%ebp),%edx
    44f9:	89 50 58             	mov    %edx,0x58(%eax)
    44fc:	5d                   	pop    %ebp
    44fd:	c3                   	ret    
    44fe:	66 90                	xchg   %ax,%ax

00004500 <source_set_mask>:
    4500:	55                   	push   %ebp
    4501:	89 e5                	mov    %esp,%ebp
    4503:	8b 45 08             	mov    0x8(%ebp),%eax
    4506:	8b 55 0c             	mov    0xc(%ebp),%edx
    4509:	89 50 5c             	mov    %edx,0x5c(%eax)
    450c:	8b 55 10             	mov    0x10(%ebp),%edx
    450f:	88 50 60             	mov    %dl,0x60(%eax)
    4512:	5d                   	pop    %ebp
    4513:	c3                   	ret    
    4514:	8d b6 00 00 00 00    	lea    0x0(%esi),%esi
    451a:	8d bf 00 00 00 00    	lea    0x0(%edi),%edi

00004520 <source_is_fast>:
    4520:	55                   	push   %ebp
    4521:	89 e5                	mov    %esp,%ebp
    4523:	8b 45 08             	mov    0x8(%ebp),%eax
    4526:	8b 48 5c             	mov    0x5c(%eax),%ecx
    4529:	85 c9                	test   %ecx,%ecx
    452b:	74 0b                	je     4538 <source_is_fast+0x18>
    452d:	31 c0                	xor    %eax,%eax
    452f:	5d                   	pop    %ebp
    4530:	c3                   	ret    
    4531:	8d b4 26 00 00 00 00 	lea    0x0(%esi,%eiz,1),%esi
    4538:	81 78 58 00 00 00 ff 	cmpl   $0xff000000,0x58(%eax)
    453f:	75 ec                	jne    452d <source_is_fast+0xd>
    4541:	8b 50 50             	mov    0x50(%eax),%edx
    4544:	85 d2                	test   %edx,%edx
    4546:	74 e5                	je     452d <source_is_fast+0xd>
    4548:	80 78 54 00          	cmpb   $0x0,0x54(%eax)
    454c:	75 df                	jne    452d <source_is_fast+0xd>
    454e:	5d                   	pop    %ebp
    454f:	e9 cc 1c 00 00       	jmp    6220 <transform_is_fast>
    4554:	8d b6 00 00 00 00    	lea    0x0(%esi),%esi
    455a:	8d bf 00 00 00 00    	lea    0x0(%edi),%edi

00004560 <source_direct_access>:
    4560:	55                   	push   %ebp
    4561:	89 e5                	mov    %esp,%ebp
    4563:	57                   	push   %edi
    4564:	56                   	push   %esi
    4565:	53                   	push   %ebx
    4566:	83 ec 4c             	sub    $0x4c,%esp
    4569:	8b 5d 08             	mov    0x8(%ebp),%ebx
    456c:	dd 45 0c             	fldl   0xc(%ebp)
    456f:	8b 7b 5c             	mov    0x5c(%ebx),%edi
    4572:	dd 45 14             	fldl   0x14(%ebp)
    4575:	85 ff                	test   %edi,%edi
    4577:	74 47                	je     45c0 <source_direct_access+0x60>
    4579:	dd d8                	fstp   %st(0)
    457b:	dd d8                	fstp   %st(0)
    457d:	eb 21                	jmp    45a0 <source_direct_access+0x40>
    457f:	90                   	nop
    4580:	dd d8                	fstp   %st(0)
    4582:	dd d8                	fstp   %st(0)
    4584:	eb 1a                	jmp    45a0 <source_direct_access+0x40>
    4586:	dd d8                	fstp   %st(0)
    4588:	dd d8                	fstp   %st(0)
    458a:	eb 14                	jmp    45a0 <source_direct_access+0x40>
    458c:	8d 74 26 00          	lea    0x0(%esi,%eiz,1),%esi
    4590:	dd d8                	fstp   %st(0)
    4592:	dd d8                	fstp   %st(0)
    4594:	eb 0a                	jmp    45a0 <source_direct_access+0x40>
    4596:	dd d8                	fstp   %st(0)
    4598:	dd d8                	fstp   %st(0)
    459a:	8d b6 00 00 00 00    	lea    0x0(%esi),%esi
    45a0:	c7 44 24 08 67 00 00 	movl   $0x67,0x8(%esp)
    45a7:	00 
    45a8:	c7 44 24 04 fd 2f 02 	movl   $0x22ffd,0x4(%esp)
    45af:	00 
    45b0:	c7 04 24 06 30 02 00 	movl   $0x23006,(%esp)
    45b7:	e8 a4 c4 01 00       	call   20a60 <assert_abort>
    45bc:	8d 74 26 00          	lea    0x0(%esi,%eiz,1),%esi
    45c0:	81 7b 58 00 00 00 ff 	cmpl   $0xff000000,0x58(%ebx)
    45c7:	75 b7                	jne    4580 <source_direct_access+0x20>
    45c9:	8b 73 50             	mov    0x50(%ebx),%esi
    45cc:	85 f6                	test   %esi,%esi
    45ce:	74 b6                	je     4586 <source_direct_access+0x26>
    45d0:	80 7b 54 00          	cmpb   $0x0,0x54(%ebx)
    45d4:	75 ba                	jne    4590 <source_direct_access+0x30>
    45d6:	d9 c9                	fxch   %st(1)
    45d8:	dd 5d c8             	fstpl  -0x38(%ebp)
    45db:	89 1c 24             	mov    %ebx,(%esp)
    45de:	dd 5d b8             	fstpl  -0x48(%ebp)
    45e1:	e8 3a 1c 00 00       	call   6220 <transform_is_fast>
    45e6:	dd 45 c8             	fldl   -0x38(%ebp)
    45e9:	84 c0                	test   %al,%al
    45eb:	dd 45 b8             	fldl   -0x48(%ebp)
    45ee:	74 a6                	je     4596 <source_direct_access+0x36>
    45f0:	dc 43 28             	faddl  0x28(%ebx)
    45f3:	d9 7d e6             	fnstcw -0x1a(%ebp)
    45f6:	66 8b 45 e6          	mov    -0x1a(%ebp),%ax
    45fa:	b4 0c                	mov    $0xc,%ah
    45fc:	66 89 45 e4          	mov    %ax,-0x1c(%ebp)
    4600:	d9 6d e4             	fldcw  -0x1c(%ebp)
    4603:	db 5d e0             	fistpl -0x20(%ebp)
    4606:	d9 6d e6             	fldcw  -0x1a(%ebp)
    4609:	dc 43 10             	faddl  0x10(%ebx)
    460c:	8b 75 e0             	mov    -0x20(%ebp),%esi
    460f:	d9 6d e4             	fldcw  -0x1c(%ebp)
    4612:	db 5d e0             	fistpl -0x20(%ebp)
    4615:	d9 6d e6             	fldcw  -0x1a(%ebp)
    4618:	8b 43 50             	mov    0x50(%ebx),%eax
    461b:	8b 7d e0             	mov    -0x20(%ebp),%edi
    461e:	89 04 24             	mov    %eax,(%esp)
    4621:	e8 ca 02 00 00       	call   48f0 <surface_pixmap_access>
    4626:	8b 10                	mov    (%eax),%edx
    4628:	39 d7                	cmp    %edx,%edi
    462a:	73 1c                	jae    4648 <source_direct_access+0xe8>
    462c:	3b 70 04             	cmp    0x4(%eax),%esi
    462f:	73 17                	jae    4648 <source_direct_access+0xe8>
    4631:	0f af f2             	imul   %edx,%esi
    4634:	8b 40 08             	mov    0x8(%eax),%eax
    4637:	01 fe                	add    %edi,%esi
    4639:	8d 04 b0             	lea    (%eax,%esi,4),%eax
    463c:	83 c4 4c             	add    $0x4c,%esp
    463f:	5b                   	pop    %ebx
    4640:	5e                   	pop    %esi
    4641:	5f                   	pop    %edi
    4642:	5d                   	pop    %ebp
    4643:	c3                   	ret    
    4644:	8d 74 26 00          	lea    0x0(%esi,%eiz,1),%esi
    4648:	31 c0                	xor    %eax,%eax
    464a:	eb f0                	jmp    463c <source_direct_access+0xdc>
    464c:	8d 74 26 00          	lea    0x0(%esi,%eiz,1),%esi

00004650 <source_determine_pixel>:
    4650:	55                   	push   %ebp
    4651:	89 e5                	mov    %esp,%ebp
    4653:	57                   	push   %edi
    4654:	56                   	push   %esi
    4655:	53                   	push   %ebx
    4656:	83 ec 6c             	sub    $0x6c,%esp
    4659:	8b 45 0c             	mov    0xc(%ebp),%eax
    465c:	8b 5d 08             	mov    0x8(%ebp),%ebx
    465f:	89 45 e0             	mov    %eax,-0x20(%ebp)
    4662:	8b 45 10             	mov    0x10(%ebp),%eax
    4665:	89 45 e4             	mov    %eax,-0x1c(%ebp)
    4668:	8b 45 14             	mov    0x14(%ebp),%eax
    466b:	89 45 d8             	mov    %eax,-0x28(%ebp)
    466e:	8b 45 18             	mov    0x18(%ebp),%eax
    4671:	89 45 dc             	mov    %eax,-0x24(%ebp)
    4674:	8b 43 5c             	mov    0x5c(%ebx),%eax
    4677:	85 c0                	test   %eax,%eax
    4679:	0f 84 01 01 00 00    	je     4780 <source_determine_pixel+0x130>
    467f:	8d 45 d8             	lea    -0x28(%ebp),%eax
    4682:	89 1c 24             	mov    %ebx,(%esp)
    4685:	89 44 24 08          	mov    %eax,0x8(%esp)
    4689:	8d 45 e0             	lea    -0x20(%ebp),%eax
    468c:	89 44 24 04          	mov    %eax,0x4(%esp)
    4690:	e8 9b 1c 00 00       	call   6330 <transform_apply_affine>
    4695:	8b 43 5c             	mov    0x5c(%ebx),%eax
    4698:	85 c0                	test   %eax,%eax
    469a:	0f 84 f0 00 00 00    	je     4790 <source_determine_pixel+0x140>
    46a0:	dd 45 d8             	fldl   -0x28(%ebp)
    46a3:	dd 45 e0             	fldl   -0x20(%ebp)
    46a6:	8b 73 48             	mov    0x48(%ebx),%esi
    46a9:	8a 53 60             	mov    0x60(%ebx),%dl
    46ac:	dd 5d a8             	fstpl  -0x58(%ebp)
    46af:	81 e2 ff 00 00 00    	and    $0xff,%edx
    46b5:	89 04 24             	mov    %eax,(%esp)
    46b8:	89 d7                	mov    %edx,%edi
    46ba:	dd 5d b8             	fstpl  -0x48(%ebp)
    46bd:	e8 2e 02 00 00       	call   48f0 <surface_pixmap_access>
    46c2:	89 7c 24 14          	mov    %edi,0x14(%esp)
    46c6:	dd 45 b8             	fldl   -0x48(%ebp)
    46c9:	89 04 24             	mov    %eax,(%esp)
    46cc:	dd 5c 24 0c          	fstpl  0xc(%esp)
    46d0:	dd 45 a8             	fldl   -0x58(%ebp)
    46d3:	dd 5c 24 04          	fstpl  0x4(%esp)
    46d7:	ff d6                	call   *%esi
    46d9:	89 c2                	mov    %eax,%edx
    46db:	89 d7                	mov    %edx,%edi
    46dd:	31 c0                	xor    %eax,%eax
    46df:	c1 ef 18             	shr    $0x18,%edi
    46e2:	0f 84 8b 00 00 00    	je     4773 <source_determine_pixel+0x123>
    46e8:	8b 43 50             	mov    0x50(%ebx),%eax
    46eb:	85 c0                	test   %eax,%eax
    46ed:	0f 84 a5 00 00 00    	je     4798 <source_determine_pixel+0x148>
    46f3:	dd 45 d8             	fldl   -0x28(%ebp)
    46f6:	dd 45 e0             	fldl   -0x20(%ebp)
    46f9:	8b 73 48             	mov    0x48(%ebx),%esi
    46fc:	8a 5b 54             	mov    0x54(%ebx),%bl
    46ff:	dd 5d a8             	fstpl  -0x58(%ebp)
    4702:	89 04 24             	mov    %eax,(%esp)
    4705:	81 e3 ff 00 00 00    	and    $0xff,%ebx
    470b:	dd 5d b8             	fstpl  -0x48(%ebp)
    470e:	e8 dd 01 00 00       	call   48f0 <surface_pixmap_access>
    4713:	89 5c 24 14          	mov    %ebx,0x14(%esp)
    4717:	dd 45 b8             	fldl   -0x48(%ebp)
    471a:	89 04 24             	mov    %eax,(%esp)
    471d:	dd 5c 24 0c          	fstpl  0xc(%esp)
    4721:	dd 45 a8             	fldl   -0x58(%ebp)
    4724:	dd 5c 24 04          	fstpl  0x4(%esp)
    4728:	ff d6                	call   *%esi
    472a:	81 ff fe 00 00 00    	cmp    $0xfe,%edi
    4730:	77 41                	ja     4773 <source_determine_pixel+0x123>
    4732:	89 c1                	mov    %eax,%ecx
    4734:	31 db                	xor    %ebx,%ebx
    4736:	c1 e9 18             	shr    $0x18,%ecx
    4739:	89 5d d4             	mov    %ebx,-0x2c(%ebp)
    473c:	89 4d d0             	mov    %ecx,-0x30(%ebp)
    473f:	89 7d cc             	mov    %edi,-0x34(%ebp)
    4742:	df 6d d0             	fildll -0x30(%ebp)
    4745:	d9 7d ca             	fnstcw -0x36(%ebp)
    4748:	db 45 cc             	fildl  -0x34(%ebp)
    474b:	d8 35 20 30 02 00    	fdivs  0x23020
    4751:	66 8b 55 ca          	mov    -0x36(%ebp),%dx
    4755:	25 ff ff ff 00       	and    $0xffffff,%eax
    475a:	b6 0c                	mov    $0xc,%dh
    475c:	66 89 55 c8          	mov    %dx,-0x38(%ebp)
    4760:	de c9                	fmulp  %st,%st(1)
    4762:	d9 6d c8             	fldcw  -0x38(%ebp)
    4765:	df 7d d0             	fistpll -0x30(%ebp)
    4768:	d9 6d ca             	fldcw  -0x36(%ebp)
    476b:	8b 4d d0             	mov    -0x30(%ebp),%ecx
    476e:	c1 e1 18             	shl    $0x18,%ecx
    4771:	09 c8                	or     %ecx,%eax
    4773:	83 c4 6c             	add    $0x6c,%esp
    4776:	5b                   	pop    %ebx
    4777:	5e                   	pop    %esi
    4778:	5f                   	pop    %edi
    4779:	5d                   	pop    %ebp
    477a:	c3                   	ret    
    477b:	90                   	nop
    477c:	8d 74 26 00          	lea    0x0(%esi,%eiz,1),%esi
    4780:	8b 43 50             	mov    0x50(%ebx),%eax
    4783:	85 c0                	test   %eax,%eax
    4785:	0f 85 f4 fe ff ff    	jne    467f <source_determine_pixel+0x2f>
    478b:	90                   	nop
    478c:	8d 74 26 00          	lea    0x0(%esi,%eiz,1),%esi
    4790:	8b 53 58             	mov    0x58(%ebx),%edx
    4793:	e9 43 ff ff ff       	jmp    46db <source_determine_pixel+0x8b>
    4798:	8b 43 4c             	mov    0x4c(%ebx),%eax
    479b:	eb 8d                	jmp    472a <source_determine_pixel+0xda>
    479d:	66 90                	xchg   %ax,%ax
    479f:	90                   	nop

000047a0 <surface_create>:
    47a0:	55                   	push   %ebp
    47a1:	89 e5                	mov    %esp,%ebp
    47a3:	57                   	push   %edi
    47a4:	56                   	push   %esi
    47a5:	53                   	push   %ebx
    47a6:	83 ec 2c             	sub    $0x2c,%esp
    47a9:	8b 7d 08             	mov    0x8(%ebp),%edi
    47ac:	8b 75 0c             	mov    0xc(%ebp),%esi
    47af:	c7 04 24 20 00 00 00 	movl   $0x20,(%esp)
    47b6:	8b 5d 10             	mov    0x10(%ebp),%ebx
    47b9:	e8 c2 19 01 00       	call   16180 <malloc>
    47be:	89 c2                	mov    %eax,%edx
    47c0:	85 c0                	test   %eax,%eax
    47c2:	74 28                	je     47ec <surface_create+0x4c>
    47c4:	85 db                	test   %ebx,%ebx
    47c6:	74 30                	je     47f8 <surface_create+0x58>
    47c8:	8b 45 14             	mov    0x14(%ebp),%eax
    47cb:	89 7a 14             	mov    %edi,0x14(%edx)
    47ce:	89 72 18             	mov    %esi,0x18(%edx)
    47d1:	4f                   	dec    %edi
    47d2:	4e                   	dec    %esi
    47d3:	89 02                	mov    %eax,(%edx)
    47d5:	89 5a 1c             	mov    %ebx,0x1c(%edx)
    47d8:	89 7a 04             	mov    %edi,0x4(%edx)
    47db:	c7 42 08 00 00 00 00 	movl   $0x0,0x8(%edx)
    47e2:	89 72 0c             	mov    %esi,0xc(%edx)
    47e5:	c7 42 10 00 00 00 00 	movl   $0x0,0x10(%edx)
    47ec:	83 c4 2c             	add    $0x2c,%esp
    47ef:	89 d0                	mov    %edx,%eax
    47f1:	5b                   	pop    %ebx
    47f2:	5e                   	pop    %esi
    47f3:	5f                   	pop    %edi
    47f4:	5d                   	pop    %ebp
    47f5:	c3                   	ret    
    47f6:	66 90                	xchg   %ax,%ax
    47f8:	8d 0c bd 00 00 00 00 	lea    0x0(,%edi,4),%ecx
    47ff:	0f af ce             	imul   %esi,%ecx
    4802:	f6 45 14 01          	testb  $0x1,0x14(%ebp)
    4806:	74 50                	je     4858 <surface_create+0xb8>
    4808:	89 4c 24 04          	mov    %ecx,0x4(%esp)
    480c:	c7 44 24 08 0b 00 00 	movl   $0xb,0x8(%esp)
    4813:	00 
    4814:	c7 04 24 ff ff ff ff 	movl   $0xffffffff,(%esp)
    481b:	89 4d e0             	mov    %ecx,-0x20(%ebp)
    481e:	89 45 e4             	mov    %eax,-0x1c(%ebp)
    4821:	e8 da 1c 00 00       	call   6500 <as_area_create>
    4826:	8b 55 e4             	mov    -0x1c(%ebp),%edx
    4829:	89 c3                	mov    %eax,%ebx
    482b:	83 f8 ff             	cmp    $0xffffffff,%eax
    482e:	8b 4d e0             	mov    -0x20(%ebp),%ecx
    4831:	74 3f                	je     4872 <surface_create+0xd2>
    4833:	89 4c 24 08          	mov    %ecx,0x8(%esp)
    4837:	c7 44 24 04 00 00 00 	movl   $0x0,0x4(%esp)
    483e:	00 
    483f:	89 1c 24             	mov    %ebx,(%esp)
    4842:	89 55 e4             	mov    %edx,-0x1c(%ebp)
    4845:	e8 b6 47 00 00       	call   9000 <memset>
    484a:	8b 55 e4             	mov    -0x1c(%ebp),%edx
    484d:	e9 76 ff ff ff       	jmp    47c8 <surface_create+0x28>
    4852:	8d b6 00 00 00 00    	lea    0x0(%esi),%esi
    4858:	89 0c 24             	mov    %ecx,(%esp)
    485b:	89 4d e0             	mov    %ecx,-0x20(%ebp)
    485e:	89 45 e4             	mov    %eax,-0x1c(%ebp)
    4861:	e8 1a 19 01 00       	call   16180 <malloc>
    4866:	8b 55 e4             	mov    -0x1c(%ebp),%edx
    4869:	89 c3                	mov    %eax,%ebx
    486b:	85 c0                	test   %eax,%eax
    486d:	8b 4d e0             	mov    -0x20(%ebp),%ecx
    4870:	75 c1                	jne    4833 <surface_create+0x93>
    4872:	89 14 24             	mov    %edx,(%esp)
    4875:	e8 16 1a 01 00       	call   16290 <free>
    487a:	31 d2                	xor    %edx,%edx
    487c:	e9 6b ff ff ff       	jmp    47ec <surface_create+0x4c>
    4881:	eb 0d                	jmp    4890 <surface_destroy>
    4883:	90                   	nop
    4884:	90                   	nop
    4885:	90                   	nop
    4886:	90                   	nop
    4887:	90                   	nop
    4888:	90                   	nop
    4889:	90                   	nop
    488a:	90                   	nop
    488b:	90                   	nop
    488c:	90                   	nop
    488d:	90                   	nop
    488e:	90                   	nop
    488f:	90                   	nop

00004890 <surface_destroy>:
    4890:	55                   	push   %ebp
    4891:	89 e5                	mov    %esp,%ebp
    4893:	53                   	push   %ebx
    4894:	83 ec 14             	sub    $0x14,%esp
    4897:	8b 5d 08             	mov    0x8(%ebp),%ebx
    489a:	8b 43 1c             	mov    0x1c(%ebx),%eax
    489d:	f6 03 01             	testb  $0x1,(%ebx)
    48a0:	89 04 24             	mov    %eax,(%esp)
    48a3:	75 13                	jne    48b8 <surface_destroy+0x28>
    48a5:	e8 e6 19 01 00       	call   16290 <free>
    48aa:	89 5d 08             	mov    %ebx,0x8(%ebp)
    48ad:	83 c4 14             	add    $0x14,%esp
    48b0:	5b                   	pop    %ebx
    48b1:	5d                   	pop    %ebp
    48b2:	e9 d9 19 01 00       	jmp    16290 <free>
    48b7:	90                   	nop
    48b8:	e8 e3 1c 00 00       	call   65a0 <as_area_destroy>
    48bd:	89 5d 08             	mov    %ebx,0x8(%ebp)
    48c0:	83 c4 14             	add    $0x14,%esp
    48c3:	5b                   	pop    %ebx
    48c4:	5d                   	pop    %ebp
    48c5:	e9 c6 19 01 00       	jmp    16290 <free>
    48ca:	8d b6 00 00 00 00    	lea    0x0(%esi),%esi

000048d0 <surface_is_shared>:
    48d0:	55                   	push   %ebp
    48d1:	89 e5                	mov    %esp,%ebp
    48d3:	8b 45 08             	mov    0x8(%ebp),%eax
    48d6:	5d                   	pop    %ebp
    48d7:	8b 00                	mov    (%eax),%eax
    48d9:	83 e0 01             	and    $0x1,%eax
    48dc:	c3                   	ret    
    48dd:	8d 76 00             	lea    0x0(%esi),%esi

000048e0 <surface_direct_access>:
    48e0:	55                   	push   %ebp
    48e1:	89 e5                	mov    %esp,%ebp
    48e3:	8b 45 08             	mov    0x8(%ebp),%eax
    48e6:	5d                   	pop    %ebp
    48e7:	8b 40 1c             	mov    0x1c(%eax),%eax
    48ea:	c3                   	ret    
    48eb:	90                   	nop
    48ec:	8d 74 26 00          	lea    0x0(%esi,%eiz,1),%esi

000048f0 <surface_pixmap_access>:
    48f0:	55                   	push   %ebp
    48f1:	89 e5                	mov    %esp,%ebp
    48f3:	8b 45 08             	mov    0x8(%ebp),%eax
    48f6:	5d                   	pop    %ebp
    48f7:	83 c0 14             	add    $0x14,%eax
    48fa:	c3                   	ret    
    48fb:	90                   	nop
    48fc:	8d 74 26 00          	lea    0x0(%esi,%eiz,1),%esi

00004900 <surface_get_resolution>:
    4900:	55                   	push   %ebp
    4901:	89 e5                	mov    %esp,%ebp
    4903:	53                   	push   %ebx
    4904:	83 ec 14             	sub    $0x14,%esp
    4907:	8b 45 0c             	mov    0xc(%ebp),%eax
    490a:	8b 4d 08             	mov    0x8(%ebp),%ecx
    490d:	8b 55 10             	mov    0x10(%ebp),%edx
    4910:	85 c0                	test   %eax,%eax
    4912:	74 14                	je     4928 <surface_get_resolution+0x28>
    4914:	85 d2                	test   %edx,%edx
    4916:	74 2c                	je     4944 <surface_get_resolution+0x44>
    4918:	8b 59 14             	mov    0x14(%ecx),%ebx
    491b:	89 18                	mov    %ebx,(%eax)
    491d:	8b 41 18             	mov    0x18(%ecx),%eax
    4920:	89 02                	mov    %eax,(%edx)
    4922:	83 c4 14             	add    $0x14,%esp
    4925:	5b                   	pop    %ebx
    4926:	5d                   	pop    %ebp
    4927:	c3                   	ret    
    4928:	c7 44 24 08 7a 00 00 	movl   $0x7a,0x8(%esp)
    492f:	00 
    4930:	c7 44 24 04 24 30 02 	movl   $0x23024,0x4(%esp)
    4937:	00 
    4938:	c7 04 24 e1 2f 02 00 	movl   $0x22fe1,(%esp)
    493f:	e8 1c c1 01 00       	call   20a60 <assert_abort>
    4944:	c7 44 24 08 7b 00 00 	movl   $0x7b,0x8(%esp)
    494b:	00 
    494c:	c7 44 24 04 24 30 02 	movl   $0x23024,0x4(%esp)
    4953:	00 
    4954:	c7 04 24 e7 2f 02 00 	movl   $0x22fe7,(%esp)
    495b:	e8 00 c1 01 00       	call   20a60 <assert_abort>

00004960 <surface_get_damaged_region>:
    4960:	55                   	push   %ebp
    4961:	89 e5                	mov    %esp,%ebp
    4963:	57                   	push   %edi
    4964:	56                   	push   %esi
    4965:	53                   	push   %ebx
    4966:	83 ec 1c             	sub    $0x1c,%esp
    4969:	8b 55 0c             	mov    0xc(%ebp),%edx
    496c:	8b 45 08             	mov    0x8(%ebp),%eax
    496f:	8b 75 10             	mov    0x10(%ebp),%esi
    4972:	8b 4d 14             	mov    0x14(%ebp),%ecx
    4975:	8b 5d 18             	mov    0x18(%ebp),%ebx
    4978:	85 d2                	test   %edx,%edx
    497a:	0f 84 9b 00 00 00    	je     4a1b <surface_get_damaged_region+0xbb>
    4980:	85 f6                	test   %esi,%esi
    4982:	74 7b                	je     49ff <surface_get_damaged_region+0x9f>
    4984:	85 c9                	test   %ecx,%ecx
    4986:	74 5b                	je     49e3 <surface_get_damaged_region+0x83>
    4988:	85 db                	test   %ebx,%ebx
    498a:	74 3b                	je     49c7 <surface_get_damaged_region+0x67>
    498c:	8b 78 04             	mov    0x4(%eax),%edi
    498f:	89 3a                	mov    %edi,(%edx)
    4991:	8b 50 0c             	mov    0xc(%eax),%edx
    4994:	89 16                	mov    %edx,(%esi)
    4996:	31 d2                	xor    %edx,%edx
    4998:	8b 70 04             	mov    0x4(%eax),%esi
    499b:	8b 78 08             	mov    0x8(%eax),%edi
    499e:	39 fe                	cmp    %edi,%esi
    49a0:	76 1e                	jbe    49c0 <surface_get_damaged_region+0x60>
    49a2:	89 11                	mov    %edx,(%ecx)
    49a4:	8b 50 0c             	mov    0xc(%eax),%edx
    49a7:	8b 48 10             	mov    0x10(%eax),%ecx
    49aa:	31 c0                	xor    %eax,%eax
    49ac:	39 ca                	cmp    %ecx,%edx
    49ae:	77 05                	ja     49b5 <surface_get_damaged_region+0x55>
    49b0:	8d 41 01             	lea    0x1(%ecx),%eax
    49b3:	29 d0                	sub    %edx,%eax
    49b5:	89 03                	mov    %eax,(%ebx)
    49b7:	83 c4 1c             	add    $0x1c,%esp
    49ba:	5b                   	pop    %ebx
    49bb:	5e                   	pop    %esi
    49bc:	5f                   	pop    %edi
    49bd:	5d                   	pop    %ebp
    49be:	c3                   	ret    
    49bf:	90                   	nop
    49c0:	8d 57 01             	lea    0x1(%edi),%edx
    49c3:	29 f2                	sub    %esi,%edx
    49c5:	eb db                	jmp    49a2 <surface_get_damaged_region+0x42>
    49c7:	c7 44 24 08 87 00 00 	movl   $0x87,0x8(%esp)
    49ce:	00 
    49cf:	c7 44 24 04 24 30 02 	movl   $0x23024,0x4(%esp)
    49d6:	00 
    49d7:	c7 04 24 e7 2f 02 00 	movl   $0x22fe7,(%esp)
    49de:	e8 7d c0 01 00       	call   20a60 <assert_abort>
    49e3:	c7 44 24 08 86 00 00 	movl   $0x86,0x8(%esp)
    49ea:	00 
    49eb:	c7 44 24 04 24 30 02 	movl   $0x23024,0x4(%esp)
    49f2:	00 
    49f3:	c7 04 24 e1 2f 02 00 	movl   $0x22fe1,(%esp)
    49fa:	e8 61 c0 01 00       	call   20a60 <assert_abort>
    49ff:	c7 44 24 08 85 00 00 	movl   $0x85,0x8(%esp)
    4a06:	00 
    4a07:	c7 44 24 04 24 30 02 	movl   $0x23024,0x4(%esp)
    4a0e:	00 
    4a0f:	c7 04 24 aa 3e 02 00 	movl   $0x23eaa,(%esp)
    4a16:	e8 45 c0 01 00       	call   20a60 <assert_abort>
    4a1b:	c7 44 24 08 84 00 00 	movl   $0x84,0x8(%esp)
    4a22:	00 
    4a23:	c7 44 24 04 24 30 02 	movl   $0x23024,0x4(%esp)
    4a2a:	00 
    4a2b:	c7 04 24 2e 30 02 00 	movl   $0x2302e,(%esp)
    4a32:	e8 29 c0 01 00       	call   20a60 <assert_abort>
    4a37:	89 f6                	mov    %esi,%esi
    4a39:	8d bc 27 00 00 00 00 	lea    0x0(%edi,%eiz,1),%edi

00004a40 <surface_add_damaged_region>:
    4a40:	55                   	push   %ebp
    4a41:	89 e5                	mov    %esp,%ebp
    4a43:	56                   	push   %esi
