
calculator:     file format elf32-i386


Disassembly of section .init:

00001094 <__entry>:
    1094:	66 8c d0             	mov    %ss,%ax
    1097:	8e d8                	mov    %eax,%ds
    1099:	8e c0                	mov    %eax,%es
    109b:	8e e0                	mov    %eax,%fs
    109d:	b8 01 00 00 00       	mov    $0x1,%eax
    10a2:	0f a2                	cpuid  
    10a4:	0f ba e2 0b          	bt     $0xb,%edx
    10a8:	73 0c                	jae    10b6 <__entry+0x22>
    10aa:	8d 05 14 35 03 00    	lea    0x33514,%eax
    10b0:	c7 00 37 31 02 00    	movl   $0x23137,(%eax)
    10b6:	6a 00                	push   $0x0
    10b8:	89 e5                	mov    %esp,%ebp
    10ba:	57                   	push   %edi
    10bb:	e8 d0 77 00 00       	call   8890 <__main>

Disassembly of section .text:

000010c0 <onClick_btn6>:
    10c0:	55                   	push   %ebp
    10c1:	c7 05 f8 36 03 00 00 	movl   $0x0,0x336f8
    10c8:	00 00 00 
    10cb:	89 e5                	mov    %esp,%ebp
    10cd:	8b 45 08             	mov    0x8(%ebp),%eax
    10d0:	c7 45 0c e2 52 02 00 	movl   $0x252e2,0xc(%ebp)
    10d7:	5d                   	pop    %ebp
    10d8:	8b 80 34 01 00 00    	mov    0x134(%eax),%eax
    10de:	ff e0                	jmp    *%eax

000010e0 <x_label_destroy>:
    10e0:	55                   	push   %ebp
    10e1:	89 e5                	mov    %esp,%ebp
    10e3:	53                   	push   %ebx
    10e4:	83 ec 14             	sub    $0x14,%esp
    10e7:	8b 5d 08             	mov    0x8(%ebp),%ebx
    10ea:	89 1c 24             	mov    %ebx,(%esp)
    10ed:	e8 8e 36 00 00       	call   4780 <deinit_label>
    10f2:	89 5d 08             	mov    %ebx,0x8(%ebp)
    10f5:	83 c4 14             	add    $0x14,%esp
    10f8:	5b                   	pop    %ebx
    10f9:	5d                   	pop    %ebp
    10fa:	e9 e1 77 01 00       	jmp    188e0 <free>
    10ff:	90                   	nop

00001100 <onClick_btn4>:
    1100:	55                   	push   %ebp
    1101:	89 e5                	mov    %esp,%ebp
    1103:	57                   	push   %edi
    1104:	56                   	push   %esi
    1105:	53                   	push   %ebx
    1106:	83 ec 2c             	sub    $0x2c,%esp
    1109:	8b 75 08             	mov    0x8(%ebp),%esi
    110c:	8b 86 20 01 00 00    	mov    0x120(%esi),%eax
    1112:	89 04 24             	mov    %eax,(%esp)
    1115:	e8 66 d2 00 00       	call   e380 <str_dup>
    111a:	c7 44 24 04 e2 52 02 	movl   $0x252e2,0x4(%esp)
    1121:	00 
    1122:	89 04 24             	mov    %eax,(%esp)
    1125:	89 c3                	mov    %eax,%ebx
    1127:	e8 e4 b7 00 00       	call   c910 <str_cmp>
    112c:	85 c0                	test   %eax,%eax
    112e:	74 78                	je     11a8 <onClick_btn4+0xa8>
    1130:	85 db                	test   %ebx,%ebx
    1132:	74 14                	je     1148 <onClick_btn4+0x48>
    1134:	c7 44 24 04 e2 52 02 	movl   $0x252e2,0x4(%esp)
    113b:	00 
    113c:	89 1c 24             	mov    %ebx,(%esp)
    113f:	e8 cc b7 00 00       	call   c910 <str_cmp>
    1144:	85 c0                	test   %eax,%eax
    1146:	75 08                	jne    1150 <onClick_btn4+0x50>
    1148:	83 c4 2c             	add    $0x2c,%esp
    114b:	5b                   	pop    %ebx
    114c:	5e                   	pop    %esi
    114d:	5f                   	pop    %edi
    114e:	5d                   	pop    %ebp
    114f:	c3                   	ret    
    1150:	c7 04 24 09 00 00 00 	movl   $0x9,(%esp)
    1157:	e8 74 76 01 00       	call   187d0 <malloc>
    115c:	85 c0                	test   %eax,%eax
    115e:	74 e8                	je     1148 <onClick_btn4+0x48>
    1160:	89 1c 24             	mov    %ebx,(%esp)
    1163:	e8 18 d2 00 00       	call   e380 <str_dup>
    1168:	89 04 24             	mov    %eax,(%esp)
    116b:	89 c7                	mov    %eax,%edi
    116d:	e8 6e b2 00 00       	call   c3e0 <str_size>
    1172:	89 1c 24             	mov    %ebx,(%esp)
    1175:	89 45 e4             	mov    %eax,-0x1c(%ebp)
    1178:	e8 63 b2 00 00       	call   c3e0 <str_size>
    117d:	8b 55 e4             	mov    -0x1c(%ebp),%edx
    1180:	c7 44 24 08 e4 52 02 	movl   $0x252e4,0x8(%esp)
    1187:	00 
    1188:	89 3c 24             	mov    %edi,(%esp)
    118b:	8d 44 02 01          	lea    0x1(%edx,%eax,1),%eax
    118f:	89 44 24 04          	mov    %eax,0x4(%esp)
    1193:	e8 18 c2 00 00       	call   d3b0 <str_append>
    1198:	89 3c 24             	mov    %edi,(%esp)
    119b:	e8 e0 d1 00 00       	call   e380 <str_dup>
    11a0:	89 45 0c             	mov    %eax,0xc(%ebp)
    11a3:	eb 0a                	jmp    11af <onClick_btn4+0xaf>
    11a5:	8d 76 00             	lea    0x0(%esi),%esi
    11a8:	c7 45 0c e4 52 02 00 	movl   $0x252e4,0xc(%ebp)
    11af:	89 75 08             	mov    %esi,0x8(%ebp)
    11b2:	8b 86 34 01 00 00    	mov    0x134(%esi),%eax
    11b8:	83 c4 2c             	add    $0x2c,%esp
    11bb:	5b                   	pop    %ebx
    11bc:	5e                   	pop    %esi
    11bd:	5f                   	pop    %edi
    11be:	5d                   	pop    %ebp
    11bf:	ff e0                	jmp    *%eax
    11c1:	eb 0d                	jmp    11d0 <onClick_btn3>
    11c3:	90                   	nop
    11c4:	90                   	nop
    11c5:	90                   	nop
    11c6:	90                   	nop
    11c7:	90                   	nop
    11c8:	90                   	nop
    11c9:	90                   	nop
    11ca:	90                   	nop
    11cb:	90                   	nop
    11cc:	90                   	nop
    11cd:	90                   	nop
    11ce:	90                   	nop
    11cf:	90                   	nop

000011d0 <onClick_btn3>:
    11d0:	55                   	push   %ebp
    11d1:	89 e5                	mov    %esp,%ebp
    11d3:	57                   	push   %edi
    11d4:	56                   	push   %esi
    11d5:	53                   	push   %ebx
    11d6:	83 ec 2c             	sub    $0x2c,%esp
    11d9:	8b 75 08             	mov    0x8(%ebp),%esi
    11dc:	8b 86 20 01 00 00    	mov    0x120(%esi),%eax
    11e2:	89 04 24             	mov    %eax,(%esp)
    11e5:	e8 96 d1 00 00       	call   e380 <str_dup>
    11ea:	c7 44 24 04 e2 52 02 	movl   $0x252e2,0x4(%esp)
    11f1:	00 
    11f2:	89 04 24             	mov    %eax,(%esp)
    11f5:	89 c3                	mov    %eax,%ebx
    11f7:	e8 14 b7 00 00       	call   c910 <str_cmp>
    11fc:	85 c0                	test   %eax,%eax
    11fe:	74 78                	je     1278 <onClick_btn3+0xa8>
    1200:	85 db                	test   %ebx,%ebx
    1202:	74 14                	je     1218 <onClick_btn3+0x48>
    1204:	c7 44 24 04 e2 52 02 	movl   $0x252e2,0x4(%esp)
    120b:	00 
    120c:	89 1c 24             	mov    %ebx,(%esp)
    120f:	e8 fc b6 00 00       	call   c910 <str_cmp>
    1214:	85 c0                	test   %eax,%eax
    1216:	75 08                	jne    1220 <onClick_btn3+0x50>
    1218:	83 c4 2c             	add    $0x2c,%esp
    121b:	5b                   	pop    %ebx
    121c:	5e                   	pop    %esi
    121d:	5f                   	pop    %edi
    121e:	5d                   	pop    %ebp
    121f:	c3                   	ret    
    1220:	c7 04 24 09 00 00 00 	movl   $0x9,(%esp)
    1227:	e8 a4 75 01 00       	call   187d0 <malloc>
    122c:	85 c0                	test   %eax,%eax
    122e:	74 e8                	je     1218 <onClick_btn3+0x48>
    1230:	89 1c 24             	mov    %ebx,(%esp)
    1233:	e8 48 d1 00 00       	call   e380 <str_dup>
    1238:	89 04 24             	mov    %eax,(%esp)
    123b:	89 c7                	mov    %eax,%edi
    123d:	e8 9e b1 00 00       	call   c3e0 <str_size>
    1242:	89 1c 24             	mov    %ebx,(%esp)
    1245:	89 45 e4             	mov    %eax,-0x1c(%ebp)
    1248:	e8 93 b1 00 00       	call   c3e0 <str_size>
    124d:	8b 55 e4             	mov    -0x1c(%ebp),%edx
    1250:	c7 44 24 08 e6 52 02 	movl   $0x252e6,0x8(%esp)
    1257:	00 
    1258:	89 3c 24             	mov    %edi,(%esp)
    125b:	8d 44 02 01          	lea    0x1(%edx,%eax,1),%eax
    125f:	89 44 24 04          	mov    %eax,0x4(%esp)
    1263:	e8 48 c1 00 00       	call   d3b0 <str_append>
    1268:	89 3c 24             	mov    %edi,(%esp)
    126b:	e8 10 d1 00 00       	call   e380 <str_dup>
    1270:	89 45 0c             	mov    %eax,0xc(%ebp)
    1273:	eb 0a                	jmp    127f <onClick_btn3+0xaf>
    1275:	8d 76 00             	lea    0x0(%esi),%esi
    1278:	c7 45 0c e6 52 02 00 	movl   $0x252e6,0xc(%ebp)
    127f:	89 75 08             	mov    %esi,0x8(%ebp)
    1282:	8b 86 34 01 00 00    	mov    0x134(%esi),%eax
    1288:	83 c4 2c             	add    $0x2c,%esp
    128b:	5b                   	pop    %ebx
    128c:	5e                   	pop    %esi
    128d:	5f                   	pop    %edi
    128e:	5d                   	pop    %ebp
    128f:	ff e0                	jmp    *%eax
    1291:	eb 0d                	jmp    12a0 <onClick_btn2>
    1293:	90                   	nop
    1294:	90                   	nop
    1295:	90                   	nop
    1296:	90                   	nop
    1297:	90                   	nop
    1298:	90                   	nop
    1299:	90                   	nop
    129a:	90                   	nop
    129b:	90                   	nop
    129c:	90                   	nop
    129d:	90                   	nop
    129e:	90                   	nop
    129f:	90                   	nop

000012a0 <onClick_btn2>:
    12a0:	55                   	push   %ebp
    12a1:	89 e5                	mov    %esp,%ebp
    12a3:	57                   	push   %edi
    12a4:	56                   	push   %esi
    12a5:	53                   	push   %ebx
    12a6:	83 ec 2c             	sub    $0x2c,%esp
    12a9:	8b 75 08             	mov    0x8(%ebp),%esi
    12ac:	8b 86 20 01 00 00    	mov    0x120(%esi),%eax
    12b2:	89 04 24             	mov    %eax,(%esp)
    12b5:	e8 c6 d0 00 00       	call   e380 <str_dup>
    12ba:	c7 44 24 04 e2 52 02 	movl   $0x252e2,0x4(%esp)
    12c1:	00 
    12c2:	89 04 24             	mov    %eax,(%esp)
    12c5:	89 c3                	mov    %eax,%ebx
    12c7:	e8 44 b6 00 00       	call   c910 <str_cmp>
    12cc:	85 c0                	test   %eax,%eax
    12ce:	74 78                	je     1348 <onClick_btn2+0xa8>
    12d0:	85 db                	test   %ebx,%ebx
    12d2:	74 14                	je     12e8 <onClick_btn2+0x48>
    12d4:	c7 44 24 04 e2 52 02 	movl   $0x252e2,0x4(%esp)
    12db:	00 
    12dc:	89 1c 24             	mov    %ebx,(%esp)
    12df:	e8 2c b6 00 00       	call   c910 <str_cmp>
    12e4:	85 c0                	test   %eax,%eax
    12e6:	75 08                	jne    12f0 <onClick_btn2+0x50>
    12e8:	83 c4 2c             	add    $0x2c,%esp
    12eb:	5b                   	pop    %ebx
    12ec:	5e                   	pop    %esi
    12ed:	5f                   	pop    %edi
    12ee:	5d                   	pop    %ebp
    12ef:	c3                   	ret    
    12f0:	c7 04 24 09 00 00 00 	movl   $0x9,(%esp)
    12f7:	e8 d4 74 01 00       	call   187d0 <malloc>
    12fc:	85 c0                	test   %eax,%eax
    12fe:	74 e8                	je     12e8 <onClick_btn2+0x48>
    1300:	89 1c 24             	mov    %ebx,(%esp)
    1303:	e8 78 d0 00 00       	call   e380 <str_dup>
    1308:	89 04 24             	mov    %eax,(%esp)
    130b:	89 c7                	mov    %eax,%edi
    130d:	e8 ce b0 00 00       	call   c3e0 <str_size>
    1312:	89 1c 24             	mov    %ebx,(%esp)
    1315:	89 45 e4             	mov    %eax,-0x1c(%ebp)
    1318:	e8 c3 b0 00 00       	call   c3e0 <str_size>
    131d:	8b 55 e4             	mov    -0x1c(%ebp),%edx
    1320:	c7 44 24 08 e8 52 02 	movl   $0x252e8,0x8(%esp)
    1327:	00 
    1328:	89 3c 24             	mov    %edi,(%esp)
    132b:	8d 44 02 01          	lea    0x1(%edx,%eax,1),%eax
    132f:	89 44 24 04          	mov    %eax,0x4(%esp)
    1333:	e8 78 c0 00 00       	call   d3b0 <str_append>
    1338:	89 3c 24             	mov    %edi,(%esp)
    133b:	e8 40 d0 00 00       	call   e380 <str_dup>
    1340:	89 45 0c             	mov    %eax,0xc(%ebp)
    1343:	eb 0a                	jmp    134f <onClick_btn2+0xaf>
    1345:	8d 76 00             	lea    0x0(%esi),%esi
    1348:	c7 45 0c e8 52 02 00 	movl   $0x252e8,0xc(%ebp)
    134f:	89 75 08             	mov    %esi,0x8(%ebp)
    1352:	8b 86 34 01 00 00    	mov    0x134(%esi),%eax
    1358:	83 c4 2c             	add    $0x2c,%esp
    135b:	5b                   	pop    %ebx
    135c:	5e                   	pop    %esi
    135d:	5f                   	pop    %edi
    135e:	5d                   	pop    %ebp
    135f:	ff e0                	jmp    *%eax
    1361:	eb 0d                	jmp    1370 <onClick_btn1>
    1363:	90                   	nop
    1364:	90                   	nop
    1365:	90                   	nop
    1366:	90                   	nop
    1367:	90                   	nop
    1368:	90                   	nop
    1369:	90                   	nop
    136a:	90                   	nop
    136b:	90                   	nop
    136c:	90                   	nop
    136d:	90                   	nop
    136e:	90                   	nop
    136f:	90                   	nop

00001370 <onClick_btn1>:
    1370:	55                   	push   %ebp
    1371:	89 e5                	mov    %esp,%ebp
    1373:	57                   	push   %edi
    1374:	56                   	push   %esi
    1375:	53                   	push   %ebx
    1376:	83 ec 2c             	sub    $0x2c,%esp
    1379:	8b 75 08             	mov    0x8(%ebp),%esi
    137c:	8b 86 20 01 00 00    	mov    0x120(%esi),%eax
    1382:	89 04 24             	mov    %eax,(%esp)
    1385:	e8 f6 cf 00 00       	call   e380 <str_dup>
    138a:	c7 44 24 04 e2 52 02 	movl   $0x252e2,0x4(%esp)
    1391:	00 
    1392:	89 04 24             	mov    %eax,(%esp)
    1395:	89 c3                	mov    %eax,%ebx
    1397:	e8 74 b5 00 00       	call   c910 <str_cmp>
    139c:	85 c0                	test   %eax,%eax
    139e:	74 78                	je     1418 <onClick_btn1+0xa8>
    13a0:	85 db                	test   %ebx,%ebx
    13a2:	74 14                	je     13b8 <onClick_btn1+0x48>
    13a4:	c7 44 24 04 e2 52 02 	movl   $0x252e2,0x4(%esp)
    13ab:	00 
    13ac:	89 1c 24             	mov    %ebx,(%esp)
    13af:	e8 5c b5 00 00       	call   c910 <str_cmp>
    13b4:	85 c0                	test   %eax,%eax
    13b6:	75 08                	jne    13c0 <onClick_btn1+0x50>
    13b8:	83 c4 2c             	add    $0x2c,%esp
    13bb:	5b                   	pop    %ebx
    13bc:	5e                   	pop    %esi
    13bd:	5f                   	pop    %edi
    13be:	5d                   	pop    %ebp
    13bf:	c3                   	ret    
    13c0:	c7 04 24 09 00 00 00 	movl   $0x9,(%esp)
    13c7:	e8 04 74 01 00       	call   187d0 <malloc>
    13cc:	85 c0                	test   %eax,%eax
    13ce:	74 e8                	je     13b8 <onClick_btn1+0x48>
    13d0:	89 1c 24             	mov    %ebx,(%esp)
    13d3:	e8 a8 cf 00 00       	call   e380 <str_dup>
    13d8:	89 04 24             	mov    %eax,(%esp)
    13db:	89 c7                	mov    %eax,%edi
    13dd:	e8 fe af 00 00       	call   c3e0 <str_size>
    13e2:	89 1c 24             	mov    %ebx,(%esp)
    13e5:	89 45 e4             	mov    %eax,-0x1c(%ebp)
    13e8:	e8 f3 af 00 00       	call   c3e0 <str_size>
    13ed:	8b 55 e4             	mov    -0x1c(%ebp),%edx
    13f0:	c7 44 24 08 ea 52 02 	movl   $0x252ea,0x8(%esp)
    13f7:	00 
    13f8:	89 3c 24             	mov    %edi,(%esp)
    13fb:	8d 44 02 01          	lea    0x1(%edx,%eax,1),%eax
    13ff:	89 44 24 04          	mov    %eax,0x4(%esp)
    1403:	e8 a8 bf 00 00       	call   d3b0 <str_append>
    1408:	89 3c 24             	mov    %edi,(%esp)
    140b:	e8 70 cf 00 00       	call   e380 <str_dup>
    1410:	89 45 0c             	mov    %eax,0xc(%ebp)
    1413:	eb 0a                	jmp    141f <onClick_btn1+0xaf>
    1415:	8d 76 00             	lea    0x0(%esi),%esi
    1418:	c7 45 0c ea 52 02 00 	movl   $0x252ea,0xc(%ebp)
    141f:	89 75 08             	mov    %esi,0x8(%ebp)
    1422:	8b 86 34 01 00 00    	mov    0x134(%esi),%eax
    1428:	83 c4 2c             	add    $0x2c,%esp
    142b:	5b                   	pop    %ebx
    142c:	5e                   	pop    %esi
    142d:	5f                   	pop    %edi
    142e:	5d                   	pop    %ebp
    142f:	ff e0                	jmp    *%eax
    1431:	eb 0d                	jmp    1440 <onClick_btn_0>
    1433:	90                   	nop
    1434:	90                   	nop
    1435:	90                   	nop
    1436:	90                   	nop
    1437:	90                   	nop
    1438:	90                   	nop
    1439:	90                   	nop
    143a:	90                   	nop
    143b:	90                   	nop
    143c:	90                   	nop
    143d:	90                   	nop
    143e:	90                   	nop
    143f:	90                   	nop

00001440 <onClick_btn_0>:
    1440:	55                   	push   %ebp
    1441:	89 e5                	mov    %esp,%ebp
    1443:	57                   	push   %edi
    1444:	56                   	push   %esi
    1445:	53                   	push   %ebx
    1446:	83 ec 2c             	sub    $0x2c,%esp
    1449:	8b 75 08             	mov    0x8(%ebp),%esi
    144c:	8b 86 20 01 00 00    	mov    0x120(%esi),%eax
    1452:	89 04 24             	mov    %eax,(%esp)
    1455:	e8 26 cf 00 00       	call   e380 <str_dup>
    145a:	c7 44 24 04 e2 52 02 	movl   $0x252e2,0x4(%esp)
    1461:	00 
    1462:	89 04 24             	mov    %eax,(%esp)
    1465:	89 c3                	mov    %eax,%ebx
    1467:	e8 a4 b4 00 00       	call   c910 <str_cmp>
    146c:	85 c0                	test   %eax,%eax
    146e:	74 78                	je     14e8 <onClick_btn_0+0xa8>
    1470:	85 db                	test   %ebx,%ebx
    1472:	74 14                	je     1488 <onClick_btn_0+0x48>
    1474:	c7 44 24 04 e2 52 02 	movl   $0x252e2,0x4(%esp)
    147b:	00 
    147c:	89 1c 24             	mov    %ebx,(%esp)
    147f:	e8 8c b4 00 00       	call   c910 <str_cmp>
    1484:	85 c0                	test   %eax,%eax
    1486:	75 08                	jne    1490 <onClick_btn_0+0x50>
    1488:	83 c4 2c             	add    $0x2c,%esp
    148b:	5b                   	pop    %ebx
    148c:	5e                   	pop    %esi
    148d:	5f                   	pop    %edi
    148e:	5d                   	pop    %ebp
    148f:	c3                   	ret    
    1490:	c7 04 24 09 00 00 00 	movl   $0x9,(%esp)
    1497:	e8 34 73 01 00       	call   187d0 <malloc>
    149c:	85 c0                	test   %eax,%eax
    149e:	74 e8                	je     1488 <onClick_btn_0+0x48>
    14a0:	89 1c 24             	mov    %ebx,(%esp)
    14a3:	e8 d8 ce 00 00       	call   e380 <str_dup>
    14a8:	89 04 24             	mov    %eax,(%esp)
    14ab:	89 c7                	mov    %eax,%edi
    14ad:	e8 2e af 00 00       	call   c3e0 <str_size>
    14b2:	89 1c 24             	mov    %ebx,(%esp)
    14b5:	89 45 e4             	mov    %eax,-0x1c(%ebp)
    14b8:	e8 23 af 00 00       	call   c3e0 <str_size>
    14bd:	8b 55 e4             	mov    -0x1c(%ebp),%edx
    14c0:	c7 44 24 08 2e 5b 02 	movl   $0x25b2e,0x8(%esp)
    14c7:	00 
    14c8:	89 3c 24             	mov    %edi,(%esp)
    14cb:	8d 44 02 01          	lea    0x1(%edx,%eax,1),%eax
    14cf:	89 44 24 04          	mov    %eax,0x4(%esp)
    14d3:	e8 d8 be 00 00       	call   d3b0 <str_append>
    14d8:	89 3c 24             	mov    %edi,(%esp)
    14db:	e8 a0 ce 00 00       	call   e380 <str_dup>
    14e0:	89 45 0c             	mov    %eax,0xc(%ebp)
    14e3:	eb 0a                	jmp    14ef <onClick_btn_0+0xaf>
    14e5:	8d 76 00             	lea    0x0(%esi),%esi
    14e8:	c7 45 0c 2e 5b 02 00 	movl   $0x25b2e,0xc(%ebp)
    14ef:	89 75 08             	mov    %esi,0x8(%ebp)
    14f2:	8b 86 34 01 00 00    	mov    0x134(%esi),%eax
    14f8:	83 c4 2c             	add    $0x2c,%esp
    14fb:	5b                   	pop    %ebx
    14fc:	5e                   	pop    %esi
    14fd:	5f                   	pop    %edi
    14fe:	5d                   	pop    %ebp
    14ff:	ff e0                	jmp    *%eax
    1501:	eb 0d                	jmp    1510 <onClick_btn_9>
    1503:	90                   	nop
    1504:	90                   	nop
    1505:	90                   	nop
    1506:	90                   	nop
    1507:	90                   	nop
    1508:	90                   	nop
    1509:	90                   	nop
    150a:	90                   	nop
    150b:	90                   	nop
    150c:	90                   	nop
    150d:	90                   	nop
    150e:	90                   	nop
    150f:	90                   	nop

00001510 <onClick_btn_9>:
    1510:	55                   	push   %ebp
    1511:	89 e5                	mov    %esp,%ebp
    1513:	57                   	push   %edi
    1514:	56                   	push   %esi
    1515:	53                   	push   %ebx
    1516:	83 ec 2c             	sub    $0x2c,%esp
    1519:	8b 75 08             	mov    0x8(%ebp),%esi
    151c:	8b 86 20 01 00 00    	mov    0x120(%esi),%eax
    1522:	89 04 24             	mov    %eax,(%esp)
    1525:	e8 56 ce 00 00       	call   e380 <str_dup>
    152a:	c7 44 24 04 e2 52 02 	movl   $0x252e2,0x4(%esp)
    1531:	00 
    1532:	89 04 24             	mov    %eax,(%esp)
    1535:	89 c3                	mov    %eax,%ebx
    1537:	e8 d4 b3 00 00       	call   c910 <str_cmp>
    153c:	85 c0                	test   %eax,%eax
    153e:	74 78                	je     15b8 <onClick_btn_9+0xa8>
    1540:	85 db                	test   %ebx,%ebx
    1542:	74 14                	je     1558 <onClick_btn_9+0x48>
    1544:	c7 44 24 04 e2 52 02 	movl   $0x252e2,0x4(%esp)
    154b:	00 
    154c:	89 1c 24             	mov    %ebx,(%esp)
    154f:	e8 bc b3 00 00       	call   c910 <str_cmp>
    1554:	85 c0                	test   %eax,%eax
    1556:	75 08                	jne    1560 <onClick_btn_9+0x50>
    1558:	83 c4 2c             	add    $0x2c,%esp
    155b:	5b                   	pop    %ebx
    155c:	5e                   	pop    %esi
    155d:	5f                   	pop    %edi
    155e:	5d                   	pop    %ebp
    155f:	c3                   	ret    
    1560:	c7 04 24 09 00 00 00 	movl   $0x9,(%esp)
    1567:	e8 64 72 01 00       	call   187d0 <malloc>
    156c:	85 c0                	test   %eax,%eax
    156e:	74 e8                	je     1558 <onClick_btn_9+0x48>
    1570:	89 1c 24             	mov    %ebx,(%esp)
    1573:	e8 08 ce 00 00       	call   e380 <str_dup>
    1578:	89 04 24             	mov    %eax,(%esp)
    157b:	89 c7                	mov    %eax,%edi
    157d:	e8 5e ae 00 00       	call   c3e0 <str_size>
    1582:	89 1c 24             	mov    %ebx,(%esp)
    1585:	89 45 e4             	mov    %eax,-0x1c(%ebp)
    1588:	e8 53 ae 00 00       	call   c3e0 <str_size>
    158d:	8b 55 e4             	mov    -0x1c(%ebp),%edx
    1590:	c7 44 24 08 ec 52 02 	movl   $0x252ec,0x8(%esp)
    1597:	00 
    1598:	89 3c 24             	mov    %edi,(%esp)
    159b:	8d 44 02 01          	lea    0x1(%edx,%eax,1),%eax
    159f:	89 44 24 04          	mov    %eax,0x4(%esp)
    15a3:	e8 08 be 00 00       	call   d3b0 <str_append>
    15a8:	89 3c 24             	mov    %edi,(%esp)
    15ab:	e8 d0 cd 00 00       	call   e380 <str_dup>
    15b0:	89 45 0c             	mov    %eax,0xc(%ebp)
    15b3:	eb 0a                	jmp    15bf <onClick_btn_9+0xaf>
    15b5:	8d 76 00             	lea    0x0(%esi),%esi
    15b8:	c7 45 0c ec 52 02 00 	movl   $0x252ec,0xc(%ebp)
    15bf:	89 75 08             	mov    %esi,0x8(%ebp)
    15c2:	8b 86 34 01 00 00    	mov    0x134(%esi),%eax
    15c8:	83 c4 2c             	add    $0x2c,%esp
    15cb:	5b                   	pop    %ebx
    15cc:	5e                   	pop    %esi
    15cd:	5f                   	pop    %edi
    15ce:	5d                   	pop    %ebp
    15cf:	ff e0                	jmp    *%eax
    15d1:	eb 0d                	jmp    15e0 <onClick_btn_8>
    15d3:	90                   	nop
    15d4:	90                   	nop
    15d5:	90                   	nop
    15d6:	90                   	nop
    15d7:	90                   	nop
    15d8:	90                   	nop
    15d9:	90                   	nop
    15da:	90                   	nop
    15db:	90                   	nop
    15dc:	90                   	nop
    15dd:	90                   	nop
    15de:	90                   	nop
    15df:	90                   	nop

000015e0 <onClick_btn_8>:
    15e0:	55                   	push   %ebp
    15e1:	89 e5                	mov    %esp,%ebp
    15e3:	57                   	push   %edi
    15e4:	56                   	push   %esi
    15e5:	53                   	push   %ebx
    15e6:	83 ec 2c             	sub    $0x2c,%esp
    15e9:	8b 75 08             	mov    0x8(%ebp),%esi
    15ec:	8b 86 20 01 00 00    	mov    0x120(%esi),%eax
    15f2:	89 04 24             	mov    %eax,(%esp)
    15f5:	e8 86 cd 00 00       	call   e380 <str_dup>
    15fa:	c7 44 24 04 e2 52 02 	movl   $0x252e2,0x4(%esp)
    1601:	00 
    1602:	89 04 24             	mov    %eax,(%esp)
    1605:	89 c3                	mov    %eax,%ebx
    1607:	e8 04 b3 00 00       	call   c910 <str_cmp>
    160c:	85 c0                	test   %eax,%eax
    160e:	74 78                	je     1688 <onClick_btn_8+0xa8>
    1610:	85 db                	test   %ebx,%ebx
    1612:	74 14                	je     1628 <onClick_btn_8+0x48>
    1614:	c7 44 24 04 e2 52 02 	movl   $0x252e2,0x4(%esp)
    161b:	00 
    161c:	89 1c 24             	mov    %ebx,(%esp)
    161f:	e8 ec b2 00 00       	call   c910 <str_cmp>
    1624:	85 c0                	test   %eax,%eax
    1626:	75 08                	jne    1630 <onClick_btn_8+0x50>
    1628:	83 c4 2c             	add    $0x2c,%esp
    162b:	5b                   	pop    %ebx
    162c:	5e                   	pop    %esi
    162d:	5f                   	pop    %edi
    162e:	5d                   	pop    %ebp
    162f:	c3                   	ret    
    1630:	c7 04 24 09 00 00 00 	movl   $0x9,(%esp)
    1637:	e8 94 71 01 00       	call   187d0 <malloc>
    163c:	85 c0                	test   %eax,%eax
    163e:	74 e8                	je     1628 <onClick_btn_8+0x48>
    1640:	89 1c 24             	mov    %ebx,(%esp)
    1643:	e8 38 cd 00 00       	call   e380 <str_dup>
    1648:	89 04 24             	mov    %eax,(%esp)
    164b:	89 c7                	mov    %eax,%edi
    164d:	e8 8e ad 00 00       	call   c3e0 <str_size>
    1652:	89 1c 24             	mov    %ebx,(%esp)
    1655:	89 45 e4             	mov    %eax,-0x1c(%ebp)
    1658:	e8 83 ad 00 00       	call   c3e0 <str_size>
    165d:	8b 55 e4             	mov    -0x1c(%ebp),%edx
    1660:	c7 44 24 08 ee 52 02 	movl   $0x252ee,0x8(%esp)
    1667:	00 
    1668:	89 3c 24             	mov    %edi,(%esp)
    166b:	8d 44 02 01          	lea    0x1(%edx,%eax,1),%eax
    166f:	89 44 24 04          	mov    %eax,0x4(%esp)
    1673:	e8 38 bd 00 00       	call   d3b0 <str_append>
    1678:	89 3c 24             	mov    %edi,(%esp)
    167b:	e8 00 cd 00 00       	call   e380 <str_dup>
    1680:	89 45 0c             	mov    %eax,0xc(%ebp)
    1683:	eb 0a                	jmp    168f <onClick_btn_8+0xaf>
    1685:	8d 76 00             	lea    0x0(%esi),%esi
    1688:	c7 45 0c ee 52 02 00 	movl   $0x252ee,0xc(%ebp)
    168f:	89 75 08             	mov    %esi,0x8(%ebp)
    1692:	8b 86 34 01 00 00    	mov    0x134(%esi),%eax
    1698:	83 c4 2c             	add    $0x2c,%esp
    169b:	5b                   	pop    %ebx
    169c:	5e                   	pop    %esi
    169d:	5f                   	pop    %edi
    169e:	5d                   	pop    %ebp
    169f:	ff e0                	jmp    *%eax
    16a1:	eb 0d                	jmp    16b0 <onClick_btn_7>
    16a3:	90                   	nop
    16a4:	90                   	nop
    16a5:	90                   	nop
    16a6:	90                   	nop
    16a7:	90                   	nop
    16a8:	90                   	nop
    16a9:	90                   	nop
    16aa:	90                   	nop
    16ab:	90                   	nop
    16ac:	90                   	nop
    16ad:	90                   	nop
    16ae:	90                   	nop
    16af:	90                   	nop

000016b0 <onClick_btn_7>:
    16b0:	55                   	push   %ebp
    16b1:	89 e5                	mov    %esp,%ebp
    16b3:	57                   	push   %edi
    16b4:	56                   	push   %esi
    16b5:	53                   	push   %ebx
    16b6:	83 ec 2c             	sub    $0x2c,%esp
    16b9:	8b 75 08             	mov    0x8(%ebp),%esi
    16bc:	8b 86 20 01 00 00    	mov    0x120(%esi),%eax
    16c2:	89 04 24             	mov    %eax,(%esp)
    16c5:	e8 b6 cc 00 00       	call   e380 <str_dup>
    16ca:	c7 44 24 04 e2 52 02 	movl   $0x252e2,0x4(%esp)
    16d1:	00 
    16d2:	89 04 24             	mov    %eax,(%esp)
    16d5:	89 c3                	mov    %eax,%ebx
    16d7:	e8 34 b2 00 00       	call   c910 <str_cmp>
    16dc:	85 c0                	test   %eax,%eax
    16de:	74 78                	je     1758 <onClick_btn_7+0xa8>
    16e0:	85 db                	test   %ebx,%ebx
    16e2:	74 14                	je     16f8 <onClick_btn_7+0x48>
    16e4:	c7 44 24 04 e2 52 02 	movl   $0x252e2,0x4(%esp)
    16eb:	00 
    16ec:	89 1c 24             	mov    %ebx,(%esp)
    16ef:	e8 1c b2 00 00       	call   c910 <str_cmp>
    16f4:	85 c0                	test   %eax,%eax
    16f6:	75 08                	jne    1700 <onClick_btn_7+0x50>
    16f8:	83 c4 2c             	add    $0x2c,%esp
    16fb:	5b                   	pop    %ebx
    16fc:	5e                   	pop    %esi
    16fd:	5f                   	pop    %edi
    16fe:	5d                   	pop    %ebp
    16ff:	c3                   	ret    
    1700:	c7 04 24 09 00 00 00 	movl   $0x9,(%esp)
    1707:	e8 c4 70 01 00       	call   187d0 <malloc>
    170c:	85 c0                	test   %eax,%eax
    170e:	74 e8                	je     16f8 <onClick_btn_7+0x48>
    1710:	89 1c 24             	mov    %ebx,(%esp)
    1713:	e8 68 cc 00 00       	call   e380 <str_dup>
    1718:	89 04 24             	mov    %eax,(%esp)
    171b:	89 c7                	mov    %eax,%edi
    171d:	e8 be ac 00 00       	call   c3e0 <str_size>
    1722:	89 1c 24             	mov    %ebx,(%esp)
    1725:	89 45 e4             	mov    %eax,-0x1c(%ebp)
    1728:	e8 b3 ac 00 00       	call   c3e0 <str_size>
    172d:	8b 55 e4             	mov    -0x1c(%ebp),%edx
    1730:	c7 44 24 08 f0 52 02 	movl   $0x252f0,0x8(%esp)
    1737:	00 
    1738:	89 3c 24             	mov    %edi,(%esp)
    173b:	8d 44 02 01          	lea    0x1(%edx,%eax,1),%eax
    173f:	89 44 24 04          	mov    %eax,0x4(%esp)
    1743:	e8 68 bc 00 00       	call   d3b0 <str_append>
    1748:	89 3c 24             	mov    %edi,(%esp)
    174b:	e8 30 cc 00 00       	call   e380 <str_dup>
    1750:	89 45 0c             	mov    %eax,0xc(%ebp)
    1753:	eb 0a                	jmp    175f <onClick_btn_7+0xaf>
    1755:	8d 76 00             	lea    0x0(%esi),%esi
    1758:	c7 45 0c f0 52 02 00 	movl   $0x252f0,0xc(%ebp)
    175f:	89 75 08             	mov    %esi,0x8(%ebp)
    1762:	8b 86 34 01 00 00    	mov    0x134(%esi),%eax
    1768:	83 c4 2c             	add    $0x2c,%esp
    176b:	5b                   	pop    %ebx
    176c:	5e                   	pop    %esi
    176d:	5f                   	pop    %edi
    176e:	5d                   	pop    %ebp
    176f:	ff e0                	jmp    *%eax
    1771:	eb 0d                	jmp    1780 <onClick_btn_6>
    1773:	90                   	nop
    1774:	90                   	nop
    1775:	90                   	nop
    1776:	90                   	nop
    1777:	90                   	nop
    1778:	90                   	nop
    1779:	90                   	nop
    177a:	90                   	nop
    177b:	90                   	nop
    177c:	90                   	nop
    177d:	90                   	nop
    177e:	90                   	nop
    177f:	90                   	nop

00001780 <onClick_btn_6>:
    1780:	55                   	push   %ebp
    1781:	89 e5                	mov    %esp,%ebp
    1783:	57                   	push   %edi
    1784:	56                   	push   %esi
    1785:	53                   	push   %ebx
    1786:	83 ec 2c             	sub    $0x2c,%esp
    1789:	8b 75 08             	mov    0x8(%ebp),%esi
    178c:	8b 86 20 01 00 00    	mov    0x120(%esi),%eax
    1792:	89 04 24             	mov    %eax,(%esp)
    1795:	e8 e6 cb 00 00       	call   e380 <str_dup>
    179a:	c7 44 24 04 e2 52 02 	movl   $0x252e2,0x4(%esp)
    17a1:	00 
    17a2:	89 04 24             	mov    %eax,(%esp)
    17a5:	89 c3                	mov    %eax,%ebx
    17a7:	e8 64 b1 00 00       	call   c910 <str_cmp>
    17ac:	85 c0                	test   %eax,%eax
    17ae:	74 78                	je     1828 <onClick_btn_6+0xa8>
    17b0:	85 db                	test   %ebx,%ebx
    17b2:	74 14                	je     17c8 <onClick_btn_6+0x48>
    17b4:	c7 44 24 04 e2 52 02 	movl   $0x252e2,0x4(%esp)
    17bb:	00 
    17bc:	89 1c 24             	mov    %ebx,(%esp)
    17bf:	e8 4c b1 00 00       	call   c910 <str_cmp>
    17c4:	85 c0                	test   %eax,%eax
    17c6:	75 08                	jne    17d0 <onClick_btn_6+0x50>
    17c8:	83 c4 2c             	add    $0x2c,%esp
    17cb:	5b                   	pop    %ebx
    17cc:	5e                   	pop    %esi
    17cd:	5f                   	pop    %edi
    17ce:	5d                   	pop    %ebp
    17cf:	c3                   	ret    
    17d0:	c7 04 24 09 00 00 00 	movl   $0x9,(%esp)
    17d7:	e8 f4 6f 01 00       	call   187d0 <malloc>
    17dc:	85 c0                	test   %eax,%eax
    17de:	74 e8                	je     17c8 <onClick_btn_6+0x48>
    17e0:	89 1c 24             	mov    %ebx,(%esp)
    17e3:	e8 98 cb 00 00       	call   e380 <str_dup>
    17e8:	89 04 24             	mov    %eax,(%esp)
    17eb:	89 c7                	mov    %eax,%edi
    17ed:	e8 ee ab 00 00       	call   c3e0 <str_size>
    17f2:	89 1c 24             	mov    %ebx,(%esp)
    17f5:	89 45 e4             	mov    %eax,-0x1c(%ebp)
    17f8:	e8 e3 ab 00 00       	call   c3e0 <str_size>
    17fd:	8b 55 e4             	mov    -0x1c(%ebp),%edx
    1800:	c7 44 24 08 f2 52 02 	movl   $0x252f2,0x8(%esp)
    1807:	00 
    1808:	89 3c 24             	mov    %edi,(%esp)
    180b:	8d 44 02 01          	lea    0x1(%edx,%eax,1),%eax
    180f:	89 44 24 04          	mov    %eax,0x4(%esp)
    1813:	e8 98 bb 00 00       	call   d3b0 <str_append>
    1818:	89 3c 24             	mov    %edi,(%esp)
    181b:	e8 60 cb 00 00       	call   e380 <str_dup>
    1820:	89 45 0c             	mov    %eax,0xc(%ebp)
    1823:	eb 0a                	jmp    182f <onClick_btn_6+0xaf>
    1825:	8d 76 00             	lea    0x0(%esi),%esi
    1828:	c7 45 0c f2 52 02 00 	movl   $0x252f2,0xc(%ebp)
    182f:	89 75 08             	mov    %esi,0x8(%ebp)
    1832:	8b 86 34 01 00 00    	mov    0x134(%esi),%eax
    1838:	83 c4 2c             	add    $0x2c,%esp
    183b:	5b                   	pop    %ebx
    183c:	5e                   	pop    %esi
    183d:	5f                   	pop    %edi
    183e:	5d                   	pop    %ebp
    183f:	ff e0                	jmp    *%eax
    1841:	eb 0d                	jmp    1850 <onClick_btn_5>
    1843:	90                   	nop
    1844:	90                   	nop
    1845:	90                   	nop
    1846:	90                   	nop
    1847:	90                   	nop
    1848:	90                   	nop
    1849:	90                   	nop
    184a:	90                   	nop
    184b:	90                   	nop
    184c:	90                   	nop
    184d:	90                   	nop
    184e:	90                   	nop
    184f:	90                   	nop

00001850 <onClick_btn_5>:
    1850:	55                   	push   %ebp
    1851:	89 e5                	mov    %esp,%ebp
    1853:	57                   	push   %edi
    1854:	56                   	push   %esi
    1855:	53                   	push   %ebx
    1856:	83 ec 2c             	sub    $0x2c,%esp
    1859:	8b 75 08             	mov    0x8(%ebp),%esi
    185c:	8b 86 20 01 00 00    	mov    0x120(%esi),%eax
    1862:	89 04 24             	mov    %eax,(%esp)
    1865:	e8 16 cb 00 00       	call   e380 <str_dup>
    186a:	c7 44 24 04 e2 52 02 	movl   $0x252e2,0x4(%esp)
    1871:	00 
    1872:	89 04 24             	mov    %eax,(%esp)
    1875:	89 c3                	mov    %eax,%ebx
    1877:	e8 94 b0 00 00       	call   c910 <str_cmp>
    187c:	85 c0                	test   %eax,%eax
    187e:	74 78                	je     18f8 <onClick_btn_5+0xa8>
    1880:	85 db                	test   %ebx,%ebx
    1882:	74 14                	je     1898 <onClick_btn_5+0x48>
    1884:	c7 44 24 04 e2 52 02 	movl   $0x252e2,0x4(%esp)
    188b:	00 
    188c:	89 1c 24             	mov    %ebx,(%esp)
    188f:	e8 7c b0 00 00       	call   c910 <str_cmp>
    1894:	85 c0                	test   %eax,%eax
    1896:	75 08                	jne    18a0 <onClick_btn_5+0x50>
    1898:	83 c4 2c             	add    $0x2c,%esp
    189b:	5b                   	pop    %ebx
    189c:	5e                   	pop    %esi
    189d:	5f                   	pop    %edi
    189e:	5d                   	pop    %ebp
    189f:	c3                   	ret    
    18a0:	c7 04 24 09 00 00 00 	movl   $0x9,(%esp)
    18a7:	e8 24 6f 01 00       	call   187d0 <malloc>
    18ac:	85 c0                	test   %eax,%eax
    18ae:	74 e8                	je     1898 <onClick_btn_5+0x48>
    18b0:	89 1c 24             	mov    %ebx,(%esp)
    18b3:	e8 c8 ca 00 00       	call   e380 <str_dup>
    18b8:	89 04 24             	mov    %eax,(%esp)
    18bb:	89 c7                	mov    %eax,%edi
    18bd:	e8 1e ab 00 00       	call   c3e0 <str_size>
    18c2:	89 1c 24             	mov    %ebx,(%esp)
    18c5:	89 45 e4             	mov    %eax,-0x1c(%ebp)
    18c8:	e8 13 ab 00 00       	call   c3e0 <str_size>
    18cd:	8b 55 e4             	mov    -0x1c(%ebp),%edx
    18d0:	c7 44 24 08 f4 52 02 	movl   $0x252f4,0x8(%esp)
    18d7:	00 
    18d8:	89 3c 24             	mov    %edi,(%esp)
    18db:	8d 44 02 01          	lea    0x1(%edx,%eax,1),%eax
    18df:	89 44 24 04          	mov    %eax,0x4(%esp)
    18e3:	e8 c8 ba 00 00       	call   d3b0 <str_append>
    18e8:	89 3c 24             	mov    %edi,(%esp)
    18eb:	e8 90 ca 00 00       	call   e380 <str_dup>
    18f0:	89 45 0c             	mov    %eax,0xc(%ebp)
    18f3:	eb 0a                	jmp    18ff <onClick_btn_5+0xaf>
    18f5:	8d 76 00             	lea    0x0(%esi),%esi
    18f8:	c7 45 0c f4 52 02 00 	movl   $0x252f4,0xc(%ebp)
    18ff:	89 75 08             	mov    %esi,0x8(%ebp)
    1902:	8b 86 34 01 00 00    	mov    0x134(%esi),%eax
    1908:	83 c4 2c             	add    $0x2c,%esp
    190b:	5b                   	pop    %ebx
    190c:	5e                   	pop    %esi
    190d:	5f                   	pop    %edi
    190e:	5d                   	pop    %ebp
    190f:	ff e0                	jmp    *%eax
    1911:	eb 0d                	jmp    1920 <onClick_btn_4>
    1913:	90                   	nop
    1914:	90                   	nop
    1915:	90                   	nop
    1916:	90                   	nop
    1917:	90                   	nop
    1918:	90                   	nop
    1919:	90                   	nop
    191a:	90                   	nop
    191b:	90                   	nop
    191c:	90                   	nop
    191d:	90                   	nop
    191e:	90                   	nop
    191f:	90                   	nop

00001920 <onClick_btn_4>:
    1920:	55                   	push   %ebp
    1921:	89 e5                	mov    %esp,%ebp
    1923:	57                   	push   %edi
    1924:	56                   	push   %esi
    1925:	53                   	push   %ebx
    1926:	83 ec 2c             	sub    $0x2c,%esp
    1929:	8b 75 08             	mov    0x8(%ebp),%esi
    192c:	8b 86 20 01 00 00    	mov    0x120(%esi),%eax
    1932:	89 04 24             	mov    %eax,(%esp)
    1935:	e8 46 ca 00 00       	call   e380 <str_dup>
    193a:	c7 44 24 04 e2 52 02 	movl   $0x252e2,0x4(%esp)
    1941:	00 
    1942:	89 04 24             	mov    %eax,(%esp)
    1945:	89 c3                	mov    %eax,%ebx
    1947:	e8 c4 af 00 00       	call   c910 <str_cmp>
    194c:	85 c0                	test   %eax,%eax
    194e:	74 78                	je     19c8 <onClick_btn_4+0xa8>
    1950:	85 db                	test   %ebx,%ebx
    1952:	74 14                	je     1968 <onClick_btn_4+0x48>
    1954:	c7 44 24 04 e2 52 02 	movl   $0x252e2,0x4(%esp)
    195b:	00 
    195c:	89 1c 24             	mov    %ebx,(%esp)
    195f:	e8 ac af 00 00       	call   c910 <str_cmp>
    1964:	85 c0                	test   %eax,%eax
    1966:	75 08                	jne    1970 <onClick_btn_4+0x50>
    1968:	83 c4 2c             	add    $0x2c,%esp
    196b:	5b                   	pop    %ebx
    196c:	5e                   	pop    %esi
    196d:	5f                   	pop    %edi
    196e:	5d                   	pop    %ebp
    196f:	c3                   	ret    
    1970:	c7 04 24 09 00 00 00 	movl   $0x9,(%esp)
    1977:	e8 54 6e 01 00       	call   187d0 <malloc>
    197c:	85 c0                	test   %eax,%eax
    197e:	74 e8                	je     1968 <onClick_btn_4+0x48>
    1980:	89 1c 24             	mov    %ebx,(%esp)
    1983:	e8 f8 c9 00 00       	call   e380 <str_dup>
    1988:	89 04 24             	mov    %eax,(%esp)
    198b:	89 c7                	mov    %eax,%edi
    198d:	e8 4e aa 00 00       	call   c3e0 <str_size>
    1992:	89 1c 24             	mov    %ebx,(%esp)
    1995:	89 45 e4             	mov    %eax,-0x1c(%ebp)
    1998:	e8 43 aa 00 00       	call   c3e0 <str_size>
    199d:	8b 55 e4             	mov    -0x1c(%ebp),%edx
    19a0:	c7 44 24 08 f6 52 02 	movl   $0x252f6,0x8(%esp)
    19a7:	00 
    19a8:	89 3c 24             	mov    %edi,(%esp)
    19ab:	8d 44 02 01          	lea    0x1(%edx,%eax,1),%eax
    19af:	89 44 24 04          	mov    %eax,0x4(%esp)
    19b3:	e8 f8 b9 00 00       	call   d3b0 <str_append>
    19b8:	89 3c 24             	mov    %edi,(%esp)
    19bb:	e8 c0 c9 00 00       	call   e380 <str_dup>
    19c0:	89 45 0c             	mov    %eax,0xc(%ebp)
    19c3:	eb 0a                	jmp    19cf <onClick_btn_4+0xaf>
    19c5:	8d 76 00             	lea    0x0(%esi),%esi
    19c8:	c7 45 0c f6 52 02 00 	movl   $0x252f6,0xc(%ebp)
    19cf:	89 75 08             	mov    %esi,0x8(%ebp)
    19d2:	8b 86 34 01 00 00    	mov    0x134(%esi),%eax
    19d8:	83 c4 2c             	add    $0x2c,%esp
    19db:	5b                   	pop    %ebx
    19dc:	5e                   	pop    %esi
    19dd:	5f                   	pop    %edi
    19de:	5d                   	pop    %ebp
    19df:	ff e0                	jmp    *%eax
    19e1:	eb 0d                	jmp    19f0 <onClick_btn_3>
    19e3:	90                   	nop
    19e4:	90                   	nop
    19e5:	90                   	nop
    19e6:	90                   	nop
    19e7:	90                   	nop
    19e8:	90                   	nop
    19e9:	90                   	nop
    19ea:	90                   	nop
    19eb:	90                   	nop
    19ec:	90                   	nop
    19ed:	90                   	nop
    19ee:	90                   	nop
    19ef:	90                   	nop

000019f0 <onClick_btn_3>:
    19f0:	55                   	push   %ebp
    19f1:	89 e5                	mov    %esp,%ebp
    19f3:	57                   	push   %edi
    19f4:	56                   	push   %esi
    19f5:	53                   	push   %ebx
    19f6:	83 ec 2c             	sub    $0x2c,%esp
    19f9:	8b 75 08             	mov    0x8(%ebp),%esi
    19fc:	8b 86 20 01 00 00    	mov    0x120(%esi),%eax
    1a02:	89 04 24             	mov    %eax,(%esp)
    1a05:	e8 76 c9 00 00       	call   e380 <str_dup>
    1a0a:	c7 44 24 04 e2 52 02 	movl   $0x252e2,0x4(%esp)
    1a11:	00 
    1a12:	89 04 24             	mov    %eax,(%esp)
    1a15:	89 c3                	mov    %eax,%ebx
    1a17:	e8 f4 ae 00 00       	call   c910 <str_cmp>
    1a1c:	85 c0                	test   %eax,%eax
    1a1e:	74 78                	je     1a98 <onClick_btn_3+0xa8>
    1a20:	85 db                	test   %ebx,%ebx
    1a22:	74 14                	je     1a38 <onClick_btn_3+0x48>
    1a24:	c7 44 24 04 e2 52 02 	movl   $0x252e2,0x4(%esp)
    1a2b:	00 
    1a2c:	89 1c 24             	mov    %ebx,(%esp)
    1a2f:	e8 dc ae 00 00       	call   c910 <str_cmp>
    1a34:	85 c0                	test   %eax,%eax
    1a36:	75 08                	jne    1a40 <onClick_btn_3+0x50>
    1a38:	83 c4 2c             	add    $0x2c,%esp
    1a3b:	5b                   	pop    %ebx
    1a3c:	5e                   	pop    %esi
    1a3d:	5f                   	pop    %edi
    1a3e:	5d                   	pop    %ebp
    1a3f:	c3                   	ret    
    1a40:	c7 04 24 09 00 00 00 	movl   $0x9,(%esp)
    1a47:	e8 84 6d 01 00       	call   187d0 <malloc>
    1a4c:	85 c0                	test   %eax,%eax
    1a4e:	74 e8                	je     1a38 <onClick_btn_3+0x48>
    1a50:	89 1c 24             	mov    %ebx,(%esp)
    1a53:	e8 28 c9 00 00       	call   e380 <str_dup>
    1a58:	89 04 24             	mov    %eax,(%esp)
    1a5b:	89 c7                	mov    %eax,%edi
    1a5d:	e8 7e a9 00 00       	call   c3e0 <str_size>
    1a62:	89 1c 24             	mov    %ebx,(%esp)
    1a65:	89 45 e4             	mov    %eax,-0x1c(%ebp)
    1a68:	e8 73 a9 00 00       	call   c3e0 <str_size>
    1a6d:	8b 55 e4             	mov    -0x1c(%ebp),%edx
    1a70:	c7 44 24 08 f8 52 02 	movl   $0x252f8,0x8(%esp)
    1a77:	00 
    1a78:	89 3c 24             	mov    %edi,(%esp)
    1a7b:	8d 44 02 01          	lea    0x1(%edx,%eax,1),%eax
    1a7f:	89 44 24 04          	mov    %eax,0x4(%esp)
    1a83:	e8 28 b9 00 00       	call   d3b0 <str_append>
    1a88:	89 3c 24             	mov    %edi,(%esp)
    1a8b:	e8 f0 c8 00 00       	call   e380 <str_dup>
    1a90:	89 45 0c             	mov    %eax,0xc(%ebp)
    1a93:	eb 0a                	jmp    1a9f <onClick_btn_3+0xaf>
    1a95:	8d 76 00             	lea    0x0(%esi),%esi
    1a98:	c7 45 0c f8 52 02 00 	movl   $0x252f8,0xc(%ebp)
    1a9f:	89 75 08             	mov    %esi,0x8(%ebp)
    1aa2:	8b 86 34 01 00 00    	mov    0x134(%esi),%eax
    1aa8:	83 c4 2c             	add    $0x2c,%esp
    1aab:	5b                   	pop    %ebx
    1aac:	5e                   	pop    %esi
    1aad:	5f                   	pop    %edi
    1aae:	5d                   	pop    %ebp
    1aaf:	ff e0                	jmp    *%eax
    1ab1:	eb 0d                	jmp    1ac0 <onClick_btn_2>
    1ab3:	90                   	nop
    1ab4:	90                   	nop
    1ab5:	90                   	nop
    1ab6:	90                   	nop
    1ab7:	90                   	nop
    1ab8:	90                   	nop
    1ab9:	90                   	nop
    1aba:	90                   	nop
    1abb:	90                   	nop
    1abc:	90                   	nop
    1abd:	90                   	nop
    1abe:	90                   	nop
    1abf:	90                   	nop

00001ac0 <onClick_btn_2>:
    1ac0:	55                   	push   %ebp
    1ac1:	89 e5                	mov    %esp,%ebp
    1ac3:	57                   	push   %edi
    1ac4:	56                   	push   %esi
    1ac5:	53                   	push   %ebx
    1ac6:	83 ec 2c             	sub    $0x2c,%esp
    1ac9:	8b 75 08             	mov    0x8(%ebp),%esi
    1acc:	8b 86 20 01 00 00    	mov    0x120(%esi),%eax
    1ad2:	89 04 24             	mov    %eax,(%esp)
    1ad5:	e8 a6 c8 00 00       	call   e380 <str_dup>
    1ada:	c7 44 24 04 e2 52 02 	movl   $0x252e2,0x4(%esp)
    1ae1:	00 
    1ae2:	89 04 24             	mov    %eax,(%esp)
    1ae5:	89 c3                	mov    %eax,%ebx
    1ae7:	e8 24 ae 00 00       	call   c910 <str_cmp>
    1aec:	85 c0                	test   %eax,%eax
    1aee:	74 78                	je     1b68 <onClick_btn_2+0xa8>
    1af0:	85 db                	test   %ebx,%ebx
    1af2:	74 14                	je     1b08 <onClick_btn_2+0x48>
    1af4:	c7 44 24 04 e2 52 02 	movl   $0x252e2,0x4(%esp)
    1afb:	00 
    1afc:	89 1c 24             	mov    %ebx,(%esp)
    1aff:	e8 0c ae 00 00       	call   c910 <str_cmp>
    1b04:	85 c0                	test   %eax,%eax
    1b06:	75 08                	jne    1b10 <onClick_btn_2+0x50>
    1b08:	83 c4 2c             	add    $0x2c,%esp
    1b0b:	5b                   	pop    %ebx
    1b0c:	5e                   	pop    %esi
    1b0d:	5f                   	pop    %edi
    1b0e:	5d                   	pop    %ebp
    1b0f:	c3                   	ret    
    1b10:	c7 04 24 09 00 00 00 	movl   $0x9,(%esp)
    1b17:	e8 b4 6c 01 00       	call   187d0 <malloc>
    1b1c:	85 c0                	test   %eax,%eax
    1b1e:	74 e8                	je     1b08 <onClick_btn_2+0x48>
    1b20:	89 1c 24             	mov    %ebx,(%esp)
    1b23:	e8 58 c8 00 00       	call   e380 <str_dup>
    1b28:	89 04 24             	mov    %eax,(%esp)
    1b2b:	89 c7                	mov    %eax,%edi
    1b2d:	e8 ae a8 00 00       	call   c3e0 <str_size>
    1b32:	89 1c 24             	mov    %ebx,(%esp)
    1b35:	89 45 e4             	mov    %eax,-0x1c(%ebp)
    1b38:	e8 a3 a8 00 00       	call   c3e0 <str_size>
    1b3d:	8b 55 e4             	mov    -0x1c(%ebp),%edx
    1b40:	c7 44 24 08 4b 62 02 	movl   $0x2624b,0x8(%esp)
    1b47:	00 
    1b48:	89 3c 24             	mov    %edi,(%esp)
    1b4b:	8d 44 02 01          	lea    0x1(%edx,%eax,1),%eax
    1b4f:	89 44 24 04          	mov    %eax,0x4(%esp)
    1b53:	e8 58 b8 00 00       	call   d3b0 <str_append>
    1b58:	89 3c 24             	mov    %edi,(%esp)
    1b5b:	e8 20 c8 00 00       	call   e380 <str_dup>
    1b60:	89 45 0c             	mov    %eax,0xc(%ebp)
    1b63:	eb 0a                	jmp    1b6f <onClick_btn_2+0xaf>
    1b65:	8d 76 00             	lea    0x0(%esi),%esi
    1b68:	c7 45 0c 4b 62 02 00 	movl   $0x2624b,0xc(%ebp)
    1b6f:	89 75 08             	mov    %esi,0x8(%ebp)
    1b72:	8b 86 34 01 00 00    	mov    0x134(%esi),%eax
    1b78:	83 c4 2c             	add    $0x2c,%esp
    1b7b:	5b                   	pop    %ebx
    1b7c:	5e                   	pop    %esi
    1b7d:	5f                   	pop    %edi
    1b7e:	5d                   	pop    %ebp
    1b7f:	ff e0                	jmp    *%eax
    1b81:	eb 0d                	jmp    1b90 <onClick_btn_1>
    1b83:	90                   	nop
    1b84:	90                   	nop
    1b85:	90                   	nop
    1b86:	90                   	nop
    1b87:	90                   	nop
    1b88:	90                   	nop
    1b89:	90                   	nop
    1b8a:	90                   	nop
    1b8b:	90                   	nop
    1b8c:	90                   	nop
    1b8d:	90                   	nop
    1b8e:	90                   	nop
    1b8f:	90                   	nop

00001b90 <onClick_btn_1>:
    1b90:	55                   	push   %ebp
    1b91:	89 e5                	mov    %esp,%ebp
    1b93:	57                   	push   %edi
    1b94:	56                   	push   %esi
    1b95:	53                   	push   %ebx
    1b96:	83 ec 2c             	sub    $0x2c,%esp
    1b99:	8b 75 08             	mov    0x8(%ebp),%esi
    1b9c:	8b 86 20 01 00 00    	mov    0x120(%esi),%eax
    1ba2:	89 04 24             	mov    %eax,(%esp)
    1ba5:	e8 d6 c7 00 00       	call   e380 <str_dup>
    1baa:	c7 44 24 04 e2 52 02 	movl   $0x252e2,0x4(%esp)
    1bb1:	00 
    1bb2:	89 04 24             	mov    %eax,(%esp)
    1bb5:	89 c3                	mov    %eax,%ebx
    1bb7:	e8 54 ad 00 00       	call   c910 <str_cmp>
    1bbc:	85 c0                	test   %eax,%eax
    1bbe:	0f 84 ac 00 00 00    	je     1c70 <onClick_btn_1+0xe0>
    1bc4:	85 db                	test   %ebx,%ebx
    1bc6:	74 31                	je     1bf9 <onClick_btn_1+0x69>
    1bc8:	c7 44 24 04 e2 52 02 	movl   $0x252e2,0x4(%esp)
    1bcf:	00 
    1bd0:	89 1c 24             	mov    %ebx,(%esp)
    1bd3:	e8 38 ad 00 00       	call   c910 <str_cmp>
    1bd8:	85 c0                	test   %eax,%eax
    1bda:	74 09                	je     1be5 <onClick_btn_1+0x55>
    1bdc:	83 3d f8 36 03 00 01 	cmpl   $0x1,0x336f8
    1be3:	74 7b                	je     1c60 <onClick_btn_1+0xd0>
    1be5:	c7 44 24 04 e2 52 02 	movl   $0x252e2,0x4(%esp)
    1bec:	00 
    1bed:	89 1c 24             	mov    %ebx,(%esp)
    1bf0:	e8 1b ad 00 00       	call   c910 <str_cmp>
    1bf5:	85 c0                	test   %eax,%eax
    1bf7:	75 0f                	jne    1c08 <onClick_btn_1+0x78>
    1bf9:	83 c4 2c             	add    $0x2c,%esp
    1bfc:	5b                   	pop    %ebx
    1bfd:	5e                   	pop    %esi
    1bfe:	5f                   	pop    %edi
    1bff:	5d                   	pop    %ebp
    1c00:	c3                   	ret    
    1c01:	8d b4 26 00 00 00 00 	lea    0x0(%esi,%eiz,1),%esi
    1c08:	c7 04 24 09 00 00 00 	movl   $0x9,(%esp)
    1c0f:	e8 bc 6b 01 00       	call   187d0 <malloc>
    1c14:	85 c0                	test   %eax,%eax
    1c16:	74 e1                	je     1bf9 <onClick_btn_1+0x69>
    1c18:	89 1c 24             	mov    %ebx,(%esp)
    1c1b:	e8 60 c7 00 00       	call   e380 <str_dup>
    1c20:	89 04 24             	mov    %eax,(%esp)
    1c23:	89 c7                	mov    %eax,%edi
    1c25:	e8 b6 a7 00 00       	call   c3e0 <str_size>
    1c2a:	89 1c 24             	mov    %ebx,(%esp)
    1c2d:	89 45 e4             	mov    %eax,-0x1c(%ebp)
    1c30:	e8 ab a7 00 00       	call   c3e0 <str_size>
    1c35:	8b 55 e4             	mov    -0x1c(%ebp),%edx
    1c38:	c7 44 24 08 e2 56 02 	movl   $0x256e2,0x8(%esp)
    1c3f:	00 
    1c40:	89 3c 24             	mov    %edi,(%esp)
    1c43:	8d 44 02 01          	lea    0x1(%edx,%eax,1),%eax
    1c47:	89 44 24 04          	mov    %eax,0x4(%esp)
    1c4b:	e8 60 b7 00 00       	call   d3b0 <str_append>
    1c50:	89 3c 24             	mov    %edi,(%esp)
    1c53:	e8 28 c7 00 00       	call   e380 <str_dup>
    1c58:	89 45 0c             	mov    %eax,0xc(%ebp)
    1c5b:	eb 1a                	jmp    1c77 <onClick_btn_1+0xe7>
    1c5d:	8d 76 00             	lea    0x0(%esi),%esi
    1c60:	c7 05 f8 36 03 00 00 	movl   $0x0,0x336f8
    1c67:	00 00 00 
    1c6a:	8d b6 00 00 00 00    	lea    0x0(%esi),%esi
    1c70:	c7 45 0c e2 56 02 00 	movl   $0x256e2,0xc(%ebp)
    1c77:	89 75 08             	mov    %esi,0x8(%ebp)
    1c7a:	8b 86 34 01 00 00    	mov    0x134(%esi),%eax
    1c80:	83 c4 2c             	add    $0x2c,%esp
    1c83:	5b                   	pop    %ebx
    1c84:	5e                   	pop    %esi
    1c85:	5f                   	pop    %edi
    1c86:	5d                   	pop    %ebp
    1c87:	ff e0                	jmp    *%eax
    1c89:	8d b4 26 00 00 00 00 	lea    0x0(%esi,%eiz,1),%esi

00001c90 <onClick_btn5>:
    1c90:	55                   	push   %ebp
    1c91:	89 e5                	mov    %esp,%ebp
    1c93:	57                   	push   %edi
    1c94:	56                   	push   %esi
    1c95:	53                   	push   %ebx
    1c96:	81 ec fc 00 00 00    	sub    $0xfc,%esp
    1c9c:	8b 45 08             	mov    0x8(%ebp),%eax
    1c9f:	89 85 10 ff ff ff    	mov    %eax,-0xf0(%ebp)
    1ca5:	8b 80 20 01 00 00    	mov    0x120(%eax),%eax
    1cab:	89 04 24             	mov    %eax,(%esp)
    1cae:	e8 cd c6 00 00       	call   e380 <str_dup>
    1cb3:	c7 44 24 04 e2 52 02 	movl   $0x252e2,0x4(%esp)
    1cba:	00 
    1cbb:	89 04 24             	mov    %eax,(%esp)
    1cbe:	89 c6                	mov    %eax,%esi
    1cc0:	e8 4b ac 00 00       	call   c910 <str_cmp>
    1cc5:	85 c0                	test   %eax,%eax
    1cc7:	0f 84 a3 03 00 00    	je     2070 <onClick_btn5+0x3e0>
    1ccd:	85 f6                	test   %esi,%esi
    1ccf:	0f 84 ce 01 00 00    	je     1ea3 <onClick_btn5+0x213>
    1cd5:	c7 44 24 04 e2 52 02 	movl   $0x252e2,0x4(%esp)
    1cdc:	00 
    1cdd:	89 34 24             	mov    %esi,(%esp)
    1ce0:	e8 2b ac 00 00       	call   c910 <str_cmp>
    1ce5:	85 c0                	test   %eax,%eax
    1ce7:	0f 84 b6 01 00 00    	je     1ea3 <onClick_btn5+0x213>
    1ced:	a1 f8 36 03 00       	mov    0x336f8,%eax
    1cf2:	85 c0                	test   %eax,%eax
    1cf4:	0f 85 a9 01 00 00    	jne    1ea3 <onClick_btn5+0x213>
    1cfa:	8a 1e                	mov    (%esi),%bl
    1cfc:	31 c9                	xor    %ecx,%ecx
    1cfe:	8b 15 e0 7d 02 00    	mov    0x27de0,%edx
    1d04:	84 db                	test   %bl,%bl
    1d06:	0f 84 c3 01 00 00    	je     1ecf <onClick_btn5+0x23f>
    1d0c:	31 c9                	xor    %ecx,%ecx
    1d0e:	88 d8                	mov    %bl,%al
    1d10:	46                   	inc    %esi
    1d11:	89 cb                	mov    %ecx,%ebx
    1d13:	c7 85 14 ff ff ff 00 	movl   $0x0,-0xec(%ebp)
    1d1a:	00 00 00 
    1d1d:	31 ff                	xor    %edi,%edi
    1d1f:	0f be c8             	movsbl %al,%ecx
    1d22:	eb 3e                	jmp    1d62 <onClick_btn5+0xd2>
    1d24:	8d 74 26 00          	lea    0x0(%esi,%eiz,1),%esi
    1d28:	85 ff                	test   %edi,%edi
    1d2a:	0f 84 80 01 00 00    	je     1eb0 <onClick_btn5+0x220>
    1d30:	85 db                	test   %ebx,%ebx
    1d32:	0f 8e 78 01 00 00    	jle    1eb0 <onClick_btn5+0x220>
    1d38:	8d 43 ff             	lea    -0x1(%ebx),%eax
    1d3b:	8b bc 85 20 ff ff ff 	mov    -0xe0(%ebp,%eax,4),%edi
    1d42:	8d 3c bf             	lea    (%edi,%edi,4),%edi
    1d45:	8d 4c 79 d0          	lea    -0x30(%ecx,%edi,2),%ecx
    1d49:	bf 01 00 00 00       	mov    $0x1,%edi
    1d4e:	89 8c 85 20 ff ff ff 	mov    %ecx,-0xe0(%ebp,%eax,4)
    1d55:	46                   	inc    %esi
    1d56:	0f be 4e ff          	movsbl -0x1(%esi),%ecx
    1d5a:	84 c9                	test   %cl,%cl
    1d5c:	0f 84 6b 01 00 00    	je     1ecd <onClick_btn5+0x23d>
    1d62:	8d 41 d0             	lea    -0x30(%ecx),%eax
    1d65:	3c 09                	cmp    $0x9,%al
    1d67:	76 bf                	jbe    1d28 <onClick_btn5+0x98>
    1d69:	80 f9 28             	cmp    $0x28,%cl
    1d6c:	0f 84 f6 03 00 00    	je     2168 <onClick_btn5+0x4d8>
    1d72:	80 f9 29             	cmp    $0x29,%cl
    1d75:	0f 84 15 04 00 00    	je     2190 <onClick_btn5+0x500>
    1d7b:	83 fa ff             	cmp    $0xffffffff,%edx
    1d7e:	0f 84 14 06 00 00    	je     2398 <onClick_btn5+0x708>
    1d84:	8b 04 95 60 35 03 00 	mov    0x33560(,%edx,4),%eax
    1d8b:	83 f8 fb             	cmp    $0xfffffffb,%eax
    1d8e:	0f 84 44 02 00 00    	je     1fd8 <onClick_btn5+0x348>
    1d94:	80 f9 2d             	cmp    $0x2d,%cl
    1d97:	0f 84 53 04 00 00    	je     21f0 <onClick_btn5+0x560>
    1d9d:	80 f9 2b             	cmp    $0x2b,%cl
    1da0:	0f 84 fa 02 00 00    	je     20a0 <onClick_btn5+0x410>
    1da6:	80 f9 2f             	cmp    $0x2f,%cl
    1da9:	0f 85 49 03 00 00    	jne    20f8 <onClick_btn5+0x468>
    1daf:	0f be f8             	movsbl %al,%edi
    1db2:	83 ff ff             	cmp    $0xffffffff,%edi
    1db5:	0f 84 9f 04 00 00    	je     225a <onClick_btn5+0x5ca>
    1dbb:	83 ff fe             	cmp    $0xfffffffe,%edi
    1dbe:	0f 84 96 04 00 00    	je     225a <onClick_btn5+0x5ca>
    1dc4:	83 ff fc             	cmp    $0xfffffffc,%edi
    1dc7:	0f 85 7b 04 00 00    	jne    2248 <onClick_btn5+0x5b8>
    1dcd:	8d 76 00             	lea    0x0(%esi),%esi
    1dd0:	c7 85 14 ff ff ff ff 	movl   $0xffffffff,-0xec(%ebp)
    1dd7:	ff ff ff 
    1dda:	85 d2                	test   %edx,%edx
    1ddc:	0f 88 66 05 00 00    	js     2348 <onClick_btn5+0x6b8>
    1de2:	4a                   	dec    %edx
    1de3:	89 15 e0 7d 02 00    	mov    %edx,0x27de0
    1de9:	89 84 9d 20 ff ff ff 	mov    %eax,-0xe0(%ebp,%ebx,4)
    1df0:	43                   	inc    %ebx
    1df1:	80 f9 2d             	cmp    $0x2d,%cl
    1df4:	0f 84 f0 04 00 00    	je     22ea <onClick_btn5+0x65a>
    1dfa:	80 f9 2b             	cmp    $0x2b,%cl
    1dfd:	0f 84 05 05 00 00    	je     2308 <onClick_btn5+0x678>
    1e03:	80 f9 2f             	cmp    $0x2f,%cl
    1e06:	0f 84 1a 05 00 00    	je     2326 <onClick_btn5+0x696>
    1e0c:	31 ff                	xor    %edi,%edi
    1e0e:	80 f9 2a             	cmp    $0x2a,%cl
    1e11:	0f 85 3e ff ff ff    	jne    1d55 <onClick_btn5+0xc5>
    1e17:	83 fa 63             	cmp    $0x63,%edx
    1e1a:	0f 84 8f 05 00 00    	je     23af <onClick_btn5+0x71f>
    1e20:	42                   	inc    %edx
    1e21:	89 15 e0 7d 02 00    	mov    %edx,0x27de0
    1e27:	c7 04 95 60 35 03 00 	movl   $0xfffffffc,0x33560(,%edx,4)
    1e2e:	fc ff ff ff 
    1e32:	e9 1e ff ff ff       	jmp    1d55 <onClick_btn5+0xc5>
    1e37:	90                   	nop
    1e38:	c7 04 24 64 00 00 00 	movl   $0x64,(%esp)
    1e3f:	e8 8c 69 01 00       	call   187d0 <malloc>
    1e44:	8b 15 e0 7d 02 00    	mov    0x27de0,%edx
    1e4a:	89 c3                	mov    %eax,%ebx
    1e4c:	85 d2                	test   %edx,%edx
    1e4e:	0f 88 64 04 00 00    	js     22b8 <onClick_btn5+0x628>
    1e54:	8b 04 95 60 35 03 00 	mov    0x33560(,%edx,4),%eax
    1e5b:	4a                   	dec    %edx
    1e5c:	89 15 e0 7d 02 00    	mov    %edx,0x27de0
    1e62:	89 44 24 0c          	mov    %eax,0xc(%esp)
    1e66:	c7 44 24 08 fd 62 02 	movl   $0x262fd,0x8(%esp)
    1e6d:	00 
    1e6e:	c7 44 24 04 19 00 00 	movl   $0x19,0x4(%esp)
    1e75:	00 
    1e76:	89 1c 24             	mov    %ebx,(%esp)
    1e79:	e8 b2 19 01 00       	call   13830 <snprintf>
    1e7e:	89 1c 24             	mov    %ebx,(%esp)
    1e81:	e8 fa c4 00 00       	call   e380 <str_dup>
    1e86:	89 44 24 04          	mov    %eax,0x4(%esp)
    1e8a:	8b 85 10 ff ff ff    	mov    -0xf0(%ebp),%eax
    1e90:	89 04 24             	mov    %eax,(%esp)
    1e93:	ff 90 34 01 00 00    	call   *0x134(%eax)
    1e99:	c7 05 f8 36 03 00 01 	movl   $0x1,0x336f8
    1ea0:	00 00 00 
    1ea3:	81 c4 fc 00 00 00    	add    $0xfc,%esp
    1ea9:	5b                   	pop    %ebx
    1eaa:	5e                   	pop    %esi
    1eab:	5f                   	pop    %edi
    1eac:	5d                   	pop    %ebp
    1ead:	c3                   	ret    
    1eae:	66 90                	xchg   %ax,%ax
    1eb0:	46                   	inc    %esi
    1eb1:	83 e9 30             	sub    $0x30,%ecx
    1eb4:	89 8c 9d 20 ff ff ff 	mov    %ecx,-0xe0(%ebp,%ebx,4)
    1ebb:	bf 01 00 00 00       	mov    $0x1,%edi
    1ec0:	0f be 4e ff          	movsbl -0x1(%esi),%ecx
    1ec4:	43                   	inc    %ebx
    1ec5:	84 c9                	test   %cl,%cl
    1ec7:	0f 85 95 fe ff ff    	jne    1d62 <onClick_btn5+0xd2>
    1ecd:	89 d9                	mov    %ebx,%ecx
    1ecf:	83 fa ff             	cmp    $0xffffffff,%edx
    1ed2:	0f 84 95 04 00 00    	je     236d <onClick_btn5+0x6dd>
    1ed8:	8d bd 20 ff ff ff    	lea    -0xe0(%ebp),%edi
    1ede:	89 cb                	mov    %ecx,%ebx
    1ee0:	eb 1d                	jmp    1eff <onClick_btn5+0x26f>
    1ee2:	8d b6 00 00 00 00    	lea    0x0(%esi),%esi
    1ee8:	8b 04 95 60 35 03 00 	mov    0x33560(,%edx,4),%eax
    1eef:	4a                   	dec    %edx
    1ef0:	89 04 9f             	mov    %eax,(%edi,%ebx,4)
    1ef3:	89 15 e0 7d 02 00    	mov    %edx,0x27de0
    1ef9:	43                   	inc    %ebx
    1efa:	83 fa ff             	cmp    $0xffffffff,%edx
    1efd:	74 21                	je     1f20 <onClick_btn5+0x290>
    1eff:	85 d2                	test   %edx,%edx
    1f01:	79 e5                	jns    1ee8 <onClick_btn5+0x258>
    1f03:	c7 04 24 14 53 02 00 	movl   $0x25314,(%esp)
    1f0a:	e8 81 16 01 00       	call   13590 <printf>
    1f0f:	31 c0                	xor    %eax,%eax
    1f11:	8b 15 e0 7d 02 00    	mov    0x27de0,%edx
    1f17:	89 04 9f             	mov    %eax,(%edi,%ebx,4)
    1f1a:	43                   	inc    %ebx
    1f1b:	83 fa ff             	cmp    $0xffffffff,%edx
    1f1e:	75 df                	jne    1eff <onClick_btn5+0x26f>
    1f20:	89 d9                	mov    %ebx,%ecx
    1f22:	83 c8 ff             	or     $0xffffffff,%eax
    1f25:	31 db                	xor    %ebx,%ebx
    1f27:	89 8d 14 ff ff ff    	mov    %ecx,-0xec(%ebp)
    1f2d:	eb 29                	jmp    1f58 <onClick_btn5+0x2c8>
    1f2f:	90                   	nop
    1f30:	83 f8 63             	cmp    $0x63,%eax
    1f33:	0f 84 cf 00 00 00    	je     2008 <onClick_btn5+0x378>
    1f39:	40                   	inc    %eax
    1f3a:	a3 e0 7d 02 00       	mov    %eax,0x27de0
    1f3f:	89 34 85 60 35 03 00 	mov    %esi,0x33560(,%eax,4)
    1f46:	43                   	inc    %ebx
    1f47:	3b 9d 14 ff ff ff    	cmp    -0xec(%ebp),%ebx
    1f4d:	0f 84 e5 fe ff ff    	je     1e38 <onClick_btn5+0x1a8>
    1f53:	a1 e0 7d 02 00       	mov    0x27de0,%eax
    1f58:	8b 34 9f             	mov    (%edi,%ebx,4),%esi
    1f5b:	85 f6                	test   %esi,%esi
    1f5d:	79 d1                	jns    1f30 <onClick_btn5+0x2a0>
    1f5f:	85 c0                	test   %eax,%eax
    1f61:	0f 88 c9 00 00 00    	js     2030 <onClick_btn5+0x3a0>
    1f67:	8b 14 85 60 35 03 00 	mov    0x33560(,%eax,4),%edx
    1f6e:	48                   	dec    %eax
    1f6f:	a3 e0 7d 02 00       	mov    %eax,0x27de0
    1f74:	85 c0                	test   %eax,%eax
    1f76:	0f 88 d4 00 00 00    	js     2050 <onClick_btn5+0x3c0>
    1f7c:	8b 0c 85 60 35 03 00 	mov    0x33560(,%eax,4),%ecx
    1f83:	48                   	dec    %eax
    1f84:	a3 e0 7d 02 00       	mov    %eax,0x27de0
    1f89:	39 ca                	cmp    %ecx,%edx
    1f8b:	7d 06                	jge    1f93 <onClick_btn5+0x303>
    1f8d:	89 d0                	mov    %edx,%eax
    1f8f:	89 ca                	mov    %ecx,%edx
    1f91:	89 c1                	mov    %eax,%ecx
    1f93:	8d 04 0a             	lea    (%edx,%ecx,1),%eax
    1f96:	83 fe fe             	cmp    $0xfffffffe,%esi
    1f99:	74 1e                	je     1fb9 <onClick_btn5+0x329>
    1f9b:	83 fe ff             	cmp    $0xffffffff,%esi
    1f9e:	0f 84 7c 00 00 00    	je     2020 <onClick_btn5+0x390>
    1fa4:	83 fe fc             	cmp    $0xfffffffc,%esi
    1fa7:	74 7f                	je     2028 <onClick_btn5+0x398>
    1fa9:	83 fe fd             	cmp    $0xfffffffd,%esi
    1fac:	0f 85 ce 03 00 00    	jne    2380 <onClick_btn5+0x6f0>
    1fb2:	89 d0                	mov    %edx,%eax
    1fb4:	c1 fa 1f             	sar    $0x1f,%edx
    1fb7:	f7 f9                	idiv   %ecx
    1fb9:	8b 15 e0 7d 02 00    	mov    0x27de0,%edx
    1fbf:	83 fa 63             	cmp    $0x63,%edx
    1fc2:	74 44                	je     2008 <onClick_btn5+0x378>
    1fc4:	42                   	inc    %edx
    1fc5:	89 15 e0 7d 02 00    	mov    %edx,0x27de0
    1fcb:	89 04 95 60 35 03 00 	mov    %eax,0x33560(,%edx,4)
    1fd2:	e9 6f ff ff ff       	jmp    1f46 <onClick_btn5+0x2b6>
    1fd7:	90                   	nop
    1fd8:	80 f9 2d             	cmp    $0x2d,%cl
    1fdb:	0f 84 49 02 00 00    	je     222a <onClick_btn5+0x59a>
    1fe1:	80 f9 2b             	cmp    $0x2b,%cl
    1fe4:	0f 84 ec 00 00 00    	je     20d6 <onClick_btn5+0x446>
    1fea:	80 f9 2f             	cmp    $0x2f,%cl
    1fed:	0f 84 75 02 00 00    	je     2268 <onClick_btn5+0x5d8>
    1ff3:	80 f9 2a             	cmp    $0x2a,%cl
    1ff6:	0f 84 44 01 00 00    	je     2140 <onClick_btn5+0x4b0>
    1ffc:	31 ff                	xor    %edi,%edi
    1ffe:	e9 52 fd ff ff       	jmp    1d55 <onClick_btn5+0xc5>
    2003:	90                   	nop
    2004:	8d 74 26 00          	lea    0x0(%esi,%eiz,1),%esi
    2008:	c7 04 24 05 53 02 00 	movl   $0x25305,(%esp)
    200f:	e8 7c 15 01 00       	call   13590 <printf>
    2014:	e9 2d ff ff ff       	jmp    1f46 <onClick_btn5+0x2b6>
    2019:	8d b4 26 00 00 00 00 	lea    0x0(%esi,%eiz,1),%esi
    2020:	89 d0                	mov    %edx,%eax
    2022:	29 c8                	sub    %ecx,%eax
    2024:	eb 93                	jmp    1fb9 <onClick_btn5+0x329>
    2026:	66 90                	xchg   %ax,%ax
    2028:	89 d0                	mov    %edx,%eax
    202a:	0f af c1             	imul   %ecx,%eax
    202d:	eb 8a                	jmp    1fb9 <onClick_btn5+0x329>
    202f:	90                   	nop
    2030:	c7 04 24 14 53 02 00 	movl   $0x25314,(%esp)
    2037:	e8 54 15 01 00       	call   13590 <printf>
    203c:	a1 e0 7d 02 00       	mov    0x27de0,%eax
    2041:	31 d2                	xor    %edx,%edx
    2043:	85 c0                	test   %eax,%eax
    2045:	0f 89 31 ff ff ff    	jns    1f7c <onClick_btn5+0x2ec>
    204b:	90                   	nop
    204c:	8d 74 26 00          	lea    0x0(%esi,%eiz,1),%esi
    2050:	c7 04 24 14 53 02 00 	movl   $0x25314,(%esp)
    2057:	89 95 0c ff ff ff    	mov    %edx,-0xf4(%ebp)
    205d:	e8 2e 15 01 00       	call   13590 <printf>
    2062:	31 c9                	xor    %ecx,%ecx
    2064:	8b 95 0c ff ff ff    	mov    -0xf4(%ebp),%edx
    206a:	e9 1a ff ff ff       	jmp    1f89 <onClick_btn5+0x2f9>
    206f:	90                   	nop
    2070:	c7 04 24 fa 52 02 00 	movl   $0x252fa,(%esp)
    2077:	e8 14 15 01 00       	call   13590 <printf>
    207c:	8b 85 10 ff ff ff    	mov    -0xf0(%ebp),%eax
    2082:	c7 45 0c e2 52 02 00 	movl   $0x252e2,0xc(%ebp)
    2089:	89 45 08             	mov    %eax,0x8(%ebp)
    208c:	8b 80 34 01 00 00    	mov    0x134(%eax),%eax
    2092:	81 c4 fc 00 00 00    	add    $0xfc,%esp
    2098:	5b                   	pop    %ebx
    2099:	5e                   	pop    %esi
    209a:	5f                   	pop    %edi
    209b:	5d                   	pop    %ebp
    209c:	ff e0                	jmp    *%eax
    209e:	66 90                	xchg   %ax,%ax
    20a0:	0f be f8             	movsbl %al,%edi
    20a3:	83 ff ff             	cmp    $0xffffffff,%edi
    20a6:	74 24                	je     20cc <onClick_btn5+0x43c>
    20a8:	83 ff fd             	cmp    $0xfffffffd,%edi
    20ab:	0f 84 1f fd ff ff    	je     1dd0 <onClick_btn5+0x140>
    20b1:	83 ff fc             	cmp    $0xfffffffc,%edi
    20b4:	0f 84 16 fd ff ff    	je     1dd0 <onClick_btn5+0x140>
    20ba:	83 ff fb             	cmp    $0xfffffffb,%edi
    20bd:	0f 84 0d fd ff ff    	je     1dd0 <onClick_btn5+0x140>
    20c3:	83 ff fa             	cmp    $0xfffffffa,%edi
    20c6:	0f 84 04 fd ff ff    	je     1dd0 <onClick_btn5+0x140>
    20cc:	c7 85 14 ff ff ff 01 	movl   $0x1,-0xec(%ebp)
    20d3:	00 00 00 
    20d6:	83 fa 63             	cmp    $0x63,%edx
    20d9:	0f 84 a7 01 00 00    	je     2286 <onClick_btn5+0x5f6>
    20df:	42                   	inc    %edx
    20e0:	31 ff                	xor    %edi,%edi
    20e2:	89 15 e0 7d 02 00    	mov    %edx,0x27de0
    20e8:	c7 04 95 60 35 03 00 	movl   $0xfffffffe,0x33560(,%edx,4)
    20ef:	fe ff ff ff 
    20f3:	e9 5d fc ff ff       	jmp    1d55 <onClick_btn5+0xc5>
    20f8:	80 f9 2a             	cmp    $0x2a,%cl
    20fb:	0f 85 c5 02 00 00    	jne    23c6 <onClick_btn5+0x736>
    2101:	0f be f8             	movsbl %al,%edi
    2104:	83 ff ff             	cmp    $0xffffffff,%edi
    2107:	74 26                	je     212f <onClick_btn5+0x49f>
    2109:	83 ff fe             	cmp    $0xfffffffe,%edi
    210c:	74 21                	je     212f <onClick_btn5+0x49f>
    210e:	c7 85 14 ff ff ff 01 	movl   $0x1,-0xec(%ebp)
    2115:	00 00 00 
    2118:	83 ff fd             	cmp    $0xfffffffd,%edi
    211b:	74 23                	je     2140 <onClick_btn5+0x4b0>
    211d:	83 ff fb             	cmp    $0xfffffffb,%edi
    2120:	0f 84 aa fc ff ff    	je     1dd0 <onClick_btn5+0x140>
    2126:	83 ff fa             	cmp    $0xfffffffa,%edi
    2129:	0f 84 a1 fc ff ff    	je     1dd0 <onClick_btn5+0x140>
    212f:	c7 85 14 ff ff ff 01 	movl   $0x1,-0xec(%ebp)
    2136:	00 00 00 
    2139:	8d b4 26 00 00 00 00 	lea    0x0(%esi,%eiz,1),%esi
    2140:	83 fa 63             	cmp    $0x63,%edx
    2143:	0f 84 56 01 00 00    	je     229f <onClick_btn5+0x60f>
    2149:	42                   	inc    %edx
    214a:	31 ff                	xor    %edi,%edi
    214c:	89 15 e0 7d 02 00    	mov    %edx,0x27de0
    2152:	c7 04 95 60 35 03 00 	movl   $0xfffffffc,0x33560(,%edx,4)
    2159:	fc ff ff ff 
    215d:	e9 f3 fb ff ff       	jmp    1d55 <onClick_btn5+0xc5>
    2162:	8d b6 00 00 00 00    	lea    0x0(%esi),%esi
    2168:	83 fa 63             	cmp    $0x63,%edx
    216b:	0f 84 2e 01 00 00    	je     229f <onClick_btn5+0x60f>
    2171:	42                   	inc    %edx
    2172:	31 ff                	xor    %edi,%edi
    2174:	89 15 e0 7d 02 00    	mov    %edx,0x27de0
    217a:	c7 04 95 60 35 03 00 	movl   $0xfffffffb,0x33560(,%edx,4)
    2181:	fb ff ff ff 
    2185:	e9 cb fb ff ff       	jmp    1d55 <onClick_btn5+0xc5>
    218a:	8d b6 00 00 00 00    	lea    0x0(%esi),%esi
    2190:	85 d2                	test   %edx,%edx
    2192:	0f 88 33 01 00 00    	js     22cb <onClick_btn5+0x63b>
    2198:	8b 04 95 60 35 03 00 	mov    0x33560(,%edx,4),%eax
    219f:	4a                   	dec    %edx
    21a0:	89 15 e0 7d 02 00    	mov    %edx,0x27de0
    21a6:	8d bd 20 ff ff ff    	lea    -0xe0(%ebp),%edi
    21ac:	83 f8 fb             	cmp    $0xfffffffb,%eax
    21af:	75 1e                	jne    21cf <onClick_btn5+0x53f>
    21b1:	e9 46 fe ff ff       	jmp    1ffc <onClick_btn5+0x36c>
    21b6:	66 90                	xchg   %ax,%ax
    21b8:	8b 04 95 60 35 03 00 	mov    0x33560(,%edx,4),%eax
    21bf:	4a                   	dec    %edx
    21c0:	89 15 e0 7d 02 00    	mov    %edx,0x27de0
    21c6:	83 f8 fb             	cmp    $0xfffffffb,%eax
    21c9:	0f 84 2d fe ff ff    	je     1ffc <onClick_btn5+0x36c>
    21cf:	89 04 9f             	mov    %eax,(%edi,%ebx,4)
    21d2:	43                   	inc    %ebx
    21d3:	85 d2                	test   %edx,%edx
    21d5:	79 e1                	jns    21b8 <onClick_btn5+0x528>
    21d7:	c7 04 24 14 53 02 00 	movl   $0x25314,(%esp)
    21de:	e8 ad 13 01 00       	call   13590 <printf>
    21e3:	8b 15 e0 7d 02 00    	mov    0x27de0,%edx
    21e9:	31 c0                	xor    %eax,%eax
    21eb:	eb e2                	jmp    21cf <onClick_btn5+0x53f>
    21ed:	8d 76 00             	lea    0x0(%esi),%esi
    21f0:	0f be f8             	movsbl %al,%edi
    21f3:	83 ff fe             	cmp    $0xfffffffe,%edi
    21f6:	0f 84 d4 fb ff ff    	je     1dd0 <onClick_btn5+0x140>
    21fc:	83 ff fd             	cmp    $0xfffffffd,%edi
    21ff:	0f 84 cb fb ff ff    	je     1dd0 <onClick_btn5+0x140>
    2205:	83 ff fc             	cmp    $0xfffffffc,%edi
    2208:	0f 84 c2 fb ff ff    	je     1dd0 <onClick_btn5+0x140>
    220e:	83 ff fb             	cmp    $0xfffffffb,%edi
    2211:	0f 84 b9 fb ff ff    	je     1dd0 <onClick_btn5+0x140>
    2217:	83 ff fa             	cmp    $0xfffffffa,%edi
    221a:	0f 84 b0 fb ff ff    	je     1dd0 <onClick_btn5+0x140>
    2220:	c7 85 14 ff ff ff 01 	movl   $0x1,-0xec(%ebp)
    2227:	00 00 00 
    222a:	83 fa 63             	cmp    $0x63,%edx
    222d:	74 57                	je     2286 <onClick_btn5+0x5f6>
    222f:	42                   	inc    %edx
    2230:	31 ff                	xor    %edi,%edi
    2232:	89 15 e0 7d 02 00    	mov    %edx,0x27de0
    2238:	c7 04 95 60 35 03 00 	movl   $0xffffffff,0x33560(,%edx,4)
    223f:	ff ff ff ff 
    2243:	e9 0d fb ff ff       	jmp    1d55 <onClick_btn5+0xc5>
    2248:	83 ff fb             	cmp    $0xfffffffb,%edi
    224b:	0f 84 7f fb ff ff    	je     1dd0 <onClick_btn5+0x140>
    2251:	83 ff fa             	cmp    $0xfffffffa,%edi
    2254:	0f 84 76 fb ff ff    	je     1dd0 <onClick_btn5+0x140>
    225a:	c7 85 14 ff ff ff 01 	movl   $0x1,-0xec(%ebp)
    2261:	00 00 00 
    2264:	8d 74 26 00          	lea    0x0(%esi,%eiz,1),%esi
    2268:	83 fa 63             	cmp    $0x63,%edx
    226b:	74 19                	je     2286 <onClick_btn5+0x5f6>
    226d:	42                   	inc    %edx
    226e:	31 ff                	xor    %edi,%edi
    2270:	89 15 e0 7d 02 00    	mov    %edx,0x27de0
    2276:	c7 04 95 60 35 03 00 	movl   $0xfffffffd,0x33560(,%edx,4)
    227d:	fd ff ff ff 
    2281:	e9 cf fa ff ff       	jmp    1d55 <onClick_btn5+0xc5>
    2286:	c7 04 24 05 53 02 00 	movl   $0x25305,(%esp)
    228d:	31 ff                	xor    %edi,%edi
    228f:	e8 fc 12 01 00       	call   13590 <printf>
    2294:	8b 15 e0 7d 02 00    	mov    0x27de0,%edx
    229a:	e9 b6 fa ff ff       	jmp    1d55 <onClick_btn5+0xc5>
    229f:	c7 04 24 05 53 02 00 	movl   $0x25305,(%esp)
    22a6:	31 ff                	xor    %edi,%edi
    22a8:	e8 e3 12 01 00       	call   13590 <printf>
    22ad:	8b 15 e0 7d 02 00    	mov    0x27de0,%edx
    22b3:	e9 9d fa ff ff       	jmp    1d55 <onClick_btn5+0xc5>
    22b8:	c7 04 24 14 53 02 00 	movl   $0x25314,(%esp)
    22bf:	e8 cc 12 01 00       	call   13590 <printf>
    22c4:	31 c0                	xor    %eax,%eax
    22c6:	e9 97 fb ff ff       	jmp    1e62 <onClick_btn5+0x1d2>
    22cb:	c7 04 24 14 53 02 00 	movl   $0x25314,(%esp)
    22d2:	8d bd 20 ff ff ff    	lea    -0xe0(%ebp),%edi
    22d8:	e8 b3 12 01 00       	call   13590 <printf>
    22dd:	8b 15 e0 7d 02 00    	mov    0x27de0,%edx
    22e3:	31 c0                	xor    %eax,%eax
    22e5:	e9 e5 fe ff ff       	jmp    21cf <onClick_btn5+0x53f>
    22ea:	83 fa 63             	cmp    $0x63,%edx
    22ed:	74 b0                	je     229f <onClick_btn5+0x60f>
    22ef:	42                   	inc    %edx
    22f0:	31 ff                	xor    %edi,%edi
    22f2:	89 15 e0 7d 02 00    	mov    %edx,0x27de0
    22f8:	c7 04 95 60 35 03 00 	movl   $0xffffffff,0x33560(,%edx,4)
    22ff:	ff ff ff ff 
    2303:	e9 4d fa ff ff       	jmp    1d55 <onClick_btn5+0xc5>
    2308:	83 fa 63             	cmp    $0x63,%edx
    230b:	74 92                	je     229f <onClick_btn5+0x60f>
    230d:	42                   	inc    %edx
    230e:	31 ff                	xor    %edi,%edi
    2310:	89 15 e0 7d 02 00    	mov    %edx,0x27de0
    2316:	c7 04 95 60 35 03 00 	movl   $0xfffffffe,0x33560(,%edx,4)
    231d:	fe ff ff ff 
    2321:	e9 2f fa ff ff       	jmp    1d55 <onClick_btn5+0xc5>
    2326:	83 fa 63             	cmp    $0x63,%edx
    2329:	0f 84 70 ff ff ff    	je     229f <onClick_btn5+0x60f>
    232f:	42                   	inc    %edx
    2330:	31 ff                	xor    %edi,%edi
    2332:	89 15 e0 7d 02 00    	mov    %edx,0x27de0
    2338:	c7 04 95 60 35 03 00 	movl   $0xfffffffd,0x33560(,%edx,4)
    233f:	fd ff ff ff 
    2343:	e9 0d fa ff ff       	jmp    1d55 <onClick_btn5+0xc5>
    2348:	c7 04 24 14 53 02 00 	movl   $0x25314,(%esp)
    234f:	88 8d 0c ff ff ff    	mov    %cl,-0xf4(%ebp)
    2355:	e8 36 12 01 00       	call   13590 <printf>
    235a:	8b 15 e0 7d 02 00    	mov    0x27de0,%edx
    2360:	31 c0                	xor    %eax,%eax
    2362:	8a 8d 0c ff ff ff    	mov    -0xf4(%ebp),%cl
    2368:	e9 7c fa ff ff       	jmp    1de9 <onClick_btn5+0x159>
    236d:	85 c9                	test   %ecx,%ecx
    236f:	0f 84 c3 fa ff ff    	je     1e38 <onClick_btn5+0x1a8>
    2375:	8d bd 20 ff ff ff    	lea    -0xe0(%ebp),%edi
    237b:	e9 a2 fb ff ff       	jmp    1f22 <onClick_btn5+0x292>
    2380:	c7 04 24 64 53 02 00 	movl   $0x25364,(%esp)
    2387:	e8 04 12 01 00       	call   13590 <printf>
    238c:	c7 04 24 00 00 00 00 	movl   $0x0,(%esp)
    2393:	e8 28 64 00 00       	call   87c0 <exit>
    2398:	80 f9 2d             	cmp    $0x2d,%cl
    239b:	0f 84 8e fe ff ff    	je     222f <onClick_btn5+0x59f>
    23a1:	80 f9 2b             	cmp    $0x2b,%cl
    23a4:	0f 85 40 fc ff ff    	jne    1fea <onClick_btn5+0x35a>
    23aa:	e9 30 fd ff ff       	jmp    20df <onClick_btn5+0x44f>
    23af:	c7 04 24 05 53 02 00 	movl   $0x25305,(%esp)
    23b6:	e8 d5 11 01 00       	call   13590 <printf>
    23bb:	8b 15 e0 7d 02 00    	mov    0x27de0,%edx
    23c1:	e9 8f f9 ff ff       	jmp    1d55 <onClick_btn5+0xc5>
    23c6:	8b bd 14 ff ff ff    	mov    -0xec(%ebp),%edi
    23cc:	85 ff                	test   %edi,%edi
    23ce:	0f 88 06 fa ff ff    	js     1dda <onClick_btn5+0x14a>
    23d4:	80 f9 2f             	cmp    $0x2f,%cl
    23d7:	0f 84 8b fe ff ff    	je     2268 <onClick_btn5+0x5d8>
    23dd:	31 ff                	xor    %edi,%edi
    23df:	80 f9 2a             	cmp    $0x2a,%cl
    23e2:	0f 85 6d f9 ff ff    	jne    1d55 <onClick_btn5+0xc5>
    23e8:	e9 53 fd ff ff       	jmp    2140 <onClick_btn5+0x4b0>
    23ed:	66 90                	xchg   %ax,%ax
    23ef:	90                   	nop

000023f0 <main>:
    23f0:	55                   	push   %ebp
    23f1:	89 e5                	mov    %esp,%ebp
    23f3:	57                   	push   %edi
    23f4:	56                   	push   %esi
    23f5:	53                   	push   %ebx
    23f6:	83 e4 f0             	and    $0xfffffff0,%esp
    23f9:	83 ec 60             	sub    $0x60,%esp
    23fc:	83 7d 08 01          	cmpl   $0x1,0x8(%ebp)
    2400:	0f 8e b1 0a 00 00    	jle    2eb7 <main+0xac7>
    2406:	8b 45 0c             	mov    0xc(%ebp),%eax
    2409:	c7 44 24 14 ff 00 00 	movl   $0xff,0x14(%esp)
    2410:	00 
    2411:	c7 44 24 10 ff 00 00 	movl   $0xff,0x10(%esp)
    2418:	00 
    2419:	c7 44 24 0c 24 53 02 	movl   $0x25324,0xc(%esp)
    2420:	00 
    2421:	c7 44 24 08 01 00 00 	movl   $0x1,0x8(%esp)
    2428:	00 
    2429:	c7 44 24 04 01 00 00 	movl   $0x1,0x4(%esp)
    2430:	00 
    2431:	8b 40 04             	mov    0x4(%eax),%eax
    2434:	89 04 24             	mov    %eax,(%esp)
    2437:	e8 64 37 00 00       	call   5ba0 <window_open>
    243c:	89 c3                	mov    %eax,%ebx
    243e:	85 c0                	test   %eax,%eax
    2440:	0f 84 7f 0a 00 00    	je     2ec5 <main+0xad5>
    2446:	89 04 24             	mov    %eax,(%esp)
    2449:	e8 02 3a 00 00       	call   5e50 <window_root>
    244e:	c7 44 24 0c f0 f0 f0 	movl   $0xfff0f0f0,0xc(%esp)
    2455:	ff 
    2456:	c7 44 24 08 04 00 00 	movl   $0x4,0x8(%esp)
    245d:	00 
    245e:	c7 44 24 04 05 00 00 	movl   $0x5,0x4(%esp)
    2465:	00 
    2466:	89 04 24             	mov    %eax,(%esp)
    2469:	e8 d2 1f 00 00       	call   4440 <create_grid>
    246e:	c7 04 24 78 01 00 00 	movl   $0x178,(%esp)
    2475:	89 44 24 48          	mov    %eax,0x48(%esp)
    2479:	e8 52 63 01 00       	call   187d0 <malloc>
    247e:	89 c6                	mov    %eax,%esi
    2480:	85 c0                	test   %eax,%eax
    2482:	0f 84 df 00 00 00    	je     2567 <main+0x177>
    2488:	c7 80 38 01 00 00 90 	movl   $0x1b90,0x138(%eax)
    248f:	1b 00 00 
    2492:	c7 80 3c 01 00 00 c0 	movl   $0x1ac0,0x13c(%eax)
    2499:	1a 00 00 
    249c:	c7 80 40 01 00 00 f0 	movl   $0x19f0,0x140(%eax)
    24a3:	19 00 00 
    24a6:	c7 80 44 01 00 00 20 	movl   $0x1920,0x144(%eax)
    24ad:	19 00 00 
    24b0:	c7 80 48 01 00 00 50 	movl   $0x1850,0x148(%eax)
    24b7:	18 00 00 
    24ba:	c7 80 4c 01 00 00 80 	movl   $0x1780,0x14c(%eax)
    24c1:	17 00 00 
    24c4:	c7 80 50 01 00 00 b0 	movl   $0x16b0,0x150(%eax)
    24cb:	16 00 00 
    24ce:	c7 80 54 01 00 00 e0 	movl   $0x15e0,0x154(%eax)
    24d5:	15 00 00 
    24d8:	c7 80 58 01 00 00 10 	movl   $0x1510,0x158(%eax)
    24df:	15 00 00 
    24e2:	c7 80 5c 01 00 00 40 	movl   $0x1440,0x15c(%eax)
    24e9:	14 00 00 
    24ec:	c7 80 60 01 00 00 70 	movl   $0x1370,0x160(%eax)
    24f3:	13 00 00 
    24f6:	c7 80 64 01 00 00 a0 	movl   $0x12a0,0x164(%eax)
    24fd:	12 00 00 
    2500:	c7 80 68 01 00 00 d0 	movl   $0x11d0,0x168(%eax)
    2507:	11 00 00 
    250a:	c7 80 6c 01 00 00 00 	movl   $0x1100,0x16c(%eax)
    2511:	11 00 00 
    2514:	c7 80 70 01 00 00 90 	movl   $0x1c90,0x170(%eax)
    251b:	1c 00 00 
    251e:	c7 80 74 01 00 00 c0 	movl   $0x10c0,0x174(%eax)
    2525:	10 00 00 
    2528:	c7 44 24 14 00 00 00 	movl   $0xff000000,0x14(%esp)
    252f:	ff 
    2530:	c7 44 24 10 f0 f0 f0 	movl   $0xfff0f0f0,0x10(%esp)
    2537:	ff 
    2538:	c7 44 24 0c 10 00 00 	movl   $0x10,0xc(%esp)
    253f:	00 
    2540:	c7 44 24 08 e2 52 02 	movl   $0x252e2,0x8(%esp)
    2547:	00 
    2548:	c7 44 24 04 00 00 00 	movl   $0x0,0x4(%esp)
    254f:	00 
    2550:	89 04 24             	mov    %eax,(%esp)
    2553:	e8 68 22 00 00       	call   47c0 <init_label>
    2558:	c7 46 40 e0 10 00 00 	movl   $0x10e0,0x40(%esi)
    255f:	84 c0                	test   %al,%al
    2561:	0f 84 6c 09 00 00    	je     2ed3 <main+0xae3>
    2567:	c7 44 24 10 c8 c8 c8 	movl   $0xc8c8c8c8,0x10(%esp)
    256e:	c8 
    256f:	c7 44 24 0c 00 00 00 	movl   $0xff000000,0xc(%esp)
    2576:	ff 
    2577:	c7 44 24 08 10 00 00 	movl   $0x10,0x8(%esp)
    257e:	00 
    257f:	c7 44 24 04 e2 56 02 	movl   $0x256e2,0x4(%esp)
    2586:	00 
    2587:	c7 04 24 00 00 00 00 	movl   $0x0,(%esp)
    258e:	e8 5d 0d 00 00       	call   32f0 <create_button>
    2593:	c7 44 24 10 c8 c8 c8 	movl   $0xc8c8c8c8,0x10(%esp)
    259a:	c8 
    259b:	c7 44 24 0c 00 00 00 	movl   $0xff000000,0xc(%esp)
    25a2:	ff 
    25a3:	c7 44 24 08 10 00 00 	movl   $0x10,0x8(%esp)
    25aa:	00 
    25ab:	c7 44 24 04 4b 62 02 	movl   $0x2624b,0x4(%esp)
    25b2:	00 
    25b3:	c7 04 24 00 00 00 00 	movl   $0x0,(%esp)
    25ba:	89 c7                	mov    %eax,%edi
    25bc:	e8 2f 0d 00 00       	call   32f0 <create_button>
    25c1:	c7 44 24 10 c8 c8 c8 	movl   $0xc8c8c8c8,0x10(%esp)
    25c8:	c8 
    25c9:	c7 44 24 0c 00 00 00 	movl   $0xff000000,0xc(%esp)
    25d0:	ff 
    25d1:	c7 44 24 08 10 00 00 	movl   $0x10,0x8(%esp)
    25d8:	00 
    25d9:	c7 44 24 04 f8 52 02 	movl   $0x252f8,0x4(%esp)
    25e0:	00 
    25e1:	c7 04 24 00 00 00 00 	movl   $0x0,(%esp)
    25e8:	89 44 24 58          	mov    %eax,0x58(%esp)
    25ec:	e8 ff 0c 00 00       	call   32f0 <create_button>
    25f1:	c7 44 24 10 c8 c8 c8 	movl   $0xc8c8c8c8,0x10(%esp)
    25f8:	c8 
    25f9:	c7 44 24 0c 00 00 00 	movl   $0xff000000,0xc(%esp)
    2600:	ff 
    2601:	c7 44 24 08 10 00 00 	movl   $0x10,0x8(%esp)
    2608:	00 
    2609:	c7 44 24 04 f6 52 02 	movl   $0x252f6,0x4(%esp)
    2610:	00 
    2611:	c7 04 24 00 00 00 00 	movl   $0x0,(%esp)
    2618:	89 44 24 5c          	mov    %eax,0x5c(%esp)
    261c:	e8 cf 0c 00 00       	call   32f0 <create_button>
    2621:	c7 44 24 10 c8 c8 c8 	movl   $0xc8c8c8c8,0x10(%esp)
    2628:	c8 
    2629:	c7 44 24 0c 00 00 00 	movl   $0xff000000,0xc(%esp)
    2630:	ff 
    2631:	c7 44 24 08 10 00 00 	movl   $0x10,0x8(%esp)
    2638:	00 
    2639:	c7 44 24 04 f4 52 02 	movl   $0x252f4,0x4(%esp)
    2640:	00 
    2641:	c7 04 24 00 00 00 00 	movl   $0x0,(%esp)
    2648:	89 44 24 50          	mov    %eax,0x50(%esp)
    264c:	e8 9f 0c 00 00       	call   32f0 <create_button>
    2651:	c7 44 24 10 c8 c8 c8 	movl   $0xc8c8c8c8,0x10(%esp)
    2658:	c8 
    2659:	c7 44 24 0c 00 00 00 	movl   $0xff000000,0xc(%esp)
    2660:	ff 
    2661:	c7 44 24 08 10 00 00 	movl   $0x10,0x8(%esp)
    2668:	00 
    2669:	c7 44 24 04 f2 52 02 	movl   $0x252f2,0x4(%esp)
    2670:	00 
    2671:	c7 04 24 00 00 00 00 	movl   $0x0,(%esp)
    2678:	89 44 24 54          	mov    %eax,0x54(%esp)
    267c:	e8 6f 0c 00 00       	call   32f0 <create_button>
    2681:	c7 44 24 10 c8 c8 c8 	movl   $0xc8c8c8c8,0x10(%esp)
    2688:	c8 
    2689:	c7 44 24 0c 00 00 00 	movl   $0xff000000,0xc(%esp)
    2690:	ff 
    2691:	c7 44 24 08 10 00 00 	movl   $0x10,0x8(%esp)
    2698:	00 
    2699:	c7 44 24 04 f0 52 02 	movl   $0x252f0,0x4(%esp)
    26a0:	00 
    26a1:	c7 04 24 00 00 00 00 	movl   $0x0,(%esp)
    26a8:	89 44 24 44          	mov    %eax,0x44(%esp)
    26ac:	e8 3f 0c 00 00       	call   32f0 <create_button>
    26b1:	c7 44 24 10 c8 c8 c8 	movl   $0xc8c8c8c8,0x10(%esp)
    26b8:	c8 
    26b9:	c7 44 24 0c 00 00 00 	movl   $0xff000000,0xc(%esp)
    26c0:	ff 
    26c1:	c7 44 24 08 10 00 00 	movl   $0x10,0x8(%esp)
    26c8:	00 
    26c9:	c7 44 24 04 ee 52 02 	movl   $0x252ee,0x4(%esp)
    26d0:	00 
    26d1:	c7 04 24 00 00 00 00 	movl   $0x0,(%esp)
    26d8:	89 44 24 4c          	mov    %eax,0x4c(%esp)
    26dc:	e8 0f 0c 00 00       	call   32f0 <create_button>
    26e1:	c7 44 24 10 c8 c8 c8 	movl   $0xc8c8c8c8,0x10(%esp)
    26e8:	c8 
    26e9:	c7 44 24 0c 00 00 00 	movl   $0xff000000,0xc(%esp)
    26f0:	ff 
    26f1:	c7 44 24 08 10 00 00 	movl   $0x10,0x8(%esp)
    26f8:	00 
    26f9:	c7 44 24 04 ec 52 02 	movl   $0x252ec,0x4(%esp)
    2700:	00 
    2701:	c7 04 24 00 00 00 00 	movl   $0x0,(%esp)
    2708:	89 44 24 3c          	mov    %eax,0x3c(%esp)
    270c:	e8 df 0b 00 00       	call   32f0 <create_button>
    2711:	c7 44 24 10 c8 c8 c8 	movl   $0xc8c8c8c8,0x10(%esp)
    2718:	c8 
    2719:	c7 44 24 0c 00 00 00 	movl   $0xff000000,0xc(%esp)
    2720:	ff 
    2721:	c7 44 24 08 10 00 00 	movl   $0x10,0x8(%esp)
    2728:	00 
    2729:	c7 44 24 04 2e 5b 02 	movl   $0x25b2e,0x4(%esp)
    2730:	00 
    2731:	c7 04 24 00 00 00 00 	movl   $0x0,(%esp)
    2738:	89 44 24 40          	mov    %eax,0x40(%esp)
    273c:	e8 af 0b 00 00       	call   32f0 <create_button>
    2741:	c7 44 24 10 c8 c8 c8 	movl   $0xc8c8c8c8,0x10(%esp)
    2748:	c8 
    2749:	c7 44 24 0c 00 00 00 	movl   $0xff000000,0xc(%esp)
    2750:	ff 
    2751:	c7 44 24 08 10 00 00 	movl   $0x10,0x8(%esp)
    2758:	00 
    2759:	c7 44 24 04 ea 52 02 	movl   $0x252ea,0x4(%esp)
    2760:	00 
    2761:	c7 04 24 00 00 00 00 	movl   $0x0,(%esp)
    2768:	89 44 24 34          	mov    %eax,0x34(%esp)
    276c:	e8 7f 0b 00 00       	call   32f0 <create_button>
    2771:	c7 44 24 10 c8 c8 c8 	movl   $0xc8c8c8c8,0x10(%esp)
    2778:	c8 
    2779:	c7 44 24 0c 00 00 00 	movl   $0xff000000,0xc(%esp)
    2780:	ff 
    2781:	c7 44 24 08 10 00 00 	movl   $0x10,0x8(%esp)
    2788:	00 
    2789:	c7 44 24 04 e8 52 02 	movl   $0x252e8,0x4(%esp)
    2790:	00 
    2791:	c7 04 24 00 00 00 00 	movl   $0x0,(%esp)
    2798:	89 44 24 38          	mov    %eax,0x38(%esp)
    279c:	e8 4f 0b 00 00       	call   32f0 <create_button>
    27a1:	c7 44 24 10 c8 c8 c8 	movl   $0xc8c8c8c8,0x10(%esp)
    27a8:	c8 
    27a9:	c7 44 24 0c 00 00 00 	movl   $0xff000000,0xc(%esp)
    27b0:	ff 
    27b1:	c7 44 24 08 10 00 00 	movl   $0x10,0x8(%esp)
    27b8:	00 
    27b9:	c7 44 24 04 e6 52 02 	movl   $0x252e6,0x4(%esp)
    27c0:	00 
    27c1:	c7 04 24 00 00 00 00 	movl   $0x0,(%esp)
    27c8:	89 44 24 2c          	mov    %eax,0x2c(%esp)
    27cc:	e8 1f 0b 00 00       	call   32f0 <create_button>
    27d1:	c7 44 24 10 c8 c8 c8 	movl   $0xc8c8c8c8,0x10(%esp)
    27d8:	c8 
    27d9:	c7 44 24 0c 00 00 00 	movl   $0xff000000,0xc(%esp)
    27e0:	ff 
    27e1:	c7 44 24 08 10 00 00 	movl   $0x10,0x8(%esp)
    27e8:	00 
    27e9:	c7 44 24 04 e4 52 02 	movl   $0x252e4,0x4(%esp)
    27f0:	00 
    27f1:	c7 04 24 00 00 00 00 	movl   $0x0,(%esp)
    27f8:	89 44 24 30          	mov    %eax,0x30(%esp)
    27fc:	e8 ef 0a 00 00       	call   32f0 <create_button>
    2801:	c7 44 24 10 c8 c8 c8 	movl   $0xc8c8c8c8,0x10(%esp)
    2808:	c8 
    2809:	c7 44 24 0c 00 00 00 	movl   $0xff000000,0xc(%esp)
    2810:	ff 
    2811:	c7 44 24 08 10 00 00 	movl   $0x10,0x8(%esp)
    2818:	00 
    2819:	c7 44 24 04 45 53 02 	movl   $0x25345,0x4(%esp)
    2820:	00 
    2821:	c7 04 24 00 00 00 00 	movl   $0x0,(%esp)
    2828:	89 44 24 24          	mov    %eax,0x24(%esp)
    282c:	e8 bf 0a 00 00       	call   32f0 <create_button>
    2831:	c7 44 24 10 c8 c8 c8 	movl   $0xc8c8c8c8,0x10(%esp)
    2838:	c8 
    2839:	c7 44 24 0c 00 00 00 	movl   $0xff000000,0xc(%esp)
    2840:	ff 
    2841:	c7 44 24 08 10 00 00 	movl   $0x10,0x8(%esp)
    2848:	00 
    2849:	c7 44 24 04 47 53 02 	movl   $0x25347,0x4(%esp)
    2850:	00 
    2851:	c7 04 24 00 00 00 00 	movl   $0x0,(%esp)
    2858:	89 44 24 28          	mov    %eax,0x28(%esp)
    285c:	e8 8f 0a 00 00       	call   32f0 <create_button>
    2861:	85 ff                	test   %edi,%edi
    2863:	89 c1                	mov    %eax,%ecx
    2865:	0f 84 2b 06 00 00    	je     2e96 <main+0xaa6>
    286b:	85 f6                	test   %esi,%esi
    286d:	0f 84 23 06 00 00    	je     2e96 <main+0xaa6>
    2873:	83 7c 24 5c 00       	cmpl   $0x0,0x5c(%esp)
    2878:	0f 84 18 06 00 00    	je     2e96 <main+0xaa6>
    287e:	83 7c 24 58 00       	cmpl   $0x0,0x58(%esp)
    2883:	0f 84 0d 06 00 00    	je     2e96 <main+0xaa6>
    2889:	83 7c 24 54 00       	cmpl   $0x0,0x54(%esp)
    288e:	0f 84 02 06 00 00    	je     2e96 <main+0xaa6>
    2894:	83 7c 24 50 00       	cmpl   $0x0,0x50(%esp)
    2899:	0f 84 f7 05 00 00    	je     2e96 <main+0xaa6>
    289f:	83 7c 24 4c 00       	cmpl   $0x0,0x4c(%esp)
    28a4:	0f 84 ec 05 00 00    	je     2e96 <main+0xaa6>
    28aa:	83 7c 24 44 00       	cmpl   $0x0,0x44(%esp)
    28af:	0f 84 e1 05 00 00    	je     2e96 <main+0xaa6>
    28b5:	83 7c 24 40 00       	cmpl   $0x0,0x40(%esp)
    28ba:	0f 84 d6 05 00 00    	je     2e96 <main+0xaa6>
    28c0:	83 7c 24 3c 00       	cmpl   $0x0,0x3c(%esp)
    28c5:	0f 84 cb 05 00 00    	je     2e96 <main+0xaa6>
    28cb:	83 7c 24 38 00       	cmpl   $0x0,0x38(%esp)
    28d0:	0f 84 c0 05 00 00    	je     2e96 <main+0xaa6>
    28d6:	83 7c 24 34 00       	cmpl   $0x0,0x34(%esp)
    28db:	0f 84 b5 05 00 00    	je     2e96 <main+0xaa6>
    28e1:	83 7c 24 30 00       	cmpl   $0x0,0x30(%esp)
    28e6:	0f 84 aa 05 00 00    	je     2e96 <main+0xaa6>
    28ec:	83 7c 24 2c 00       	cmpl   $0x0,0x2c(%esp)
    28f1:	0f 84 9f 05 00 00    	je     2e96 <main+0xaa6>
    28f7:	83 7c 24 28 00       	cmpl   $0x0,0x28(%esp)
    28fc:	0f 84 94 05 00 00    	je     2e96 <main+0xaa6>
    2902:	83 7c 24 24 00       	cmpl   $0x0,0x24(%esp)
    2907:	0f 84 89 05 00 00    	je     2e96 <main+0xaa6>
    290d:	85 c0                	test   %eax,%eax
    290f:	0f 84 81 05 00 00    	je     2e96 <main+0xaa6>
    2915:	83 7c 24 48 00       	cmpl   $0x0,0x48(%esp)
    291a:	0f 84 76 05 00 00    	je     2e96 <main+0xaa6>
    2920:	8b 86 38 01 00 00    	mov    0x138(%esi),%eax
    2926:	89 74 24 04          	mov    %esi,0x4(%esp)
    292a:	89 44 24 08          	mov    %eax,0x8(%esp)
    292e:	8d 87 34 01 00 00    	lea    0x134(%edi),%eax
    2934:	89 04 24             	mov    %eax,(%esp)
    2937:	89 4c 24 20          	mov    %ecx,0x20(%esp)
    293b:	e8 e0 0a 00 00       	call   3420 <sig_connect>
    2940:	8b 86 3c 01 00 00    	mov    0x13c(%esi),%eax
    2946:	89 44 24 08          	mov    %eax,0x8(%esp)
    294a:	8b 44 24 58          	mov    0x58(%esp),%eax
    294e:	05 34 01 00 00       	add    $0x134,%eax
    2953:	89 74 24 04          	mov    %esi,0x4(%esp)
    2957:	89 04 24             	mov    %eax,(%esp)
    295a:	e8 c1 0a 00 00       	call   3420 <sig_connect>
    295f:	8b 86 40 01 00 00    	mov    0x140(%esi),%eax
    2965:	89 44 24 08          	mov    %eax,0x8(%esp)
    2969:	8b 44 24 5c          	mov    0x5c(%esp),%eax
    296d:	05 34 01 00 00       	add    $0x134,%eax
    2972:	89 74 24 04          	mov    %esi,0x4(%esp)
    2976:	89 04 24             	mov    %eax,(%esp)
    2979:	e8 a2 0a 00 00       	call   3420 <sig_connect>
    297e:	8b 86 44 01 00 00    	mov    0x144(%esi),%eax
    2984:	89 44 24 08          	mov    %eax,0x8(%esp)
    2988:	8b 44 24 50          	mov    0x50(%esp),%eax
    298c:	05 34 01 00 00       	add    $0x134,%eax
    2991:	89 74 24 04          	mov    %esi,0x4(%esp)
    2995:	89 04 24             	mov    %eax,(%esp)
    2998:	e8 83 0a 00 00       	call   3420 <sig_connect>
    299d:	8b 86 48 01 00 00    	mov    0x148(%esi),%eax
    29a3:	89 44 24 08          	mov    %eax,0x8(%esp)
    29a7:	8b 44 24 54          	mov    0x54(%esp),%eax
    29ab:	05 34 01 00 00       	add    $0x134,%eax
    29b0:	89 74 24 04          	mov    %esi,0x4(%esp)
    29b4:	89 04 24             	mov    %eax,(%esp)
    29b7:	e8 64 0a 00 00       	call   3420 <sig_connect>
    29bc:	8b 86 4c 01 00 00    	mov    0x14c(%esi),%eax
    29c2:	89 44 24 08          	mov    %eax,0x8(%esp)
    29c6:	8b 44 24 44          	mov    0x44(%esp),%eax
    29ca:	05 34 01 00 00       	add    $0x134,%eax
    29cf:	89 74 24 04          	mov    %esi,0x4(%esp)
    29d3:	89 04 24             	mov    %eax,(%esp)
    29d6:	e8 45 0a 00 00       	call   3420 <sig_connect>
    29db:	8b 86 50 01 00 00    	mov    0x150(%esi),%eax
    29e1:	89 44 24 08          	mov    %eax,0x8(%esp)
    29e5:	8b 44 24 4c          	mov    0x4c(%esp),%eax
    29e9:	05 34 01 00 00       	add    $0x134,%eax
    29ee:	89 74 24 04          	mov    %esi,0x4(%esp)
    29f2:	89 04 24             	mov    %eax,(%esp)
    29f5:	e8 26 0a 00 00       	call   3420 <sig_connect>
    29fa:	8b 86 54 01 00 00    	mov    0x154(%esi),%eax
    2a00:	89 44 24 08          	mov    %eax,0x8(%esp)
    2a04:	8b 44 24 3c          	mov    0x3c(%esp),%eax
    2a08:	05 34 01 00 00       	add    $0x134,%eax
    2a0d:	89 74 24 04          	mov    %esi,0x4(%esp)
    2a11:	89 04 24             	mov    %eax,(%esp)
    2a14:	e8 07 0a 00 00       	call   3420 <sig_connect>
    2a19:	8b 86 58 01 00 00    	mov    0x158(%esi),%eax
    2a1f:	89 44 24 08          	mov    %eax,0x8(%esp)
    2a23:	8b 44 24 40          	mov    0x40(%esp),%eax
    2a27:	05 34 01 00 00       	add    $0x134,%eax
    2a2c:	89 74 24 04          	mov    %esi,0x4(%esp)
    2a30:	89 04 24             	mov    %eax,(%esp)
    2a33:	e8 e8 09 00 00       	call   3420 <sig_connect>
    2a38:	8b 86 5c 01 00 00    	mov    0x15c(%esi),%eax
    2a3e:	89 44 24 08          	mov    %eax,0x8(%esp)
    2a42:	8b 44 24 34          	mov    0x34(%esp),%eax
    2a46:	05 34 01 00 00       	add    $0x134,%eax
    2a4b:	89 74 24 04          	mov    %esi,0x4(%esp)
    2a4f:	89 04 24             	mov    %eax,(%esp)
    2a52:	e8 c9 09 00 00       	call   3420 <sig_connect>
    2a57:	8b 86 60 01 00 00    	mov    0x160(%esi),%eax
    2a5d:	89 44 24 08          	mov    %eax,0x8(%esp)
    2a61:	8b 44 24 38          	mov    0x38(%esp),%eax
    2a65:	05 34 01 00 00       	add    $0x134,%eax
    2a6a:	89 74 24 04          	mov    %esi,0x4(%esp)
    2a6e:	89 04 24             	mov    %eax,(%esp)
    2a71:	e8 aa 09 00 00       	call   3420 <sig_connect>
    2a76:	8b 86 64 01 00 00    	mov    0x164(%esi),%eax
    2a7c:	89 44 24 08          	mov    %eax,0x8(%esp)
    2a80:	8b 44 24 2c          	mov    0x2c(%esp),%eax
    2a84:	05 34 01 00 00       	add    $0x134,%eax
    2a89:	89 74 24 04          	mov    %esi,0x4(%esp)
    2a8d:	89 04 24             	mov    %eax,(%esp)
    2a90:	e8 8b 09 00 00       	call   3420 <sig_connect>
    2a95:	8b 86 68 01 00 00    	mov    0x168(%esi),%eax
    2a9b:	89 44 24 08          	mov    %eax,0x8(%esp)
    2a9f:	8b 44 24 30          	mov    0x30(%esp),%eax
    2aa3:	05 34 01 00 00       	add    $0x134,%eax
    2aa8:	89 74 24 04          	mov    %esi,0x4(%esp)
    2aac:	89 04 24             	mov    %eax,(%esp)
    2aaf:	e8 6c 09 00 00       	call   3420 <sig_connect>
    2ab4:	8b 86 6c 01 00 00    	mov    0x16c(%esi),%eax
    2aba:	89 44 24 08          	mov    %eax,0x8(%esp)
    2abe:	8b 44 24 24          	mov    0x24(%esp),%eax
    2ac2:	05 34 01 00 00       	add    $0x134,%eax
    2ac7:	89 74 24 04          	mov    %esi,0x4(%esp)
    2acb:	89 04 24             	mov    %eax,(%esp)
    2ace:	e8 4d 09 00 00       	call   3420 <sig_connect>
    2ad3:	8b 86 70 01 00 00    	mov    0x170(%esi),%eax
    2ad9:	89 44 24 08          	mov    %eax,0x8(%esp)
    2add:	8b 44 24 28          	mov    0x28(%esp),%eax
    2ae1:	05 34 01 00 00       	add    $0x134,%eax
    2ae6:	89 74 24 04          	mov    %esi,0x4(%esp)
    2aea:	89 04 24             	mov    %eax,(%esp)
    2aed:	e8 2e 09 00 00       	call   3420 <sig_connect>
    2af2:	8b 4c 24 20          	mov    0x20(%esp),%ecx
    2af6:	8b 86 74 01 00 00    	mov    0x174(%esi),%eax
    2afc:	89 74 24 04          	mov    %esi,0x4(%esp)
    2b00:	89 44 24 08          	mov    %eax,0x8(%esp)
    2b04:	8d 81 34 01 00 00    	lea    0x134(%ecx),%eax
    2b0a:	89 04 24             	mov    %eax,(%esp)
    2b0d:	e8 0e 09 00 00       	call   3420 <sig_connect>
    2b12:	8b 44 24 48          	mov    0x48(%esp),%eax
    2b16:	c7 44 24 14 04 00 00 	movl   $0x4,0x14(%esp)
    2b1d:	00 
    2b1e:	c7 44 24 10 01 00 00 	movl   $0x1,0x10(%esp)
    2b25:	00 
    2b26:	c7 44 24 0c 00 00 00 	movl   $0x0,0xc(%esp)
    2b2d:	00 
    2b2e:	c7 44 24 08 00 00 00 	movl   $0x0,0x8(%esp)
    2b35:	00 
    2b36:	89 74 24 04          	mov    %esi,0x4(%esp)
    2b3a:	89 04 24             	mov    %eax,(%esp)
    2b3d:	ff 50 68             	call   *0x68(%eax)
    2b40:	8b 44 24 48          	mov    0x48(%esp),%eax
    2b44:	c7 44 24 14 01 00 00 	movl   $0x1,0x14(%esp)
    2b4b:	00 
    2b4c:	c7 44 24 10 01 00 00 	movl   $0x1,0x10(%esp)
    2b53:	00 
    2b54:	c7 44 24 0c 00 00 00 	movl   $0x0,0xc(%esp)
    2b5b:	00 
    2b5c:	c7 44 24 08 01 00 00 	movl   $0x1,0x8(%esp)
    2b63:	00 
    2b64:	89 7c 24 04          	mov    %edi,0x4(%esp)
    2b68:	89 04 24             	mov    %eax,(%esp)
    2b6b:	ff 50 68             	call   *0x68(%eax)
    2b6e:	8b 44 24 58          	mov    0x58(%esp),%eax
    2b72:	89 44 24 04          	mov    %eax,0x4(%esp)
    2b76:	8b 44 24 48          	mov    0x48(%esp),%eax
    2b7a:	c7 44 24 14 01 00 00 	movl   $0x1,0x14(%esp)
    2b81:	00 
    2b82:	c7 44 24 10 01 00 00 	movl   $0x1,0x10(%esp)
    2b89:	00 
    2b8a:	c7 44 24 0c 01 00 00 	movl   $0x1,0xc(%esp)
    2b91:	00 
    2b92:	c7 44 24 08 01 00 00 	movl   $0x1,0x8(%esp)
    2b99:	00 
    2b9a:	89 04 24             	mov    %eax,(%esp)
    2b9d:	ff 50 68             	call   *0x68(%eax)
    2ba0:	8b 44 24 5c          	mov    0x5c(%esp),%eax
    2ba4:	89 44 24 04          	mov    %eax,0x4(%esp)
    2ba8:	8b 44 24 48          	mov    0x48(%esp),%eax
    2bac:	c7 44 24 14 01 00 00 	movl   $0x1,0x14(%esp)
    2bb3:	00 
    2bb4:	c7 44 24 10 01 00 00 	movl   $0x1,0x10(%esp)
    2bbb:	00 
    2bbc:	c7 44 24 0c 02 00 00 	movl   $0x2,0xc(%esp)
    2bc3:	00 
    2bc4:	c7 44 24 08 01 00 00 	movl   $0x1,0x8(%esp)
    2bcb:	00 
    2bcc:	89 04 24             	mov    %eax,(%esp)
    2bcf:	ff 50 68             	call   *0x68(%eax)
    2bd2:	8b 44 24 50          	mov    0x50(%esp),%eax
    2bd6:	89 44 24 04          	mov    %eax,0x4(%esp)
    2bda:	8b 44 24 48          	mov    0x48(%esp),%eax
    2bde:	c7 44 24 14 01 00 00 	movl   $0x1,0x14(%esp)
    2be5:	00 
    2be6:	c7 44 24 10 01 00 00 	movl   $0x1,0x10(%esp)
    2bed:	00 
    2bee:	c7 44 24 0c 00 00 00 	movl   $0x0,0xc(%esp)
    2bf5:	00 
    2bf6:	c7 44 24 08 02 00 00 	movl   $0x2,0x8(%esp)
    2bfd:	00 
    2bfe:	89 04 24             	mov    %eax,(%esp)
    2c01:	ff 50 68             	call   *0x68(%eax)
    2c04:	8b 44 24 54          	mov    0x54(%esp),%eax
    2c08:	89 44 24 04          	mov    %eax,0x4(%esp)
    2c0c:	8b 44 24 48          	mov    0x48(%esp),%eax
    2c10:	c7 44 24 14 01 00 00 	movl   $0x1,0x14(%esp)
    2c17:	00 
    2c18:	c7 44 24 10 01 00 00 	movl   $0x1,0x10(%esp)
    2c1f:	00 
    2c20:	c7 44 24 0c 01 00 00 	movl   $0x1,0xc(%esp)
    2c27:	00 
    2c28:	c7 44 24 08 02 00 00 	movl   $0x2,0x8(%esp)
    2c2f:	00 
    2c30:	89 04 24             	mov    %eax,(%esp)
    2c33:	ff 50 68             	call   *0x68(%eax)
    2c36:	8b 44 24 44          	mov    0x44(%esp),%eax
    2c3a:	89 44 24 04          	mov    %eax,0x4(%esp)
    2c3e:	8b 44 24 48          	mov    0x48(%esp),%eax
    2c42:	c7 44 24 14 01 00 00 	movl   $0x1,0x14(%esp)
    2c49:	00 
    2c4a:	c7 44 24 10 01 00 00 	movl   $0x1,0x10(%esp)
    2c51:	00 
    2c52:	c7 44 24 0c 02 00 00 	movl   $0x2,0xc(%esp)
    2c59:	00 
    2c5a:	c7 44 24 08 02 00 00 	movl   $0x2,0x8(%esp)
    2c61:	00 
    2c62:	89 04 24             	mov    %eax,(%esp)
    2c65:	ff 50 68             	call   *0x68(%eax)
    2c68:	8b 44 24 4c          	mov    0x4c(%esp),%eax
    2c6c:	89 44 24 04          	mov    %eax,0x4(%esp)
    2c70:	8b 44 24 48          	mov    0x48(%esp),%eax
    2c74:	c7 44 24 14 01 00 00 	movl   $0x1,0x14(%esp)
    2c7b:	00 
    2c7c:	c7 44 24 10 01 00 00 	movl   $0x1,0x10(%esp)
    2c83:	00 
    2c84:	c7 44 24 0c 00 00 00 	movl   $0x0,0xc(%esp)
    2c8b:	00 
    2c8c:	c7 44 24 08 03 00 00 	movl   $0x3,0x8(%esp)
    2c93:	00 
    2c94:	89 04 24             	mov    %eax,(%esp)
    2c97:	ff 50 68             	call   *0x68(%eax)
    2c9a:	8b 44 24 3c          	mov    0x3c(%esp),%eax
    2c9e:	89 44 24 04          	mov    %eax,0x4(%esp)
    2ca2:	8b 44 24 48          	mov    0x48(%esp),%eax
    2ca6:	c7 44 24 14 01 00 00 	movl   $0x1,0x14(%esp)
    2cad:	00 
    2cae:	c7 44 24 10 01 00 00 	movl   $0x1,0x10(%esp)
    2cb5:	00 
    2cb6:	c7 44 24 0c 01 00 00 	movl   $0x1,0xc(%esp)
    2cbd:	00 
    2cbe:	c7 44 24 08 03 00 00 	movl   $0x3,0x8(%esp)
    2cc5:	00 
    2cc6:	89 04 24             	mov    %eax,(%esp)
    2cc9:	ff 50 68             	call   *0x68(%eax)
    2ccc:	8b 44 24 40          	mov    0x40(%esp),%eax
    2cd0:	89 44 24 04          	mov    %eax,0x4(%esp)
    2cd4:	8b 44 24 48          	mov    0x48(%esp),%eax
    2cd8:	c7 44 24 14 01 00 00 	movl   $0x1,0x14(%esp)
    2cdf:	00 
    2ce0:	c7 44 24 10 01 00 00 	movl   $0x1,0x10(%esp)
    2ce7:	00 
    2ce8:	c7 44 24 0c 02 00 00 	movl   $0x2,0xc(%esp)
    2cef:	00 
    2cf0:	c7 44 24 08 03 00 00 	movl   $0x3,0x8(%esp)
    2cf7:	00 
    2cf8:	89 04 24             	mov    %eax,(%esp)
    2cfb:	ff 50 68             	call   *0x68(%eax)
    2cfe:	8b 44 24 34          	mov    0x34(%esp),%eax
    2d02:	89 44 24 04          	mov    %eax,0x4(%esp)
    2d06:	8b 44 24 48          	mov    0x48(%esp),%eax
    2d0a:	c7 44 24 14 01 00 00 	movl   $0x1,0x14(%esp)
    2d11:	00 
    2d12:	c7 44 24 10 01 00 00 	movl   $0x1,0x10(%esp)
    2d19:	00 
    2d1a:	c7 44 24 0c 00 00 00 	movl   $0x0,0xc(%esp)
    2d21:	00 
    2d22:	c7 44 24 08 04 00 00 	movl   $0x4,0x8(%esp)
    2d29:	00 
    2d2a:	89 04 24             	mov    %eax,(%esp)
    2d2d:	ff 50 68             	call   *0x68(%eax)
    2d30:	8b 44 24 38          	mov    0x38(%esp),%eax
    2d34:	89 44 24 04          	mov    %eax,0x4(%esp)
    2d38:	8b 44 24 48          	mov    0x48(%esp),%eax
    2d3c:	c7 44 24 14 01 00 00 	movl   $0x1,0x14(%esp)
    2d43:	00 
    2d44:	c7 44 24 10 01 00 00 	movl   $0x1,0x10(%esp)
    2d4b:	00 
    2d4c:	c7 44 24 0c 03 00 00 	movl   $0x3,0xc(%esp)
    2d53:	00 
    2d54:	c7 44 24 08 01 00 00 	movl   $0x1,0x8(%esp)
    2d5b:	00 
    2d5c:	89 04 24             	mov    %eax,(%esp)
    2d5f:	ff 50 68             	call   *0x68(%eax)
    2d62:	8b 44 24 2c          	mov    0x2c(%esp),%eax
    2d66:	89 44 24 04          	mov    %eax,0x4(%esp)
    2d6a:	8b 44 24 48          	mov    0x48(%esp),%eax
    2d6e:	c7 44 24 14 01 00 00 	movl   $0x1,0x14(%esp)
    2d75:	00 
    2d76:	c7 44 24 10 01 00 00 	movl   $0x1,0x10(%esp)
    2d7d:	00 
    2d7e:	c7 44 24 0c 03 00 00 	movl   $0x3,0xc(%esp)
    2d85:	00 
    2d86:	c7 44 24 08 02 00 00 	movl   $0x2,0x8(%esp)
    2d8d:	00 
    2d8e:	89 04 24             	mov    %eax,(%esp)
    2d91:	ff 50 68             	call   *0x68(%eax)
    2d94:	8b 44 24 30          	mov    0x30(%esp),%eax
    2d98:	89 44 24 04          	mov    %eax,0x4(%esp)
    2d9c:	8b 44 24 48          	mov    0x48(%esp),%eax
    2da0:	c7 44 24 14 01 00 00 	movl   $0x1,0x14(%esp)
    2da7:	00 
    2da8:	c7 44 24 10 01 00 00 	movl   $0x1,0x10(%esp)
    2daf:	00 
    2db0:	c7 44 24 0c 03 00 00 	movl   $0x3,0xc(%esp)
    2db7:	00 
    2db8:	c7 44 24 08 03 00 00 	movl   $0x3,0x8(%esp)
    2dbf:	00 
    2dc0:	89 04 24             	mov    %eax,(%esp)
    2dc3:	ff 50 68             	call   *0x68(%eax)
    2dc6:	8b 44 24 24          	mov    0x24(%esp),%eax
    2dca:	89 44 24 04          	mov    %eax,0x4(%esp)
    2dce:	8b 44 24 48          	mov    0x48(%esp),%eax
    2dd2:	c7 44 24 14 01 00 00 	movl   $0x1,0x14(%esp)
    2dd9:	00 
    2dda:	c7 44 24 10 01 00 00 	movl   $0x1,0x10(%esp)
    2de1:	00 
    2de2:	c7 44 24 0c 03 00 00 	movl   $0x3,0xc(%esp)
    2de9:	00 
    2dea:	c7 44 24 08 04 00 00 	movl   $0x4,0x8(%esp)
    2df1:	00 
    2df2:	89 04 24             	mov    %eax,(%esp)
    2df5:	ff 50 68             	call   *0x68(%eax)
    2df8:	8b 44 24 28          	mov    0x28(%esp),%eax
    2dfc:	89 44 24 04          	mov    %eax,0x4(%esp)
    2e00:	8b 44 24 48          	mov    0x48(%esp),%eax
    2e04:	c7 44 24 14 01 00 00 	movl   $0x1,0x14(%esp)
    2e0b:	00 
    2e0c:	c7 44 24 10 01 00 00 	movl   $0x1,0x10(%esp)
    2e13:	00 
    2e14:	c7 44 24 0c 02 00 00 	movl   $0x2,0xc(%esp)
    2e1b:	00 
    2e1c:	c7 44 24 08 04 00 00 	movl   $0x4,0x8(%esp)
    2e23:	00 
    2e24:	89 04 24             	mov    %eax,(%esp)
    2e27:	ff 50 68             	call   *0x68(%eax)
    2e2a:	8b 4c 24 20          	mov    0x20(%esp),%ecx
    2e2e:	8b 44 24 48          	mov    0x48(%esp),%eax
    2e32:	89 4c 24 04          	mov    %ecx,0x4(%esp)
    2e36:	c7 44 24 14 01 00 00 	movl   $0x1,0x14(%esp)
    2e3d:	00 
    2e3e:	c7 44 24 10 01 00 00 	movl   $0x1,0x10(%esp)
    2e45:	00 
    2e46:	c7 44 24 0c 01 00 00 	movl   $0x1,0xc(%esp)
    2e4d:	00 
    2e4e:	c7 44 24 08 04 00 00 	movl   $0x4,0x8(%esp)
    2e55:	00 
    2e56:	89 04 24             	mov    %eax,(%esp)
    2e59:	ff 50 68             	call   *0x68(%eax)
    2e5c:	c7 44 24 08 90 01 00 	movl   $0x190,0x8(%esp)
    2e63:	00 
    2e64:	c7 44 24 04 90 01 00 	movl   $0x190,0x4(%esp)
    2e6b:	00 
    2e6c:	89 1c 24             	mov    %ebx,(%esp)
    2e6f:	e8 fc 2e 00 00       	call   5d70 <window_resize>
    2e74:	89 1c 24             	mov    %ebx,(%esp)
    2e77:	e8 e4 2f 00 00       	call   5e60 <window_exec>
    2e7c:	c7 04 24 00 00 00 00 	movl   $0x0,(%esp)
    2e83:	e8 c8 e0 00 00       	call   10f50 <task_retval>
    2e88:	c7 04 24 01 00 00 00 	movl   $0x1,(%esp)
    2e8f:	e8 9c bf 00 00       	call   ee30 <fibril_switch>
    2e94:	eb 14                	jmp    2eaa <main+0xaba>
    2e96:	89 1c 24             	mov    %ebx,(%esp)
    2e99:	e8 72 30 00 00       	call   5f10 <window_close>
    2e9e:	c7 04 24 49 53 02 00 	movl   $0x25349,(%esp)
    2ea5:	e8 e6 06 01 00       	call   13590 <printf>
    2eaa:	8d 65 f4             	lea    -0xc(%ebp),%esp
    2ead:	b8 01 00 00 00       	mov    $0x1,%eax
    2eb2:	5b                   	pop    %ebx
    2eb3:	5e                   	pop    %esi
    2eb4:	5f                   	pop    %edi
    2eb5:	5d                   	pop    %ebp
    2eb6:	c3                   	ret    
    2eb7:	c7 04 24 84 53 02 00 	movl   $0x25384,(%esp)
    2ebe:	e8 cd 06 01 00       	call   13590 <printf>
    2ec3:	eb e5                	jmp    2eaa <main+0xaba>
    2ec5:	c7 04 24 2b 53 02 00 	movl   $0x2532b,(%esp)
    2ecc:	e8 bf 06 01 00       	call   13590 <printf>
    2ed1:	eb d7                	jmp    2eaa <main+0xaba>
    2ed3:	89 34 24             	mov    %esi,(%esp)
    2ed6:	31 f6                	xor    %esi,%esi
    2ed8:	e8 03 5a 01 00       	call   188e0 <free>
    2edd:	e9 85 f6 ff ff       	jmp    2567 <main+0x177>
    2ee2:	66 90                	xchg   %ax,%ax
    2ee4:	66 90                	xchg   %ax,%ax
    2ee6:	66 90                	xchg   %ax,%ax
    2ee8:	66 90                	xchg   %ax,%ax
    2eea:	66 90                	xchg   %ax,%ax
    2eec:	66 90                	xchg   %ax,%ax
    2eee:	66 90                	xchg   %ax,%ax

00002ef0 <button_reconfigure>:
    2ef0:	55                   	push   %ebp
    2ef1:	89 e5                	mov    %esp,%ebp
    2ef3:	5d                   	pop    %ebp
    2ef4:	c3                   	ret    
    2ef5:	8d 74 26 00          	lea    0x0(%esi,%eiz,1),%esi
    2ef9:	8d bc 27 00 00 00 00 	lea    0x0(%edi,%eiz,1),%edi

00002f00 <paint_internal>:
    2f00:	55                   	push   %ebp
    2f01:	89 e5                	mov    %esp,%ebp
    2f03:	57                   	push   %edi
    2f04:	56                   	push   %esi
    2f05:	53                   	push   %ebx
    2f06:	83 ec 7c             	sub    $0x7c,%esp
    2f09:	89 c7                	mov    %eax,%edi
    2f0b:	8b 40 14             	mov    0x14(%eax),%eax
    2f0e:	89 04 24             	mov    %eax,(%esp)
    2f11:	e8 aa 2f 00 00       	call   5ec0 <window_claim>
    2f16:	85 c0                	test   %eax,%eax
    2f18:	0f 84 4a 01 00 00    	je     3068 <paint_internal+0x168>
    2f1e:	8d 5d b0             	lea    -0x50(%ebp),%ebx
    2f21:	89 44 24 04          	mov    %eax,0x4(%esp)
    2f25:	89 1c 24             	mov    %ebx,(%esp)
    2f28:	e8 03 30 00 00       	call   5f30 <drawctx_init>
    2f2d:	8d 87 bc 00 00 00    	lea    0xbc(%edi),%eax
    2f33:	89 44 24 04          	mov    %eax,0x4(%esp)
    2f37:	89 1c 24             	mov    %ebx,(%esp)
    2f3a:	89 45 a4             	mov    %eax,-0x5c(%ebp)
    2f3d:	e8 de 31 00 00       	call   6120 <drawctx_set_source>
    2f42:	8b 47 24             	mov    0x24(%edi),%eax
    2f45:	89 1c 24             	mov    %ebx,(%esp)
    2f48:	89 44 24 10          	mov    %eax,0x10(%esp)
    2f4c:	8b 47 20             	mov    0x20(%edi),%eax
    2f4f:	89 44 24 0c          	mov    %eax,0xc(%esp)
    2f53:	8b 47 1c             	mov    0x1c(%edi),%eax
    2f56:	89 44 24 08          	mov    %eax,0x8(%esp)
    2f5a:	8b 47 18             	mov    0x18(%edi),%eax
    2f5d:	89 44 24 04          	mov    %eax,0x4(%esp)
    2f61:	e8 da 31 00 00       	call   6140 <drawctx_transfer>
    2f66:	83 7f 20 05          	cmpl   $0x5,0x20(%edi)
    2f6a:	76 0a                	jbe    2f76 <paint_internal+0x76>
    2f6c:	83 7f 24 05          	cmpl   $0x5,0x24(%edi)
    2f70:	0f 87 aa 00 00 00    	ja     3020 <paint_internal+0x120>
    2f76:	8d 45 ac             	lea    -0x54(%ebp),%eax
    2f79:	8d b7 24 01 00 00    	lea    0x124(%edi),%esi
    2f7f:	89 44 24 0c          	mov    %eax,0xc(%esp)
    2f83:	8d 45 a8             	lea    -0x58(%ebp),%eax
    2f86:	89 44 24 08          	mov    %eax,0x8(%esp)
    2f8a:	8b 87 20 01 00 00    	mov    0x120(%edi),%eax
    2f90:	89 44 24 04          	mov    %eax,0x4(%esp)
    2f94:	89 34 24             	mov    %esi,(%esp)
    2f97:	e8 d4 35 00 00       	call   6570 <font_get_box>
    2f9c:	8b 45 a8             	mov    -0x58(%ebp),%eax
    2f9f:	39 47 20             	cmp    %eax,0x20(%edi)
    2fa2:	72 08                	jb     2fac <paint_internal+0xac>
    2fa4:	8b 45 ac             	mov    -0x54(%ebp),%eax
    2fa7:	39 47 24             	cmp    %eax,0x24(%edi)
    2faa:	73 14                	jae    2fc0 <paint_internal+0xc0>
    2fac:	8b 47 14             	mov    0x14(%edi),%eax
    2faf:	89 04 24             	mov    %eax,(%esp)
    2fb2:	e8 39 2f 00 00       	call   5ef0 <window_yield>
    2fb7:	83 c4 7c             	add    $0x7c,%esp
    2fba:	5b                   	pop    %ebx
    2fbb:	5e                   	pop    %esi
    2fbc:	5f                   	pop    %edi
    2fbd:	5d                   	pop    %ebp
    2fbe:	c3                   	ret    
    2fbf:	90                   	nop
    2fc0:	8b 45 a4             	mov    -0x5c(%ebp),%eax
    2fc3:	89 1c 24             	mov    %ebx,(%esp)
    2fc6:	89 44 24 04          	mov    %eax,0x4(%esp)
    2fca:	e8 51 31 00 00       	call   6120 <drawctx_set_source>
    2fcf:	89 74 24 04          	mov    %esi,0x4(%esp)
    2fd3:	89 1c 24             	mov    %ebx,(%esp)
    2fd6:	e8 55 31 00 00       	call   6130 <drawctx_set_font>
    2fdb:	8b 55 a8             	mov    -0x58(%ebp),%edx
    2fde:	8b 47 20             	mov    0x20(%edi),%eax
    2fe1:	8b 4f 18             	mov    0x18(%edi),%ecx
    2fe4:	29 d0                	sub    %edx,%eax
    2fe6:	8b 75 ac             	mov    -0x54(%ebp),%esi
    2fe9:	d1 e8                	shr    %eax
    2feb:	8b 57 1c             	mov    0x1c(%edi),%edx
    2fee:	01 c8                	add    %ecx,%eax
    2ff0:	8b 4f 24             	mov    0x24(%edi),%ecx
    2ff3:	29 f1                	sub    %esi,%ecx
    2ff5:	8b b7 20 01 00 00    	mov    0x120(%edi),%esi
    2ffb:	d1 e9                	shr    %ecx
    2ffd:	01 d1                	add    %edx,%ecx
    2fff:	85 f6                	test   %esi,%esi
    3001:	74 a9                	je     2fac <paint_internal+0xac>
    3003:	89 4c 24 0c          	mov    %ecx,0xc(%esp)
    3007:	89 44 24 08          	mov    %eax,0x8(%esp)
    300b:	89 74 24 04          	mov    %esi,0x4(%esp)
    300f:	89 1c 24             	mov    %ebx,(%esp)
    3012:	e8 d9 33 00 00       	call   63f0 <drawctx_print>
    3017:	eb 93                	jmp    2fac <paint_internal+0xac>
    3019:	8d b4 26 00 00 00 00 	lea    0x0(%esi,%eiz,1),%esi
    3020:	8d 47 58             	lea    0x58(%edi),%eax
    3023:	89 1c 24             	mov    %ebx,(%esp)
    3026:	89 44 24 04          	mov    %eax,0x4(%esp)
    302a:	e8 f1 30 00 00       	call   6120 <drawctx_set_source>
    302f:	8b 47 24             	mov    0x24(%edi),%eax
    3032:	83 e8 06             	sub    $0x6,%eax
    3035:	89 1c 24             	mov    %ebx,(%esp)
    3038:	89 44 24 10          	mov    %eax,0x10(%esp)
    303c:	8b 47 20             	mov    0x20(%edi),%eax
    303f:	83 e8 06             	sub    $0x6,%eax
    3042:	89 44 24 0c          	mov    %eax,0xc(%esp)
    3046:	8b 47 1c             	mov    0x1c(%edi),%eax
    3049:	83 c0 03             	add    $0x3,%eax
    304c:	89 44 24 08          	mov    %eax,0x8(%esp)
    3050:	8b 47 18             	mov    0x18(%edi),%eax
    3053:	83 c0 03             	add    $0x3,%eax
    3056:	89 44 24 04          	mov    %eax,0x4(%esp)
    305a:	e8 e1 30 00 00       	call   6140 <drawctx_transfer>
    305f:	e9 12 ff ff ff       	jmp    2f76 <paint_internal+0x76>
    3064:	8d 74 26 00          	lea    0x0(%esi,%eiz,1),%esi
    3068:	8b 4f 14             	mov    0x14(%edi),%ecx
    306b:	89 45 a0             	mov    %eax,-0x60(%ebp)
    306e:	89 0c 24             	mov    %ecx,(%esp)
    3071:	e8 7a 2e 00 00       	call   5ef0 <window_yield>
    3076:	8b 45 a0             	mov    -0x60(%ebp),%eax
    3079:	e9 a0 fe ff ff       	jmp    2f1e <paint_internal+0x1e>
    307e:	66 90                	xchg   %ax,%ax

00003080 <button_repaint>:
    3080:	55                   	push   %ebp
    3081:	89 e5                	mov    %esp,%ebp
    3083:	53                   	push   %ebx
    3084:	51                   	push   %ecx
    3085:	8b 5d 08             	mov    0x8(%ebp),%ebx
    3088:	89 d8                	mov    %ebx,%eax
    308a:	e8 71 fe ff ff       	call   2f00 <paint_internal>
    308f:	8b 43 14             	mov    0x14(%ebx),%eax
    3092:	89 45 08             	mov    %eax,0x8(%ebp)
    3095:	5b                   	pop    %ebx
    3096:	5b                   	pop    %ebx
    3097:	5d                   	pop    %ebp
    3098:	e9 73 2d 00 00       	jmp    5e10 <window_damage>
    309d:	8d 76 00             	lea    0x0(%esi),%esi

000030a0 <button_rearrange>:
    30a0:	55                   	push   %ebp
    30a1:	89 e5                	mov    %esp,%ebp
    30a3:	53                   	push   %ebx
    30a4:	83 ec 24             	sub    $0x24,%esp
    30a7:	8b 45 18             	mov    0x18(%ebp),%eax
    30aa:	8b 5d 08             	mov    0x8(%ebp),%ebx
    30ad:	89 44 24 10          	mov    %eax,0x10(%esp)
    30b1:	8b 45 14             	mov    0x14(%ebp),%eax
    30b4:	89 44 24 0c          	mov    %eax,0xc(%esp)
    30b8:	8b 45 10             	mov    0x10(%ebp),%eax
    30bb:	89 44 24 08          	mov    %eax,0x8(%esp)
    30bf:	8b 45 0c             	mov    0xc(%ebp),%eax
    30c2:	89 44 24 04          	mov    %eax,0x4(%esp)
    30c6:	89 1c 24             	mov    %ebx,(%esp)
    30c9:	e8 f2 19 00 00       	call   4ac0 <widget_modify>
    30ce:	83 c4 24             	add    $0x24,%esp
    30d1:	89 d8                	mov    %ebx,%eax
    30d3:	5b                   	pop    %ebx
    30d4:	5d                   	pop    %ebp
    30d5:	e9 26 fe ff ff       	jmp    2f00 <paint_internal>
    30da:	8d b6 00 00 00 00    	lea    0x0(%esi),%esi

000030e0 <button_handle_position_event>:
    30e0:	55                   	push   %ebp
    30e1:	89 e5                	mov    %esp,%ebp
    30e3:	8b 45 08             	mov    0x8(%ebp),%eax
    30e6:	83 7d 14 01          	cmpl   $0x1,0x14(%ebp)
    30ea:	8b 50 14             	mov    0x14(%eax),%edx
    30ed:	89 82 8c 00 00 00    	mov    %eax,0x8c(%edx)
    30f3:	74 03                	je     30f8 <button_handle_position_event+0x18>
    30f5:	5d                   	pop    %ebp
    30f6:	c3                   	ret    
    30f7:	90                   	nop
    30f8:	83 7d 10 02          	cmpl   $0x2,0x10(%ebp)
    30fc:	75 f7                	jne    30f5 <button_handle_position_event+0x15>
    30fe:	05 34 01 00 00       	add    $0x134,%eax
    3103:	c7 45 0c 00 00 00 00 	movl   $0x0,0xc(%ebp)
    310a:	89 45 08             	mov    %eax,0x8(%ebp)
    310d:	5d                   	pop    %ebp
    310e:	e9 dd 05 00 00       	jmp    36f0 <sig_send>
    3113:	8d b6 00 00 00 00    	lea    0x0(%esi),%esi
    3119:	8d bc 27 00 00 00 00 	lea    0x0(%edi,%eiz,1),%edi

00003120 <button_handle_keyboard_event>:
    3120:	55                   	push   %ebp
    3121:	89 e5                	mov    %esp,%ebp
    3123:	8b 45 08             	mov    0x8(%ebp),%eax
    3126:	83 7d 18 29          	cmpl   $0x29,0x18(%ebp)
    312a:	74 04                	je     3130 <button_handle_keyboard_event+0x10>
    312c:	5d                   	pop    %ebp
    312d:	c3                   	ret    
    312e:	66 90                	xchg   %ax,%ax
    3130:	8b 55 14             	mov    0x14(%ebp),%edx
    3133:	85 d2                	test   %edx,%edx
    3135:	75 f5                	jne    312c <button_handle_keyboard_event+0xc>
    3137:	05 34 01 00 00       	add    $0x134,%eax
    313c:	c7 45 0c 00 00 00 00 	movl   $0x0,0xc(%ebp)
    3143:	89 45 08             	mov    %eax,0x8(%ebp)
    3146:	5d                   	pop    %ebp
    3147:	e9 a4 05 00 00       	jmp    36f0 <sig_send>
    314c:	8d 74 26 00          	lea    0x0(%esi,%eiz,1),%esi

00003150 <button_destroy>:
    3150:	55                   	push   %ebp
    3151:	89 e5                	mov    %esp,%ebp
    3153:	53                   	push   %ebx
    3154:	83 ec 14             	sub    $0x14,%esp
    3157:	8b 5d 08             	mov    0x8(%ebp),%ebx
    315a:	89 1c 24             	mov    %ebx,(%esp)
    315d:	e8 7e 19 00 00       	call   4ae0 <widget_deinit>
    3162:	8b 83 20 01 00 00    	mov    0x120(%ebx),%eax
    3168:	89 04 24             	mov    %eax,(%esp)
    316b:	e8 70 57 01 00       	call   188e0 <free>
    3170:	8d 83 24 01 00 00    	lea    0x124(%ebx),%eax
    3176:	89 04 24             	mov    %eax,(%esp)
    3179:	e8 82 33 00 00       	call   6500 <font_release>
    317e:	89 5d 08             	mov    %ebx,0x8(%ebp)
    3181:	83 c4 14             	add    $0x14,%esp
    3184:	5b                   	pop    %ebx
    3185:	5d                   	pop    %ebp
    3186:	e9 55 57 01 00       	jmp    188e0 <free>
    318b:	90                   	nop
    318c:	8d 74 26 00          	lea    0x0(%esi,%eiz,1),%esi

00003190 <deinit_button>:
    3190:	55                   	push   %ebp
    3191:	89 e5                	mov    %esp,%ebp
    3193:	53                   	push   %ebx
    3194:	83 ec 14             	sub    $0x14,%esp
    3197:	8b 5d 08             	mov    0x8(%ebp),%ebx
    319a:	89 1c 24             	mov    %ebx,(%esp)
    319d:	e8 3e 19 00 00       	call   4ae0 <widget_deinit>
    31a2:	8b 83 20 01 00 00    	mov    0x120(%ebx),%eax
    31a8:	89 04 24             	mov    %eax,(%esp)
    31ab:	81 c3 24 01 00 00    	add    $0x124,%ebx
    31b1:	e8 2a 57 01 00       	call   188e0 <free>
    31b6:	89 5d 08             	mov    %ebx,0x8(%ebp)
    31b9:	83 c4 14             	add    $0x14,%esp
    31bc:	5b                   	pop    %ebx
    31bd:	5d                   	pop    %ebp
    31be:	e9 3d 33 00 00       	jmp    6500 <font_release>
    31c3:	8d b6 00 00 00 00    	lea    0x0(%esi),%esi
    31c9:	8d bc 27 00 00 00 00 	lea    0x0(%edi,%eiz,1),%edi

000031d0 <init_button>:
    31d0:	55                   	push   %ebp
    31d1:	89 e5                	mov    %esp,%ebp
    31d3:	57                   	push   %edi
    31d4:	56                   	push   %esi
    31d5:	53                   	push   %ebx
    31d6:	83 ec 2c             	sub    $0x2c,%esp
    31d9:	8b 5d 08             	mov    0x8(%ebp),%ebx
    31dc:	8b 45 0c             	mov    0xc(%ebp),%eax
    31df:	89 44 24 04          	mov    %eax,0x4(%esp)
    31e3:	89 1c 24             	mov    %ebx,(%esp)
    31e6:	8d 73 58             	lea    0x58(%ebx),%esi
    31e9:	8b 7d 14             	mov    0x14(%ebp),%edi
    31ec:	e8 2f 18 00 00       	call   4a20 <widget_init>
    31f1:	c7 43 40 50 31 00 00 	movl   $0x3150,0x40(%ebx)
    31f8:	c7 43 44 f0 2e 00 00 	movl   $0x2ef0,0x44(%ebx)
    31ff:	c7 43 48 a0 30 00 00 	movl   $0x30a0,0x48(%ebx)
    3206:	c7 43 4c 80 30 00 00 	movl   $0x3080,0x4c(%ebx)
    320d:	c7 43 50 20 31 00 00 	movl   $0x3120,0x50(%ebx)
    3214:	c7 43 54 e0 30 00 00 	movl   $0x30e0,0x54(%ebx)
    321b:	89 34 24             	mov    %esi,(%esp)
    321e:	e8 5d 36 00 00       	call   6880 <source_init>
    3223:	8b 55 18             	mov    0x18(%ebp),%edx
    3226:	89 54 24 04          	mov    %edx,0x4(%esp)
    322a:	89 34 24             	mov    %esi,(%esp)
    322d:	8d b3 bc 00 00 00    	lea    0xbc(%ebx),%esi
    3233:	e8 d8 36 00 00       	call   6910 <source_set_color>
    3238:	89 34 24             	mov    %esi,(%esp)
    323b:	e8 40 36 00 00       	call   6880 <source_init>
    3240:	8b 55 1c             	mov    0x1c(%ebp),%edx
    3243:	89 54 24 04          	mov    %edx,0x4(%esp)
    3247:	89 34 24             	mov    %esi,(%esp)
    324a:	e8 c1 36 00 00       	call   6910 <source_set_color>
    324f:	8b 4d 10             	mov    0x10(%ebp),%ecx
    3252:	85 c9                	test   %ecx,%ecx
    3254:	0f 84 7e 00 00 00    	je     32d8 <init_button+0x108>
    325a:	8b 45 10             	mov    0x10(%ebp),%eax
    325d:	89 04 24             	mov    %eax,(%esp)
    3260:	e8 1b b1 00 00       	call   e380 <str_dup>
    3265:	89 83 20 01 00 00    	mov    %eax,0x120(%ebx)
    326b:	8d b3 24 01 00 00    	lea    0x124(%ebx),%esi
    3271:	81 e7 ff ff 00 00    	and    $0xffff,%edi
    3277:	89 7c 24 0c          	mov    %edi,0xc(%esp)
    327b:	89 34 24             	mov    %esi,(%esp)
    327e:	c7 44 24 08 00 00 00 	movl   $0x0,0x8(%esp)
    3285:	00 
    3286:	c7 44 24 04 00 00 00 	movl   $0x0,0x4(%esp)
    328d:	00 
    328e:	e8 ad 31 00 00       	call   6440 <font_init>
    3293:	8d 45 e4             	lea    -0x1c(%ebp),%eax
    3296:	89 44 24 0c          	mov    %eax,0xc(%esp)
    329a:	8d 45 e0             	lea    -0x20(%ebp),%eax
    329d:	89 44 24 08          	mov    %eax,0x8(%esp)
    32a1:	8b 83 20 01 00 00    	mov    0x120(%ebx),%eax
    32a7:	89 34 24             	mov    %esi,(%esp)
    32aa:	89 44 24 04          	mov    %eax,0x4(%esp)
    32ae:	e8 bd 32 00 00       	call   6570 <font_get_box>
    32b3:	8b 55 e0             	mov    -0x20(%ebp),%edx
    32b6:	8d 42 08             	lea    0x8(%edx),%eax
    32b9:	83 c2 1c             	add    $0x1c,%edx
    32bc:	89 43 28             	mov    %eax,0x28(%ebx)
    32bf:	8b 45 e4             	mov    -0x1c(%ebp),%eax
    32c2:	83 c0 08             	add    $0x8,%eax
    32c5:	89 53 30             	mov    %edx,0x30(%ebx)
    32c8:	89 43 2c             	mov    %eax,0x2c(%ebx)
    32cb:	89 43 34             	mov    %eax,0x34(%ebx)
    32ce:	83 c4 2c             	add    $0x2c,%esp
    32d1:	b0 01                	mov    $0x1,%al
    32d3:	5b                   	pop    %ebx
    32d4:	5e                   	pop    %esi
    32d5:	5f                   	pop    %edi
    32d6:	5d                   	pop    %ebp
    32d7:	c3                   	ret    
    32d8:	c7 83 20 01 00 00 00 	movl   $0x0,0x120(%ebx)
    32df:	00 00 00 
    32e2:	eb 87                	jmp    326b <init_button+0x9b>
    32e4:	8d b6 00 00 00 00    	lea    0x0(%esi),%esi
    32ea:	8d bf 00 00 00 00    	lea    0x0(%edi),%edi

000032f0 <create_button>:
    32f0:	55                   	push   %ebp
    32f1:	89 e5                	mov    %esp,%ebp
    32f3:	57                   	push   %edi
    32f4:	56                   	push   %esi
    32f5:	53                   	push   %ebx
    32f6:	83 ec 2c             	sub    $0x2c,%esp
    32f9:	8b 7d 10             	mov    0x10(%ebp),%edi
    32fc:	c7 04 24 38 01 00 00 	movl   $0x138,(%esp)
    3303:	e8 c8 54 01 00       	call   187d0 <malloc>
    3308:	89 c3                	mov    %eax,%ebx
    330a:	85 c0                	test   %eax,%eax
    330c:	0f 84 eb 00 00 00    	je     33fd <create_button+0x10d>
    3312:	8b 45 08             	mov    0x8(%ebp),%eax
    3315:	8d 73 58             	lea    0x58(%ebx),%esi
    3318:	89 44 24 04          	mov    %eax,0x4(%esp)
    331c:	89 1c 24             	mov    %ebx,(%esp)
    331f:	e8 fc 16 00 00       	call   4a20 <widget_init>
    3324:	89 34 24             	mov    %esi,(%esp)
    3327:	c7 43 40 50 31 00 00 	movl   $0x3150,0x40(%ebx)
    332e:	c7 43 44 f0 2e 00 00 	movl   $0x2ef0,0x44(%ebx)
    3335:	c7 43 48 a0 30 00 00 	movl   $0x30a0,0x48(%ebx)
    333c:	c7 43 4c 80 30 00 00 	movl   $0x3080,0x4c(%ebx)
    3343:	c7 43 50 20 31 00 00 	movl   $0x3120,0x50(%ebx)
    334a:	c7 43 54 e0 30 00 00 	movl   $0x30e0,0x54(%ebx)
    3351:	e8 2a 35 00 00       	call   6880 <source_init>
    3356:	8b 55 14             	mov    0x14(%ebp),%edx
    3359:	89 54 24 04          	mov    %edx,0x4(%esp)
    335d:	89 34 24             	mov    %esi,(%esp)
    3360:	8d b3 bc 00 00 00    	lea    0xbc(%ebx),%esi
    3366:	e8 a5 35 00 00       	call   6910 <source_set_color>
    336b:	89 34 24             	mov    %esi,(%esp)
    336e:	e8 0d 35 00 00       	call   6880 <source_init>
    3373:	8b 55 18             	mov    0x18(%ebp),%edx
    3376:	89 34 24             	mov    %esi,(%esp)
    3379:	89 54 24 04          	mov    %edx,0x4(%esp)
    337d:	e8 8e 35 00 00       	call   6910 <source_set_color>
    3382:	8b 75 0c             	mov    0xc(%ebp),%esi
    3385:	85 f6                	test   %esi,%esi
    3387:	74 7f                	je     3408 <create_button+0x118>
    3389:	8b 45 0c             	mov    0xc(%ebp),%eax
    338c:	89 04 24             	mov    %eax,(%esp)
    338f:	e8 ec af 00 00       	call   e380 <str_dup>
    3394:	89 83 20 01 00 00    	mov    %eax,0x120(%ebx)
    339a:	8d b3 24 01 00 00    	lea    0x124(%ebx),%esi
    33a0:	81 e7 ff ff 00 00    	and    $0xffff,%edi
    33a6:	89 7c 24 0c          	mov    %edi,0xc(%esp)
    33aa:	c7 44 24 08 00 00 00 	movl   $0x0,0x8(%esp)
    33b1:	00 
    33b2:	c7 44 24 04 00 00 00 	movl   $0x0,0x4(%esp)
    33b9:	00 
    33ba:	89 34 24             	mov    %esi,(%esp)
    33bd:	e8 7e 30 00 00       	call   6440 <font_init>
    33c2:	8d 45 e4             	lea    -0x1c(%ebp),%eax
    33c5:	89 44 24 0c          	mov    %eax,0xc(%esp)
    33c9:	8d 45 e0             	lea    -0x20(%ebp),%eax
    33cc:	89 44 24 08          	mov    %eax,0x8(%esp)
    33d0:	8b 83 20 01 00 00    	mov    0x120(%ebx),%eax
    33d6:	89 44 24 04          	mov    %eax,0x4(%esp)
    33da:	89 34 24             	mov    %esi,(%esp)
    33dd:	e8 8e 31 00 00       	call   6570 <font_get_box>
    33e2:	8b 55 e0             	mov    -0x20(%ebp),%edx
    33e5:	8d 42 08             	lea    0x8(%edx),%eax
    33e8:	83 c2 1c             	add    $0x1c,%edx
    33eb:	89 43 28             	mov    %eax,0x28(%ebx)
    33ee:	8b 45 e4             	mov    -0x1c(%ebp),%eax
    33f1:	83 c0 08             	add    $0x8,%eax
    33f4:	89 53 30             	mov    %edx,0x30(%ebx)
    33f7:	89 43 2c             	mov    %eax,0x2c(%ebx)
    33fa:	89 43 34             	mov    %eax,0x34(%ebx)
    33fd:	83 c4 2c             	add    $0x2c,%esp
    3400:	89 d8                	mov    %ebx,%eax
    3402:	5b                   	pop    %ebx
    3403:	5e                   	pop    %esi
    3404:	5f                   	pop    %edi
    3405:	5d                   	pop    %ebp
    3406:	c3                   	ret    
    3407:	90                   	nop
    3408:	c7 83 20 01 00 00 00 	movl   $0x0,0x120(%ebx)
    340f:	00 00 00 
    3412:	eb 86                	jmp    339a <create_button+0xaa>
    3414:	66 90                	xchg   %ax,%ax
    3416:	66 90                	xchg   %ax,%ax
    3418:	66 90                	xchg   %ax,%ax
    341a:	66 90                	xchg   %ax,%ax
    341c:	66 90                	xchg   %ax,%ax
    341e:	66 90                	xchg   %ax,%ax

00003420 <sig_connect>:
    3420:	55                   	push   %ebp
    3421:	89 e5                	mov    %esp,%ebp
    3423:	57                   	push   %edi
    3424:	56                   	push   %esi
    3425:	53                   	push   %ebx
    3426:	83 ec 2c             	sub    $0x2c,%esp
    3429:	8b 75 08             	mov    0x8(%ebp),%esi
    342c:	8b 7d 0c             	mov    0xc(%ebp),%edi
    342f:	c7 04 24 e4 7d 02 00 	movl   $0x27de4,(%esp)
    3436:	8b 5d 10             	mov    0x10(%ebp),%ebx
    3439:	e8 42 c5 00 00       	call   f980 <fibril_rwlock_write_lock>
    343e:	a1 fc 7d 02 00       	mov    0x27dfc,%eax
    3443:	3d f8 7d 02 00       	cmp    $0x27df8,%eax
    3448:	75 10                	jne    345a <sig_connect+0x3a>
    344a:	eb 54                	jmp    34a0 <sig_connect+0x80>
    344c:	8d 74 26 00          	lea    0x0(%esi,%eiz,1),%esi
    3450:	8b 40 04             	mov    0x4(%eax),%eax
    3453:	3d f8 7d 02 00       	cmp    $0x27df8,%eax
    3458:	74 46                	je     34a0 <sig_connect+0x80>
    345a:	39 70 08             	cmp    %esi,0x8(%eax)
    345d:	75 f1                	jne    3450 <sig_connect+0x30>
    345f:	89 c1                	mov    %eax,%ecx
    3461:	8d 70 0c             	lea    0xc(%eax),%esi
    3464:	8b 51 10             	mov    0x10(%ecx),%edx
    3467:	39 f2                	cmp    %esi,%edx
    3469:	75 0c                	jne    3477 <sig_connect+0x57>
    346b:	eb 6b                	jmp    34d8 <sig_connect+0xb8>
    346d:	8d 76 00             	lea    0x0(%esi),%esi
    3470:	8b 52 04             	mov    0x4(%edx),%edx
    3473:	39 f2                	cmp    %esi,%edx
    3475:	74 61                	je     34d8 <sig_connect+0xb8>
    3477:	39 7a 08             	cmp    %edi,0x8(%edx)
    347a:	75 f4                	jne    3470 <sig_connect+0x50>
    347c:	39 5a 0c             	cmp    %ebx,0xc(%edx)
    347f:	75 ef                	jne    3470 <sig_connect+0x50>
    3481:	c7 04 24 e4 7d 02 00 	movl   $0x27de4,(%esp)
    3488:	e8 33 c6 00 00       	call   fac0 <fibril_rwlock_write_unlock>
    348d:	c7 45 08 e4 7d 02 00 	movl   $0x27de4,0x8(%ebp)
    3494:	83 c4 2c             	add    $0x2c,%esp
    3497:	5b                   	pop    %ebx
    3498:	5e                   	pop    %esi
    3499:	5f                   	pop    %edi
    349a:	5d                   	pop    %ebp
    349b:	e9 20 c6 00 00       	jmp    fac0 <fibril_rwlock_write_unlock>
    34a0:	c7 04 24 14 00 00 00 	movl   $0x14,(%esp)
    34a7:	e8 24 53 01 00       	call   187d0 <malloc>
    34ac:	89 c1                	mov    %eax,%ecx
    34ae:	85 c0                	test   %eax,%eax
    34b0:	74 db                	je     348d <sig_connect+0x6d>
    34b2:	a1 f8 7d 02 00       	mov    0x27df8,%eax
    34b7:	89 71 08             	mov    %esi,0x8(%ecx)
    34ba:	8d 71 0c             	lea    0xc(%ecx),%esi
    34bd:	c7 41 04 f8 7d 02 00 	movl   $0x27df8,0x4(%ecx)
    34c4:	89 71 10             	mov    %esi,0x10(%ecx)
    34c7:	89 71 0c             	mov    %esi,0xc(%ecx)
    34ca:	89 01                	mov    %eax,(%ecx)
    34cc:	89 48 04             	mov    %ecx,0x4(%eax)
    34cf:	89 0d f8 7d 02 00    	mov    %ecx,0x27df8
    34d5:	eb 8d                	jmp    3464 <sig_connect+0x44>
    34d7:	90                   	nop
    34d8:	c7 04 24 10 00 00 00 	movl   $0x10,(%esp)
    34df:	89 4d e4             	mov    %ecx,-0x1c(%ebp)
    34e2:	e8 e9 52 01 00       	call   187d0 <malloc>
    34e7:	8b 4d e4             	mov    -0x1c(%ebp),%ecx
    34ea:	85 c0                	test   %eax,%eax
    34ec:	74 9f                	je     348d <sig_connect+0x6d>
    34ee:	c7 00 00 00 00 00    	movl   $0x0,(%eax)
    34f4:	89 78 08             	mov    %edi,0x8(%eax)
    34f7:	8b 51 0c             	mov    0xc(%ecx),%edx
    34fa:	89 58 0c             	mov    %ebx,0xc(%eax)
    34fd:	89 10                	mov    %edx,(%eax)
    34ff:	89 70 04             	mov    %esi,0x4(%eax)
    3502:	8b 51 0c             	mov    0xc(%ecx),%edx
    3505:	89 41 0c             	mov    %eax,0xc(%ecx)
    3508:	89 42 04             	mov    %eax,0x4(%edx)
    350b:	eb 80                	jmp    348d <sig_connect+0x6d>
    350d:	8d 76 00             	lea    0x0(%esi),%esi

00003510 <sig_connectm>:
    3510:	55                   	push   %ebp
    3511:	89 e5                	mov    %esp,%ebp
    3513:	57                   	push   %edi
    3514:	56                   	push   %esi
    3515:	53                   	push   %ebx
    3516:	83 ec 2c             	sub    $0x2c,%esp
    3519:	8b 5d 08             	mov    0x8(%ebp),%ebx
    351c:	8b 75 0c             	mov    0xc(%ebp),%esi
    351f:	c7 04 24 e4 7d 02 00 	movl   $0x27de4,(%esp)
    3526:	8b 7d 10             	mov    0x10(%ebp),%edi
    3529:	e8 52 c4 00 00       	call   f980 <fibril_rwlock_write_lock>
    352e:	a1 fc 7d 02 00       	mov    0x27dfc,%eax
    3533:	3d f8 7d 02 00       	cmp    $0x27df8,%eax
    3538:	75 14                	jne    354e <sig_connectm+0x3e>
    353a:	e9 a1 00 00 00       	jmp    35e0 <sig_connectm+0xd0>
    353f:	90                   	nop
    3540:	8b 40 04             	mov    0x4(%eax),%eax
    3543:	3d f8 7d 02 00       	cmp    $0x27df8,%eax
    3548:	0f 84 92 00 00 00    	je     35e0 <sig_connectm+0xd0>
    354e:	39 58 08             	cmp    %ebx,0x8(%eax)
    3551:	75 ed                	jne    3540 <sig_connectm+0x30>
    3553:	89 c1                	mov    %eax,%ecx
    3555:	8d 58 0c             	lea    0xc(%eax),%ebx
    3558:	8b 51 10             	mov    0x10(%ecx),%edx
    355b:	39 d3                	cmp    %edx,%ebx
    355d:	75 10                	jne    356f <sig_connectm+0x5f>
    355f:	eb 2f                	jmp    3590 <sig_connectm+0x80>
    3561:	8d b4 26 00 00 00 00 	lea    0x0(%esi,%eiz,1),%esi
    3568:	8b 52 04             	mov    0x4(%edx),%edx
    356b:	39 d3                	cmp    %edx,%ebx
    356d:	74 21                	je     3590 <sig_connectm+0x80>
    356f:	39 72 08             	cmp    %esi,0x8(%edx)
    3572:	75 f4                	jne    3568 <sig_connectm+0x58>
    3574:	39 7a 0c             	cmp    %edi,0xc(%edx)
    3577:	75 ef                	jne    3568 <sig_connectm+0x58>
    3579:	c7 04 24 e4 7d 02 00 	movl   $0x27de4,(%esp)
    3580:	89 4d e4             	mov    %ecx,-0x1c(%ebp)
    3583:	e8 38 c5 00 00       	call   fac0 <fibril_rwlock_write_unlock>
    3588:	8b 4d e4             	mov    -0x1c(%ebp),%ecx
    358b:	90                   	nop
    358c:	8d 74 26 00          	lea    0x0(%esi,%eiz,1),%esi
    3590:	c7 04 24 10 00 00 00 	movl   $0x10,(%esp)
    3597:	89 4d e4             	mov    %ecx,-0x1c(%ebp)
    359a:	e8 31 52 01 00       	call   187d0 <malloc>
    359f:	8b 4d e4             	mov    -0x1c(%ebp),%ecx
    35a2:	85 c0                	test   %eax,%eax
    35a4:	74 21                	je     35c7 <sig_connectm+0xb7>
    35a6:	c7 00 00 00 00 00    	movl   $0x0,(%eax)
    35ac:	89 70 08             	mov    %esi,0x8(%eax)
    35af:	8b 51 0c             	mov    0xc(%ecx),%edx
    35b2:	c7 40 0c 00 00 00 00 	movl   $0x0,0xc(%eax)
    35b9:	89 10                	mov    %edx,(%eax)
    35bb:	89 58 04             	mov    %ebx,0x4(%eax)
    35be:	8b 51 0c             	mov    0xc(%ecx),%edx
    35c1:	89 41 0c             	mov    %eax,0xc(%ecx)
    35c4:	89 42 04             	mov    %eax,0x4(%edx)
    35c7:	c7 45 08 e4 7d 02 00 	movl   $0x27de4,0x8(%ebp)
    35ce:	83 c4 2c             	add    $0x2c,%esp
    35d1:	5b                   	pop    %ebx
    35d2:	5e                   	pop    %esi
    35d3:	5f                   	pop    %edi
    35d4:	5d                   	pop    %ebp
    35d5:	e9 e6 c4 00 00       	jmp    fac0 <fibril_rwlock_write_unlock>
    35da:	8d b6 00 00 00 00    	lea    0x0(%esi),%esi
    35e0:	c7 04 24 14 00 00 00 	movl   $0x14,(%esp)
    35e7:	e8 e4 51 01 00       	call   187d0 <malloc>
    35ec:	89 c1                	mov    %eax,%ecx
    35ee:	85 c0                	test   %eax,%eax
    35f0:	74 d5                	je     35c7 <sig_connectm+0xb7>
    35f2:	a1 f8 7d 02 00       	mov    0x27df8,%eax
    35f7:	89 59 08             	mov    %ebx,0x8(%ecx)
    35fa:	8d 59 0c             	lea    0xc(%ecx),%ebx
    35fd:	c7 41 04 f8 7d 02 00 	movl   $0x27df8,0x4(%ecx)
    3604:	89 59 10             	mov    %ebx,0x10(%ecx)
    3607:	89 59 0c             	mov    %ebx,0xc(%ecx)
    360a:	89 01                	mov    %eax,(%ecx)
    360c:	89 48 04             	mov    %ecx,0x4(%eax)
    360f:	89 0d f8 7d 02 00    	mov    %ecx,0x27df8
    3615:	e9 3e ff ff ff       	jmp    3558 <sig_connectm+0x48>
    361a:	8d b6 00 00 00 00    	lea    0x0(%esi),%esi

00003620 <sig_disconnect>:
    3620:	55                   	push   %ebp
    3621:	89 e5                	mov    %esp,%ebp
    3623:	57                   	push   %edi
    3624:	56                   	push   %esi
    3625:	53                   	push   %ebx
    3626:	83 ec 1c             	sub    $0x1c,%esp
    3629:	8b 75 08             	mov    0x8(%ebp),%esi
    362c:	8b 7d 0c             	mov    0xc(%ebp),%edi
    362f:	c7 04 24 e4 7d 02 00 	movl   $0x27de4,(%esp)
    3636:	e8 45 c3 00 00       	call   f980 <fibril_rwlock_write_lock>
    363b:	8b 1d fc 7d 02 00    	mov    0x27dfc,%ebx
    3641:	81 fb f8 7d 02 00    	cmp    $0x27df8,%ebx
    3647:	75 12                	jne    365b <sig_disconnect+0x3b>
    3649:	eb 5f                	jmp    36aa <sig_disconnect+0x8a>
    364b:	90                   	nop
    364c:	8d 74 26 00          	lea    0x0(%esi,%eiz,1),%esi
    3650:	8b 5b 04             	mov    0x4(%ebx),%ebx
    3653:	81 fb f8 7d 02 00    	cmp    $0x27df8,%ebx
    3659:	74 4f                	je     36aa <sig_disconnect+0x8a>
    365b:	39 73 08             	cmp    %esi,0x8(%ebx)
    365e:	75 f0                	jne    3650 <sig_disconnect+0x30>
    3660:	8b 43 10             	mov    0x10(%ebx),%eax
    3663:	8d 73 0c             	lea    0xc(%ebx),%esi
    3666:	39 f0                	cmp    %esi,%eax
    3668:	75 0d                	jne    3677 <sig_disconnect+0x57>
    366a:	eb 3e                	jmp    36aa <sig_disconnect+0x8a>
    366c:	8d 74 26 00          	lea    0x0(%esi,%eiz,1),%esi
    3670:	8b 40 04             	mov    0x4(%eax),%eax
    3673:	39 f0                	cmp    %esi,%eax
    3675:	74 33                	je     36aa <sig_disconnect+0x8a>
    3677:	39 78 08             	cmp    %edi,0x8(%eax)
    367a:	75 f4                	jne    3670 <sig_disconnect+0x50>
    367c:	8b 08                	mov    (%eax),%ecx
    367e:	85 c9                	test   %ecx,%ecx
    3680:	74 0e                	je     3690 <sig_disconnect+0x70>
    3682:	8b 50 04             	mov    0x4(%eax),%edx
    3685:	85 d2                	test   %edx,%edx
    3687:	74 07                	je     3690 <sig_disconnect+0x70>
    3689:	89 0a                	mov    %ecx,(%edx)
    368b:	8b 08                	mov    (%eax),%ecx
    368d:	89 51 04             	mov    %edx,0x4(%ecx)
    3690:	c7 00 00 00 00 00    	movl   $0x0,(%eax)
    3696:	c7 40 04 00 00 00 00 	movl   $0x0,0x4(%eax)
    369d:	89 04 24             	mov    %eax,(%esp)
    36a0:	e8 3b 52 01 00       	call   188e0 <free>
    36a5:	39 73 10             	cmp    %esi,0x10(%ebx)
    36a8:	74 16                	je     36c0 <sig_disconnect+0xa0>
    36aa:	c7 45 08 e4 7d 02 00 	movl   $0x27de4,0x8(%ebp)
    36b1:	83 c4 1c             	add    $0x1c,%esp
    36b4:	5b                   	pop    %ebx
    36b5:	5e                   	pop    %esi
    36b6:	5f                   	pop    %edi
    36b7:	5d                   	pop    %ebp
    36b8:	e9 03 c4 00 00       	jmp    fac0 <fibril_rwlock_write_unlock>
    36bd:	8d 76 00             	lea    0x0(%esi),%esi
    36c0:	8b 13                	mov    (%ebx),%edx
    36c2:	85 d2                	test   %edx,%edx
    36c4:	74 0e                	je     36d4 <sig_disconnect+0xb4>
    36c6:	8b 43 04             	mov    0x4(%ebx),%eax
    36c9:	85 c0                	test   %eax,%eax
    36cb:	74 07                	je     36d4 <sig_disconnect+0xb4>
    36cd:	89 10                	mov    %edx,(%eax)
    36cf:	8b 13                	mov    (%ebx),%edx
    36d1:	89 42 04             	mov    %eax,0x4(%edx)
    36d4:	c7 03 00 00 00 00    	movl   $0x0,(%ebx)
    36da:	c7 43 04 00 00 00 00 	movl   $0x0,0x4(%ebx)
    36e1:	89 1c 24             	mov    %ebx,(%esp)
    36e4:	e8 f7 51 01 00       	call   188e0 <free>
    36e9:	eb bf                	jmp    36aa <sig_disconnect+0x8a>
    36eb:	90                   	nop
    36ec:	8d 74 26 00          	lea    0x0(%esi,%eiz,1),%esi

000036f0 <sig_send>:
    36f0:	55                   	push   %ebp
    36f1:	89 e5                	mov    %esp,%ebp
    36f3:	57                   	push   %edi
    36f4:	56                   	push   %esi
    36f5:	53                   	push   %ebx
    36f6:	83 ec 1c             	sub    $0x1c,%esp
    36f9:	8b 5d 08             	mov    0x8(%ebp),%ebx
    36fc:	8b 75 0c             	mov    0xc(%ebp),%esi
    36ff:	c7 04 24 e4 7d 02 00 	movl   $0x27de4,(%esp)
    3706:	e8 95 c1 00 00       	call   f8a0 <fibril_rwlock_read_lock>
    370b:	a1 fc 7d 02 00       	mov    0x27dfc,%eax
    3710:	3d f8 7d 02 00       	cmp    $0x27df8,%eax
    3715:	75 13                	jne    372a <sig_send+0x3a>
    3717:	eb 3b                	jmp    3754 <sig_send+0x64>
    3719:	8d b4 26 00 00 00 00 	lea    0x0(%esi,%eiz,1),%esi
    3720:	8b 40 04             	mov    0x4(%eax),%eax
    3723:	3d f8 7d 02 00       	cmp    $0x27df8,%eax
    3728:	74 2a                	je     3754 <sig_send+0x64>
    372a:	39 58 08             	cmp    %ebx,0x8(%eax)
    372d:	75 f1                	jne    3720 <sig_send+0x30>
    372f:	8b 58 10             	mov    0x10(%eax),%ebx
    3732:	8d 78 0c             	lea    0xc(%eax),%edi
    3735:	39 fb                	cmp    %edi,%ebx
    3737:	74 1b                	je     3754 <sig_send+0x64>
    3739:	8d b4 26 00 00 00 00 	lea    0x0(%esi,%eiz,1),%esi
    3740:	89 74 24 04          	mov    %esi,0x4(%esp)
    3744:	8b 43 08             	mov    0x8(%ebx),%eax
    3747:	89 04 24             	mov    %eax,(%esp)
    374a:	ff 53 0c             	call   *0xc(%ebx)
    374d:	8b 5b 04             	mov    0x4(%ebx),%ebx
    3750:	39 fb                	cmp    %edi,%ebx
    3752:	75 ec                	jne    3740 <sig_send+0x50>
    3754:	c7 45 08 e4 7d 02 00 	movl   $0x27de4,0x8(%ebp)
    375b:	83 c4 1c             	add    $0x1c,%esp
    375e:	5b                   	pop    %ebx
    375f:	5e                   	pop    %esi
    3760:	5f                   	pop    %edi
    3761:	5d                   	pop    %ebp
    3762:	e9 f9 c2 00 00       	jmp    fa60 <fibril_rwlock_read_unlock>
    3767:	89 f6                	mov    %esi,%esi
    3769:	8d bc 27 00 00 00 00 	lea    0x0(%edi,%eiz,1),%edi

00003770 <sig_post>:
    3770:	55                   	push   %ebp
    3771:	89 e5                	mov    %esp,%ebp
    3773:	57                   	push   %edi
    3774:	56                   	push   %esi
    3775:	53                   	push   %ebx
    3776:	83 ec 2c             	sub    $0x2c,%esp
    3779:	8b 45 0c             	mov    0xc(%ebp),%eax
    377c:	8b 5d 08             	mov    0x8(%ebp),%ebx
    377f:	c7 04 24 e4 7d 02 00 	movl   $0x27de4,(%esp)
    3786:	89 45 e0             	mov    %eax,-0x20(%ebp)
    3789:	8b 75 10             	mov    0x10(%ebp),%esi
    378c:	e8 0f c1 00 00       	call   f8a0 <fibril_rwlock_read_lock>
    3791:	a1 fc 7d 02 00       	mov    0x27dfc,%eax
    3796:	3d f8 7d 02 00       	cmp    $0x27df8,%eax
    379b:	75 19                	jne    37b6 <sig_post+0x46>
    379d:	e9 be 00 00 00       	jmp    3860 <sig_post+0xf0>
    37a2:	8d b6 00 00 00 00    	lea    0x0(%esi),%esi
    37a8:	8b 40 04             	mov    0x4(%eax),%eax
    37ab:	3d f8 7d 02 00       	cmp    $0x27df8,%eax
    37b0:	0f 84 aa 00 00 00    	je     3860 <sig_post+0xf0>
    37b6:	39 58 08             	cmp    %ebx,0x8(%eax)
    37b9:	75 ed                	jne    37a8 <sig_post+0x38>
    37bb:	8b 58 10             	mov    0x10(%eax),%ebx
    37be:	83 c0 0c             	add    $0xc,%eax
    37c1:	89 45 e4             	mov    %eax,-0x1c(%ebp)
    37c4:	39 c3                	cmp    %eax,%ebx
    37c6:	0f 84 94 00 00 00    	je     3860 <sig_post+0xf0>
    37cc:	8b 55 e0             	mov    -0x20(%ebp),%edx
    37cf:	85 d2                	test   %edx,%edx
    37d1:	75 42                	jne    3815 <sig_post+0xa5>
    37d3:	e9 9b 00 00 00       	jmp    3873 <sig_post+0x103>
    37d8:	8b 43 08             	mov    0x8(%ebx),%eax
    37db:	c7 02 00 00 00 00    	movl   $0x0,(%edx)
    37e1:	89 42 0c             	mov    %eax,0xc(%edx)
    37e4:	c7 42 04 00 00 00 00 	movl   $0x0,0x4(%edx)
    37eb:	8b 4b 0c             	mov    0xc(%ebx),%ecx
    37ee:	c7 42 08 02 00 00 00 	movl   $0x2,0x8(%edx)
    37f5:	89 4a 10             	mov    %ecx,0x10(%edx)
    37f8:	89 7a 14             	mov    %edi,0x14(%edx)
    37fb:	89 54 24 04          	mov    %edx,0x4(%esp)
    37ff:	8b 40 14             	mov    0x14(%eax),%eax
    3802:	83 c0 10             	add    $0x10,%eax
    3805:	89 04 24             	mov    %eax,(%esp)
    3808:	e8 53 b7 01 00       	call   1ef60 <prodcons_produce>
    380d:	8b 5b 04             	mov    0x4(%ebx),%ebx
    3810:	3b 5d e4             	cmp    -0x1c(%ebp),%ebx
    3813:	74 4b                	je     3860 <sig_post+0xf0>
    3815:	89 34 24             	mov    %esi,(%esp)
    3818:	e8 b3 4f 01 00       	call   187d0 <malloc>
    381d:	89 c7                	mov    %eax,%edi
    381f:	85 c0                	test   %eax,%eax
    3821:	0f 84 a3 00 00 00    	je     38ca <sig_post+0x15a>
    3827:	8b 45 e0             	mov    -0x20(%ebp),%eax
    382a:	89 74 24 08          	mov    %esi,0x8(%esp)
    382e:	89 44 24 04          	mov    %eax,0x4(%esp)
    3832:	89 3c 24             	mov    %edi,(%esp)
    3835:	e8 96 7d 00 00       	call   b5d0 <memcpy>
    383a:	c7 04 24 24 00 00 00 	movl   $0x24,(%esp)
    3841:	e8 8a 4f 01 00       	call   187d0 <malloc>
    3846:	89 c2                	mov    %eax,%edx
    3848:	85 c0                	test   %eax,%eax
    384a:	75 8c                	jne    37d8 <sig_post+0x68>
    384c:	89 3c 24             	mov    %edi,(%esp)
    384f:	e8 8c 50 01 00       	call   188e0 <free>
    3854:	8b 5b 04             	mov    0x4(%ebx),%ebx
    3857:	3b 5d e4             	cmp    -0x1c(%ebp),%ebx
    385a:	75 b9                	jne    3815 <sig_post+0xa5>
    385c:	8d 74 26 00          	lea    0x0(%esi,%eiz,1),%esi
    3860:	c7 45 08 e4 7d 02 00 	movl   $0x27de4,0x8(%ebp)
    3867:	83 c4 2c             	add    $0x2c,%esp
    386a:	5b                   	pop    %ebx
    386b:	5e                   	pop    %esi
    386c:	5f                   	pop    %edi
    386d:	5d                   	pop    %ebp
    386e:	e9 ed c1 00 00       	jmp    fa60 <fibril_rwlock_read_unlock>
    3873:	89 c6                	mov    %eax,%esi
    3875:	8d 76 00             	lea    0x0(%esi),%esi
    3878:	c7 04 24 24 00 00 00 	movl   $0x24,(%esp)
    387f:	e8 4c 4f 01 00       	call   187d0 <malloc>
    3884:	85 c0                	test   %eax,%eax
    3886:	74 39                	je     38c1 <sig_post+0x151>
    3888:	8b 53 08             	mov    0x8(%ebx),%edx
    388b:	c7 00 00 00 00 00    	movl   $0x0,(%eax)
    3891:	89 50 0c             	mov    %edx,0xc(%eax)
    3894:	c7 40 04 00 00 00 00 	movl   $0x0,0x4(%eax)
    389b:	8b 4b 0c             	mov    0xc(%ebx),%ecx
    389e:	c7 40 08 02 00 00 00 	movl   $0x2,0x8(%eax)
    38a5:	89 48 10             	mov    %ecx,0x10(%eax)
    38a8:	c7 40 14 00 00 00 00 	movl   $0x0,0x14(%eax)
    38af:	89 44 24 04          	mov    %eax,0x4(%esp)
    38b3:	8b 42 14             	mov    0x14(%edx),%eax
    38b6:	83 c0 10             	add    $0x10,%eax
    38b9:	89 04 24             	mov    %eax,(%esp)
    38bc:	e8 9f b6 01 00       	call   1ef60 <prodcons_produce>
    38c1:	8b 5b 04             	mov    0x4(%ebx),%ebx
    38c4:	39 f3                	cmp    %esi,%ebx
    38c6:	75 b0                	jne    3878 <sig_post+0x108>
    38c8:	eb 96                	jmp    3860 <sig_post+0xf0>
    38ca:	c7 04 24 24 00 00 00 	movl   $0x24,(%esp)
    38d1:	e8 fa 4e 01 00       	call   187d0 <malloc>
    38d6:	89 c2                	mov    %eax,%edx
    38d8:	85 c0                	test   %eax,%eax
    38da:	0f 85 f8 fe ff ff    	jne    37d8 <sig_post+0x68>
    38e0:	e9 28 ff ff ff       	jmp    380d <sig_post+0x9d>
    38e5:	66 90                	xchg   %ax,%ax
    38e7:	66 90                	xchg   %ax,%ax
    38e9:	66 90                	xchg   %ax,%ax
    38eb:	66 90                	xchg   %ax,%ax
    38ed:	66 90                	xchg   %ax,%ax
    38ef:	90                   	nop

000038f0 <grid_reconfigure>:
    38f0:	55                   	push   %ebp
    38f1:	89 e5                	mov    %esp,%ebp
    38f3:	5d                   	pop    %ebp
    38f4:	c3                   	ret    
    38f5:	8d 74 26 00          	lea    0x0(%esi,%eiz,1),%esi
    38f9:	8d bc 27 00 00 00 00 	lea    0x0(%edi,%eiz,1),%edi

00003900 <grid_handle_keyboard_event>:
    3900:	55                   	push   %ebp
    3901:	89 e5                	mov    %esp,%ebp
    3903:	5d                   	pop    %ebp
    3904:	c3                   	ret    
    3905:	8d 74 26 00          	lea    0x0(%esi,%eiz,1),%esi
    3909:	8d bc 27 00 00 00 00 	lea    0x0(%edi,%eiz,1),%edi

00003910 <grid_handle_position_event>:
    3910:	55                   	push   %ebp
    3911:	89 e5                	mov    %esp,%ebp
    3913:	57                   	push   %edi
    3914:	56                   	push   %esi
    3915:	53                   	push   %ebx
    3916:	83 ec 2c             	sub    $0x2c,%esp
    3919:	8b 45 08             	mov    0x8(%ebp),%eax
    391c:	8b 55 1c             	mov    0x1c(%ebp),%edx
    391f:	89 45 dc             	mov    %eax,-0x24(%ebp)
    3922:	8b 75 18             	mov    0x18(%ebp),%esi
    3925:	8b 40 5c             	mov    0x5c(%eax),%eax
    3928:	89 55 d8             	mov    %edx,-0x28(%ebp)
    392b:	89 75 e0             	mov    %esi,-0x20(%ebp)
    392e:	89 45 cc             	mov    %eax,-0x34(%ebp)
    3931:	85 c0                	test   %eax,%eax
    3933:	0f 84 91 00 00 00    	je     39ca <grid_handle_position_event+0xba>
    3939:	8b 55 dc             	mov    -0x24(%ebp),%edx
    393c:	8d 04 40             	lea    (%eax,%eax,2),%eax
    393f:	c1 e0 02             	shl    $0x2,%eax
    3942:	c7 45 d0 00 00 00 00 	movl   $0x0,-0x30(%ebp)
    3949:	8b 5a 60             	mov    0x60(%edx),%ebx
    394c:	89 45 e4             	mov    %eax,-0x1c(%ebp)
    394f:	c7 45 d4 00 00 00 00 	movl   $0x0,-0x2c(%ebp)
    3956:	66 90                	xchg   %ax,%ax
    3958:	85 db                	test   %ebx,%ebx
    395a:	74 56                	je     39b2 <grid_handle_position_event+0xa2>
    395c:	8b 55 cc             	mov    -0x34(%ebp),%edx
    395f:	39 55 d4             	cmp    %edx,-0x2c(%ebp)
    3962:	73 4e                	jae    39b2 <grid_handle_position_event+0xa2>
    3964:	8b 4d d0             	mov    -0x30(%ebp),%ecx
    3967:	31 c0                	xor    %eax,%eax
    3969:	8d b4 26 00 00 00 00 	lea    0x0(%esi,%eiz,1),%esi
    3970:	39 d8                	cmp    %ebx,%eax
    3972:	73 34                	jae    39a8 <grid_handle_position_event+0x98>
    3974:	8b 75 dc             	mov    -0x24(%ebp),%esi
    3977:	8b 56 64             	mov    0x64(%esi),%edx
    397a:	01 ca                	add    %ecx,%edx
    397c:	74 2a                	je     39a8 <grid_handle_position_event+0x98>
    397e:	8b 12                	mov    (%edx),%edx
    3980:	85 d2                	test   %edx,%edx
    3982:	74 24                	je     39a8 <grid_handle_position_event+0x98>
    3984:	8b 72 18             	mov    0x18(%edx),%esi
    3987:	39 75 e0             	cmp    %esi,-0x20(%ebp)
    398a:	72 1c                	jb     39a8 <grid_handle_position_event+0x98>
    398c:	8b 7a 1c             	mov    0x1c(%edx),%edi
    398f:	39 7d d8             	cmp    %edi,-0x28(%ebp)
    3992:	72 14                	jb     39a8 <grid_handle_position_event+0x98>
    3994:	03 72 20             	add    0x20(%edx),%esi
    3997:	39 75 e0             	cmp    %esi,-0x20(%ebp)
    399a:	73 0c                	jae    39a8 <grid_handle_position_event+0x98>
    399c:	8b 72 24             	mov    0x24(%edx),%esi
    399f:	01 f7                	add    %esi,%edi
    39a1:	39 7d d8             	cmp    %edi,-0x28(%ebp)
    39a4:	72 2c                	jb     39d2 <grid_handle_position_event+0xc2>
    39a6:	66 90                	xchg   %ax,%ax
    39a8:	40                   	inc    %eax
    39a9:	8b 75 e4             	mov    -0x1c(%ebp),%esi
    39ac:	01 f1                	add    %esi,%ecx
    39ae:	39 d8                	cmp    %ebx,%eax
    39b0:	75 be                	jne    3970 <grid_handle_position_event+0x60>
    39b2:	8b 45 d4             	mov    -0x2c(%ebp),%eax
    39b5:	8b 55 d0             	mov    -0x30(%ebp),%edx
    39b8:	40                   	inc    %eax
    39b9:	83 c2 0c             	add    $0xc,%edx
    39bc:	89 45 d4             	mov    %eax,-0x2c(%ebp)
    39bf:	8b 45 cc             	mov    -0x34(%ebp),%eax
    39c2:	89 55 d0             	mov    %edx,-0x30(%ebp)
    39c5:	39 45 d4             	cmp    %eax,-0x2c(%ebp)
    39c8:	75 8e                	jne    3958 <grid_handle_position_event+0x48>
    39ca:	83 c4 2c             	add    $0x2c,%esp
    39cd:	5b                   	pop    %ebx
    39ce:	5e                   	pop    %esi
    39cf:	5f                   	pop    %edi
    39d0:	5d                   	pop    %ebp
    39d1:	c3                   	ret    
    39d2:	89 55 08             	mov    %edx,0x8(%ebp)
    39d5:	8b 42 54             	mov    0x54(%edx),%eax
    39d8:	83 c4 2c             	add    $0x2c,%esp
    39db:	5b                   	pop    %ebx
    39dc:	5e                   	pop    %esi
    39dd:	5f                   	pop    %edi
    39de:	5d                   	pop    %ebp
    39df:	ff e0                	jmp    *%eax
    39e1:	eb 0d                	jmp    39f0 <grid_repaint>
    39e3:	90                   	nop
    39e4:	90                   	nop
    39e5:	90                   	nop
    39e6:	90                   	nop
    39e7:	90                   	nop
    39e8:	90                   	nop
    39e9:	90                   	nop
    39ea:	90                   	nop
    39eb:	90                   	nop
    39ec:	90                   	nop
    39ed:	90                   	nop
    39ee:	90                   	nop
    39ef:	90                   	nop

000039f0 <grid_repaint>:
    39f0:	55                   	push   %ebp
    39f1:	89 e5                	mov    %esp,%ebp
    39f3:	57                   	push   %edi
    39f4:	56                   	push   %esi
    39f5:	53                   	push   %ebx
    39f6:	83 ec 2c             	sub    $0x2c,%esp
    39f9:	8b 7d 08             	mov    0x8(%ebp),%edi
    39fc:	8b 47 14             	mov    0x14(%edi),%eax
    39ff:	89 04 24             	mov    %eax,(%esp)
    3a02:	e8 b9 24 00 00       	call   5ec0 <window_claim>
    3a07:	89 45 e4             	mov    %eax,-0x1c(%ebp)
    3a0a:	85 c0                	test   %eax,%eax
    3a0c:	74 56                	je     3a64 <grid_repaint+0x74>
    3a0e:	8b 77 1c             	mov    0x1c(%edi),%esi
    3a11:	8b 5f 24             	mov    0x24(%edi),%ebx
    3a14:	01 f3                	add    %esi,%ebx
    3a16:	39 de                	cmp    %ebx,%esi
    3a18:	73 4a                	jae    3a64 <grid_repaint+0x74>
    3a1a:	8b 47 18             	mov    0x18(%edi),%eax
    3a1d:	8b 4f 20             	mov    0x20(%edi),%ecx
    3a20:	01 c1                	add    %eax,%ecx
    3a22:	8d b6 00 00 00 00    	lea    0x0(%esi),%esi
    3a28:	39 c1                	cmp    %eax,%ecx
    3a2a:	76 33                	jbe    3a5f <grid_repaint+0x6f>
    3a2c:	89 c3                	mov    %eax,%ebx
    3a2e:	66 90                	xchg   %ax,%ax
    3a30:	8b 47 58             	mov    0x58(%edi),%eax
    3a33:	89 5c 24 04          	mov    %ebx,0x4(%esp)
    3a37:	89 44 24 0c          	mov    %eax,0xc(%esp)
    3a3b:	8b 45 e4             	mov    -0x1c(%ebp),%eax
    3a3e:	89 04 24             	mov    %eax,(%esp)
    3a41:	89 74 24 08          	mov    %esi,0x8(%esp)
    3a45:	e8 d6 34 00 00       	call   6f20 <surface_put_pixel>
    3a4a:	8b 47 18             	mov    0x18(%edi),%eax
    3a4d:	8b 4f 20             	mov    0x20(%edi),%ecx
    3a50:	43                   	inc    %ebx
    3a51:	01 c1                	add    %eax,%ecx
    3a53:	39 cb                	cmp    %ecx,%ebx
    3a55:	72 d9                	jb     3a30 <grid_repaint+0x40>
    3a57:	8b 5f 24             	mov    0x24(%edi),%ebx
    3a5a:	8b 57 1c             	mov    0x1c(%edi),%edx
    3a5d:	01 d3                	add    %edx,%ebx
    3a5f:	46                   	inc    %esi
    3a60:	39 de                	cmp    %ebx,%esi
    3a62:	72 c4                	jb     3a28 <grid_repaint+0x38>
    3a64:	8b 47 14             	mov    0x14(%edi),%eax
    3a67:	8d 77 0c             	lea    0xc(%edi),%esi
    3a6a:	89 04 24             	mov    %eax,(%esp)
    3a6d:	e8 7e 24 00 00       	call   5ef0 <window_yield>
    3a72:	8b 5f 10             	mov    0x10(%edi),%ebx
    3a75:	39 f3                	cmp    %esi,%ebx
    3a77:	74 14                	je     3a8d <grid_repaint+0x9d>
    3a79:	8d b4 26 00 00 00 00 	lea    0x0(%esi,%eiz,1),%esi
    3a80:	89 1c 24             	mov    %ebx,(%esp)
    3a83:	ff 53 4c             	call   *0x4c(%ebx)
    3a86:	8b 5b 04             	mov    0x4(%ebx),%ebx
    3a89:	39 f3                	cmp    %esi,%ebx
    3a8b:	75 f3                	jne    3a80 <grid_repaint+0x90>
    3a8d:	8b 47 14             	mov    0x14(%edi),%eax
    3a90:	89 45 08             	mov    %eax,0x8(%ebp)
    3a93:	83 c4 2c             	add    $0x2c,%esp
    3a96:	5b                   	pop    %ebx
    3a97:	5e                   	pop    %esi
    3a98:	5f                   	pop    %edi
    3a99:	5d                   	pop    %ebp
    3a9a:	e9 71 23 00 00       	jmp    5e10 <window_damage>
    3a9f:	90                   	nop

00003aa0 <grid_add>:
    3aa0:	55                   	push   %ebp
    3aa1:	89 e5                	mov    %esp,%ebp
    3aa3:	57                   	push   %edi
    3aa4:	56                   	push   %esi
    3aa5:	53                   	push   %ebx
    3aa6:	83 ec 1c             	sub    $0x1c,%esp
    3aa9:	8b 45 1c             	mov    0x1c(%ebp),%eax
    3aac:	8b 5d 08             	mov    0x8(%ebp),%ebx
    3aaf:	8b 75 10             	mov    0x10(%ebp),%esi
    3ab2:	85 c0                	test   %eax,%eax
    3ab4:	0f 84 1e 01 00 00    	je     3bd8 <grid_add+0x138>
    3aba:	8b 7d 18             	mov    0x18(%ebp),%edi
    3abd:	85 ff                	test   %edi,%edi
    3abf:	0f 84 13 01 00 00    	je     3bd8 <grid_add+0x138>
    3ac5:	8b 43 5c             	mov    0x5c(%ebx),%eax
    3ac8:	8b 7d 18             	mov    0x18(%ebp),%edi
    3acb:	89 45 ec             	mov    %eax,-0x14(%ebp)
    3ace:	01 f7                	add    %esi,%edi
    3ad0:	31 c0                	xor    %eax,%eax
    3ad2:	3b 7d ec             	cmp    -0x14(%ebp),%edi
    3ad5:	0f 87 ef 00 00 00    	ja     3bca <grid_add+0x12a>
    3adb:	8b 55 1c             	mov    0x1c(%ebp),%edx
    3ade:	8b 4d 14             	mov    0x14(%ebp),%ecx
    3ae1:	01 ca                	add    %ecx,%edx
    3ae3:	89 55 e4             	mov    %edx,-0x1c(%ebp)
    3ae6:	8b 53 60             	mov    0x60(%ebx),%edx
    3ae9:	89 55 e0             	mov    %edx,-0x20(%ebp)
    3aec:	39 55 e4             	cmp    %edx,-0x1c(%ebp)
    3aef:	0f 87 d5 00 00 00    	ja     3bca <grid_add+0x12a>
    3af5:	3b 75 ec             	cmp    -0x14(%ebp),%esi
    3af8:	0f 83 cc 00 00 00    	jae    3bca <grid_add+0x12a>
    3afe:	39 55 14             	cmp    %edx,0x14(%ebp)
    3b01:	0f 83 c3 00 00 00    	jae    3bca <grid_add+0x12a>
    3b07:	8b 4d ec             	mov    -0x14(%ebp),%ecx
    3b0a:	8b 55 14             	mov    0x14(%ebp),%edx
    3b0d:	0f af d1             	imul   %ecx,%edx
    3b10:	01 f2                	add    %esi,%edx
    3b12:	8d 0c 52             	lea    (%edx,%edx,2),%ecx
    3b15:	8b 53 64             	mov    0x64(%ebx),%edx
    3b18:	8d 0c 8a             	lea    (%edx,%ecx,4),%ecx
    3b1b:	85 c9                	test   %ecx,%ecx
    3b1d:	0f 84 a7 00 00 00    	je     3bca <grid_add+0x12a>
    3b23:	8b 11                	mov    (%ecx),%edx
    3b25:	85 d2                	test   %edx,%edx
    3b27:	0f 84 0d 01 00 00    	je     3c3a <grid_add+0x19a>
    3b2d:	8b 45 0c             	mov    0xc(%ebp),%eax
    3b30:	8b 55 0c             	mov    0xc(%ebp),%edx
    3b33:	89 58 08             	mov    %ebx,0x8(%eax)
    3b36:	8d 43 0c             	lea    0xc(%ebx),%eax
    3b39:	89 42 04             	mov    %eax,0x4(%edx)
    3b3c:	8b 43 0c             	mov    0xc(%ebx),%eax
    3b3f:	89 02                	mov    %eax,(%edx)
    3b41:	8b 43 0c             	mov    0xc(%ebx),%eax
    3b44:	89 53 0c             	mov    %edx,0xc(%ebx)
    3b47:	89 50 04             	mov    %edx,0x4(%eax)
    3b4a:	8b 43 14             	mov    0x14(%ebx),%eax
    3b4d:	8b 5d e4             	mov    -0x1c(%ebp),%ebx
    3b50:	89 42 14             	mov    %eax,0x14(%edx)
    3b53:	39 5d 14             	cmp    %ebx,0x14(%ebp)
    3b56:	73 70                	jae    3bc8 <grid_add+0x128>
    3b58:	8b 55 ec             	mov    -0x14(%ebp),%edx
    3b5b:	8b 5d 14             	mov    0x14(%ebp),%ebx
    3b5e:	89 4d e8             	mov    %ecx,-0x18(%ebp)
    3b61:	89 5d f0             	mov    %ebx,-0x10(%ebp)
    3b64:	8d 04 52             	lea    (%edx,%edx,2),%eax
    3b67:	c1 e0 02             	shl    $0x2,%eax
    3b6a:	89 45 dc             	mov    %eax,-0x24(%ebp)
    3b6d:	8d 76 00             	lea    0x0(%esi),%esi
    3b70:	39 fe                	cmp    %edi,%esi
    3b72:	73 3a                	jae    3bae <grid_add+0x10e>
    3b74:	8b 5d f0             	mov    -0x10(%ebp),%ebx
    3b77:	8b 45 f0             	mov    -0x10(%ebp),%eax
    3b7a:	39 5d 14             	cmp    %ebx,0x14(%ebp)
    3b7d:	0f 94 c3             	sete   %bl
    3b80:	39 45 e0             	cmp    %eax,-0x20(%ebp)
    3b83:	77 63                	ja     3be8 <grid_add+0x148>
    3b85:	8b 55 1c             	mov    0x1c(%ebp),%edx
    3b88:	89 f0                	mov    %esi,%eax
    3b8a:	89 55 d8             	mov    %edx,-0x28(%ebp)
    3b8d:	8d 76 00             	lea    0x0(%esi),%esi
    3b90:	39 c6                	cmp    %eax,%esi
    3b92:	75 15                	jne    3ba9 <grid_add+0x109>
    3b94:	84 db                	test   %bl,%bl
    3b96:	74 11                	je     3ba9 <grid_add+0x109>
    3b98:	8b 55 0c             	mov    0xc(%ebp),%edx
    3b9b:	89 11                	mov    %edx,(%ecx)
    3b9d:	8b 55 18             	mov    0x18(%ebp),%edx
    3ba0:	89 51 04             	mov    %edx,0x4(%ecx)
    3ba3:	8b 55 d8             	mov    -0x28(%ebp),%edx
    3ba6:	89 51 08             	mov    %edx,0x8(%ecx)
    3ba9:	40                   	inc    %eax
    3baa:	39 f8                	cmp    %edi,%eax
    3bac:	75 e2                	jne    3b90 <grid_add+0xf0>
    3bae:	8b 5d f0             	mov    -0x10(%ebp),%ebx
    3bb1:	8b 55 e8             	mov    -0x18(%ebp),%edx
    3bb4:	8b 45 dc             	mov    -0x24(%ebp),%eax
    3bb7:	43                   	inc    %ebx
    3bb8:	01 c2                	add    %eax,%edx
    3bba:	89 5d f0             	mov    %ebx,-0x10(%ebp)
    3bbd:	89 55 e8             	mov    %edx,-0x18(%ebp)
    3bc0:	8b 55 e4             	mov    -0x1c(%ebp),%edx
    3bc3:	39 55 f0             	cmp    %edx,-0x10(%ebp)
    3bc6:	75 a8                	jne    3b70 <grid_add+0xd0>
    3bc8:	b0 01                	mov    $0x1,%al
    3bca:	83 c4 1c             	add    $0x1c,%esp
    3bcd:	5b                   	pop    %ebx
    3bce:	5e                   	pop    %esi
    3bcf:	5f                   	pop    %edi
    3bd0:	5d                   	pop    %ebp
    3bd1:	c3                   	ret    
    3bd2:	8d b6 00 00 00 00    	lea    0x0(%esi),%esi
    3bd8:	83 c4 1c             	add    $0x1c,%esp
    3bdb:	31 c0                	xor    %eax,%eax
    3bdd:	5b                   	pop    %ebx
    3bde:	5e                   	pop    %esi
    3bdf:	5f                   	pop    %edi
    3be0:	5d                   	pop    %ebp
    3be1:	c3                   	ret    
    3be2:	8d b6 00 00 00 00    	lea    0x0(%esi),%esi
    3be8:	8b 55 e8             	mov    -0x18(%ebp),%edx
    3beb:	89 f0                	mov    %esi,%eax
    3bed:	88 5d d8             	mov    %bl,-0x28(%ebp)
    3bf0:	eb 25                	jmp    3c17 <grid_add+0x177>
    3bf2:	8d b6 00 00 00 00    	lea    0x0(%esi),%esi
    3bf8:	80 7d d8 00          	cmpb   $0x0,-0x28(%ebp)
    3bfc:	74 1d                	je     3c1b <grid_add+0x17b>
    3bfe:	8b 5d 0c             	mov    0xc(%ebp),%ebx
    3c01:	89 19                	mov    %ebx,(%ecx)
    3c03:	8b 5d 18             	mov    0x18(%ebp),%ebx
    3c06:	89 59 04             	mov    %ebx,0x4(%ecx)
    3c09:	8b 5d 1c             	mov    0x1c(%ebp),%ebx
    3c0c:	89 59 08             	mov    %ebx,0x8(%ecx)
    3c0f:	40                   	inc    %eax
    3c10:	83 c2 0c             	add    $0xc,%edx
    3c13:	39 f8                	cmp    %edi,%eax
    3c15:	74 97                	je     3bae <grid_add+0x10e>
    3c17:	39 c6                	cmp    %eax,%esi
    3c19:	74 dd                	je     3bf8 <grid_add+0x158>
    3c1b:	39 45 ec             	cmp    %eax,-0x14(%ebp)
    3c1e:	76 ef                	jbe    3c0f <grid_add+0x16f>
    3c20:	85 d2                	test   %edx,%edx
    3c22:	74 eb                	je     3c0f <grid_add+0x16f>
    3c24:	c7 02 00 00 00 00    	movl   $0x0,(%edx)
    3c2a:	c7 42 04 01 00 00 00 	movl   $0x1,0x4(%edx)
    3c31:	c7 42 08 01 00 00 00 	movl   $0x1,0x8(%edx)
    3c38:	eb d5                	jmp    3c0f <grid_add+0x16f>
    3c3a:	8b 51 04             	mov    0x4(%ecx),%edx
    3c3d:	85 d2                	test   %edx,%edx
    3c3f:	0f 84 e8 fe ff ff    	je     3b2d <grid_add+0x8d>
    3c45:	8b 51 08             	mov    0x8(%ecx),%edx
    3c48:	85 d2                	test   %edx,%edx
    3c4a:	0f 84 dd fe ff ff    	je     3b2d <grid_add+0x8d>
    3c50:	e9 75 ff ff ff       	jmp    3bca <grid_add+0x12a>
    3c55:	8d 74 26 00          	lea    0x0(%esi,%eiz,1),%esi
    3c59:	8d bc 27 00 00 00 00 	lea    0x0(%edi,%eiz,1),%edi

00003c60 <grid_destroy>:
    3c60:	55                   	push   %ebp
    3c61:	89 e5                	mov    %esp,%ebp
    3c63:	53                   	push   %ebx
    3c64:	83 ec 14             	sub    $0x14,%esp
    3c67:	8b 5d 08             	mov    0x8(%ebp),%ebx
    3c6a:	89 1c 24             	mov    %ebx,(%esp)
    3c6d:	e8 6e 0e 00 00       	call   4ae0 <widget_deinit>
    3c72:	8b 43 64             	mov    0x64(%ebx),%eax
    3c75:	89 04 24             	mov    %eax,(%esp)
    3c78:	e8 63 4c 01 00       	call   188e0 <free>
    3c7d:	89 5d 08             	mov    %ebx,0x8(%ebp)
    3c80:	83 c4 14             	add    $0x14,%esp
    3c83:	5b                   	pop    %ebx
    3c84:	5d                   	pop    %ebp
    3c85:	e9 56 4c 01 00       	jmp    188e0 <free>
    3c8a:	8d b6 00 00 00 00    	lea    0x0(%esi),%esi

00003c90 <grid_rearrange>:
    3c90:	55                   	push   %ebp
    3c91:	89 e5                	mov    %esp,%ebp
    3c93:	57                   	push   %edi
    3c94:	56                   	push   %esi
    3c95:	53                   	push   %ebx
    3c96:	83 ec 7c             	sub    $0x7c,%esp
    3c99:	8b 4d 08             	mov    0x8(%ebp),%ecx
    3c9c:	8b 75 0c             	mov    0xc(%ebp),%esi
    3c9f:	8b 7d 10             	mov    0x10(%ebp),%edi
    3ca2:	89 4d bc             	mov    %ecx,-0x44(%ebp)
    3ca5:	89 75 a4             	mov    %esi,-0x5c(%ebp)
    3ca8:	8b 4d 14             	mov    0x14(%ebp),%ecx
    3cab:	8b 75 18             	mov    0x18(%ebp),%esi
    3cae:	89 7d b4             	mov    %edi,-0x4c(%ebp)
    3cb1:	89 4d ac             	mov    %ecx,-0x54(%ebp)
    3cb4:	89 4c 24 0c          	mov    %ecx,0xc(%esp)
    3cb8:	89 7c 24 08          	mov    %edi,0x8(%esp)
    3cbc:	8b 4d bc             	mov    -0x44(%ebp),%ecx
    3cbf:	8b 7d a4             	mov    -0x5c(%ebp),%edi
    3cc2:	89 74 24 10          	mov    %esi,0x10(%esp)
    3cc6:	89 0c 24             	mov    %ecx,(%esp)
    3cc9:	89 7c 24 04          	mov    %edi,0x4(%esp)
    3ccd:	89 75 a0             	mov    %esi,-0x60(%ebp)
    3cd0:	e8 eb 0d 00 00       	call   4ac0 <widget_modify>
    3cd5:	8b 75 bc             	mov    -0x44(%ebp),%esi
    3cd8:	8b 46 14             	mov    0x14(%esi),%eax
    3cdb:	89 04 24             	mov    %eax,(%esp)
    3cde:	e8 dd 21 00 00       	call   5ec0 <window_claim>
    3ce3:	89 c6                	mov    %eax,%esi
    3ce5:	85 c0                	test   %eax,%eax
    3ce7:	74 7f                	je     3d68 <grid_rearrange+0xd8>
    3ce9:	8b 4d bc             	mov    -0x44(%ebp),%ecx
    3cec:	89 cf                	mov    %ecx,%edi
    3cee:	8b 59 1c             	mov    0x1c(%ecx),%ebx
    3cf1:	8b 49 24             	mov    0x24(%ecx),%ecx
    3cf4:	8d 04 19             	lea    (%ecx,%ebx,1),%eax
    3cf7:	39 c3                	cmp    %eax,%ebx
    3cf9:	73 6d                	jae    3d68 <grid_rearrange+0xd8>
    3cfb:	8b 57 18             	mov    0x18(%edi),%edx
    3cfe:	8b 47 20             	mov    0x20(%edi),%eax
    3d01:	01 d0                	add    %edx,%eax
    3d03:	89 4d e0             	mov    %ecx,-0x20(%ebp)
    3d06:	89 5d d8             	mov    %ebx,-0x28(%ebp)
    3d09:	89 45 dc             	mov    %eax,-0x24(%ebp)
    3d0c:	89 75 e4             	mov    %esi,-0x1c(%ebp)
    3d0f:	89 d9                	mov    %ebx,%ecx
    3d11:	8d b4 26 00 00 00 00 	lea    0x0(%esi,%eiz,1),%esi
    3d18:	39 d0                	cmp    %edx,%eax
    3d1a:	76 42                	jbe    3d5e <grid_rearrange+0xce>
    3d1c:	89 f8                	mov    %edi,%eax
    3d1e:	89 d6                	mov    %edx,%esi
    3d20:	89 df                	mov    %ebx,%edi
    3d22:	89 c3                	mov    %eax,%ebx
    3d24:	8d 74 26 00          	lea    0x0(%esi,%eiz,1),%esi
    3d28:	8b 43 58             	mov    0x58(%ebx),%eax
    3d2b:	89 74 24 04          	mov    %esi,0x4(%esp)
    3d2f:	89 44 24 0c          	mov    %eax,0xc(%esp)
    3d33:	8b 45 e4             	mov    -0x1c(%ebp),%eax
    3d36:	89 04 24             	mov    %eax,(%esp)
    3d39:	89 7c 24 08          	mov    %edi,0x8(%esp)
    3d3d:	e8 de 31 00 00       	call   6f20 <surface_put_pixel>
    3d42:	8b 53 18             	mov    0x18(%ebx),%edx
    3d45:	8b 43 20             	mov    0x20(%ebx),%eax
    3d48:	46                   	inc    %esi
    3d49:	01 d0                	add    %edx,%eax
    3d4b:	39 c6                	cmp    %eax,%esi
    3d4d:	72 d9                	jb     3d28 <grid_rearrange+0x98>
    3d4f:	89 d9                	mov    %ebx,%ecx
    3d51:	89 fb                	mov    %edi,%ebx
    3d53:	89 cf                	mov    %ecx,%edi
    3d55:	8b 49 1c             	mov    0x1c(%ecx),%ecx
    3d58:	8b 77 24             	mov    0x24(%edi),%esi
    3d5b:	89 75 e0             	mov    %esi,-0x20(%ebp)
    3d5e:	8b 75 e0             	mov    -0x20(%ebp),%esi
    3d61:	43                   	inc    %ebx
    3d62:	01 ce                	add    %ecx,%esi
    3d64:	39 f3                	cmp    %esi,%ebx
    3d66:	72 b0                	jb     3d18 <grid_rearrange+0x88>
    3d68:	8b 7d bc             	mov    -0x44(%ebp),%edi
    3d6b:	8b 47 14             	mov    0x14(%edi),%eax
    3d6e:	89 04 24             	mov    %eax,(%esp)
    3d71:	e8 7a 21 00 00       	call   5ef0 <window_yield>
    3d76:	8b 4d bc             	mov    -0x44(%ebp),%ecx
    3d79:	c7 44 24 04 0c 00 00 	movl   $0xc,0x4(%esp)
    3d80:	00 
    3d81:	8b 41 5c             	mov    0x5c(%ecx),%eax
    3d84:	89 04 24             	mov    %eax,(%esp)
    3d87:	e8 e4 49 01 00       	call   18770 <calloc>
    3d8c:	89 45 b0             	mov    %eax,-0x50(%ebp)
    3d8f:	85 c0                	test   %eax,%eax
    3d91:	0f 84 68 05 00 00    	je     42ff <grid_rearrange+0x66f>
    3d97:	8b 7d bc             	mov    -0x44(%ebp),%edi
    3d9a:	8b 7f 5c             	mov    0x5c(%edi),%edi
    3d9d:	89 7d c4             	mov    %edi,-0x3c(%ebp)
    3da0:	85 ff                	test   %edi,%edi
    3da2:	0f 84 77 05 00 00    	je     431f <grid_rearrange+0x68f>
    3da8:	8b 45 b0             	mov    -0x50(%ebp),%eax
    3dab:	8b 4d bc             	mov    -0x44(%ebp),%ecx
    3dae:	89 45 a8             	mov    %eax,-0x58(%ebp)
    3db1:	8d 04 7f             	lea    (%edi,%edi,2),%eax
    3db4:	c1 e0 02             	shl    $0x2,%eax
    3db7:	8b 49 60             	mov    0x60(%ecx),%ecx
    3dba:	89 45 c0             	mov    %eax,-0x40(%ebp)
    3dbd:	8b 45 b0             	mov    -0x50(%ebp),%eax
    3dc0:	89 4d cc             	mov    %ecx,-0x34(%ebp)
    3dc3:	89 45 b8             	mov    %eax,-0x48(%ebp)
    3dc6:	c7 45 c8 00 00 00 00 	movl   $0x0,-0x38(%ebp)
    3dcd:	8d 76 00             	lea    0x0(%esi),%esi
    3dd0:	8b 4d b8             	mov    -0x48(%ebp),%ecx
    3dd3:	8b 45 cc             	mov    -0x34(%ebp),%eax
    3dd6:	85 c0                	test   %eax,%eax
    3dd8:	c7 01 00 00 00 00    	movl   $0x0,(%ecx)
    3dde:	0f 84 c2 00 00 00    	je     3ea6 <grid_rearrange+0x216>
    3de4:	8b 7d b0             	mov    -0x50(%ebp),%edi
    3de7:	c7 45 dc 00 00 00 00 	movl   $0x0,-0x24(%ebp)
    3dee:	29 f9                	sub    %edi,%ecx
    3df0:	89 4d d8             	mov    %ecx,-0x28(%ebp)
    3df3:	90                   	nop
    3df4:	8d 74 26 00          	lea    0x0(%esi,%eiz,1),%esi
    3df8:	8b 75 c4             	mov    -0x3c(%ebp),%esi
    3dfb:	39 75 c8             	cmp    %esi,-0x38(%ebp)
    3dfe:	0f 83 84 00 00 00    	jae    3e88 <grid_rearrange+0x1f8>
    3e04:	8b 7d cc             	mov    -0x34(%ebp),%edi
    3e07:	39 7d dc             	cmp    %edi,-0x24(%ebp)
    3e0a:	73 7c                	jae    3e88 <grid_rearrange+0x1f8>
    3e0c:	8b 4d bc             	mov    -0x44(%ebp),%ecx
    3e0f:	8b 55 d8             	mov    -0x28(%ebp),%edx
    3e12:	03 51 64             	add    0x64(%ecx),%edx
    3e15:	74 71                	je     3e88 <grid_rearrange+0x1f8>
    3e17:	8b 02                	mov    (%edx),%eax
    3e19:	85 c0                	test   %eax,%eax
    3e1b:	74 6b                	je     3e88 <grid_rearrange+0x1f8>
    3e1d:	8b 5a 04             	mov    0x4(%edx),%ebx
    3e20:	8b 48 38             	mov    0x38(%eax),%ecx
    3e23:	85 db                	test   %ebx,%ebx
    3e25:	8b 40 28             	mov    0x28(%eax),%eax
    3e28:	0f 84 01 05 00 00    	je     432f <grid_rearrange+0x69f>
    3e2e:	31 d2                	xor    %edx,%edx
    3e30:	8d 7b ff             	lea    -0x1(%ebx),%edi
    3e33:	f7 f3                	div    %ebx
    3e35:	89 d6                	mov    %edx,%esi
    3e37:	89 45 e4             	mov    %eax,-0x1c(%ebp)
    3e3a:	31 d2                	xor    %edx,%edx
    3e3c:	89 c8                	mov    %ecx,%eax
    3e3e:	f7 f3                	div    %ebx
    3e40:	03 75 e4             	add    -0x1c(%ebp),%esi
    3e43:	89 45 e0             	mov    %eax,-0x20(%ebp)
    3e46:	89 d1                	mov    %edx,%ecx
    3e48:	89 75 d4             	mov    %esi,-0x2c(%ebp)
    3e4b:	8b 75 e0             	mov    -0x20(%ebp),%esi
    3e4e:	8b 45 b8             	mov    -0x48(%ebp),%eax
    3e51:	01 f1                	add    %esi,%ecx
    3e53:	31 d2                	xor    %edx,%edx
    3e55:	89 4d d0             	mov    %ecx,-0x30(%ebp)
    3e58:	eb 22                	jmp    3e7c <grid_rearrange+0x1ec>
    3e5a:	8d b6 00 00 00 00    	lea    0x0(%esi),%esi
    3e60:	8b 4d e0             	mov    -0x20(%ebp),%ecx
    3e63:	8b 75 e4             	mov    -0x1c(%ebp),%esi
    3e66:	39 30                	cmp    %esi,(%eax)
    3e68:	73 02                	jae    3e6c <grid_rearrange+0x1dc>
    3e6a:	89 30                	mov    %esi,(%eax)
    3e6c:	39 48 04             	cmp    %ecx,0x4(%eax)
    3e6f:	73 03                	jae    3e74 <grid_rearrange+0x1e4>
    3e71:	89 48 04             	mov    %ecx,0x4(%eax)
    3e74:	42                   	inc    %edx
    3e75:	83 c0 0c             	add    $0xc,%eax
    3e78:	39 da                	cmp    %ebx,%edx
    3e7a:	74 0c                	je     3e88 <grid_rearrange+0x1f8>
    3e7c:	39 fa                	cmp    %edi,%edx
    3e7e:	75 e0                	jne    3e60 <grid_rearrange+0x1d0>
    3e80:	8b 75 d4             	mov    -0x2c(%ebp),%esi
    3e83:	8b 4d d0             	mov    -0x30(%ebp),%ecx
    3e86:	eb de                	jmp    3e66 <grid_rearrange+0x1d6>
    3e88:	8b 45 dc             	mov    -0x24(%ebp),%eax
    3e8b:	8b 4d c0             	mov    -0x40(%ebp),%ecx
    3e8e:	40                   	inc    %eax
    3e8f:	8b 75 cc             	mov    -0x34(%ebp),%esi
    3e92:	89 45 dc             	mov    %eax,-0x24(%ebp)
    3e95:	8b 45 d8             	mov    -0x28(%ebp),%eax
    3e98:	01 c8                	add    %ecx,%eax
    3e9a:	39 75 dc             	cmp    %esi,-0x24(%ebp)
    3e9d:	89 45 d8             	mov    %eax,-0x28(%ebp)
    3ea0:	0f 85 52 ff ff ff    	jne    3df8 <grid_rearrange+0x168>
    3ea6:	8b 45 c8             	mov    -0x38(%ebp),%eax
    3ea9:	8b 7d c4             	mov    -0x3c(%ebp),%edi
    3eac:	40                   	inc    %eax
    3ead:	89 45 c8             	mov    %eax,-0x38(%ebp)
    3eb0:	8b 45 b8             	mov    -0x48(%ebp),%eax
    3eb3:	83 c0 0c             	add    $0xc,%eax
    3eb6:	39 7d c8             	cmp    %edi,-0x38(%ebp)
    3eb9:	89 45 b8             	mov    %eax,-0x48(%ebp)
    3ebc:	0f 85 0e ff ff ff    	jne    3dd0 <grid_rearrange+0x140>
    3ec2:	8b 45 c0             	mov    -0x40(%ebp),%eax
    3ec5:	8b 4d b0             	mov    -0x50(%ebp),%ecx
    3ec8:	01 c1                	add    %eax,%ecx
    3eca:	31 d2                	xor    %edx,%edx
    3ecc:	8b 45 a8             	mov    -0x58(%ebp),%eax
    3ecf:	90                   	nop
    3ed0:	8b 18                	mov    (%eax),%ebx
    3ed2:	89 58 08             	mov    %ebx,0x8(%eax)
    3ed5:	83 c0 0c             	add    $0xc,%eax
    3ed8:	01 da                	add    %ebx,%edx
    3eda:	39 c8                	cmp    %ecx,%eax
    3edc:	75 f2                	jne    3ed0 <grid_rearrange+0x240>
    3ede:	39 55 ac             	cmp    %edx,-0x54(%ebp)
    3ee1:	76 6f                	jbe    3f52 <grid_rearrange+0x2c2>
    3ee3:	8b 45 ac             	mov    -0x54(%ebp),%eax
    3ee6:	29 d0                	sub    %edx,%eax
    3ee8:	31 d2                	xor    %edx,%edx
    3eea:	f7 75 c4             	divl   -0x3c(%ebp)
    3eed:	89 c6                	mov    %eax,%esi
    3eef:	85 c0                	test   %eax,%eax
    3ef1:	74 5f                	je     3f52 <grid_rearrange+0x2c2>
    3ef3:	8b 7d c4             	mov    -0x3c(%ebp),%edi
    3ef6:	8b 55 b0             	mov    -0x50(%ebp),%edx
    3ef9:	8b 4d c4             	mov    -0x3c(%ebp),%ecx
    3efc:	8b 5d ac             	mov    -0x54(%ebp),%ebx
    3eff:	8d 04 7f             	lea    (%edi,%edi,2),%eax
    3f02:	8d 3c 82             	lea    (%edx,%eax,4),%edi
    3f05:	89 f0                	mov    %esi,%eax
    3f07:	89 7d e0             	mov    %edi,-0x20(%ebp)
    3f0a:	eb 14                	jmp    3f20 <grid_rearrange+0x290>
    3f0c:	8d 74 26 00          	lea    0x0(%esi,%eiz,1),%esi
    3f10:	39 d3                	cmp    %edx,%ebx
    3f12:	76 3e                	jbe    3f52 <grid_rearrange+0x2c2>
    3f14:	89 d8                	mov    %ebx,%eax
    3f16:	29 d0                	sub    %edx,%eax
    3f18:	31 d2                	xor    %edx,%edx
    3f1a:	f7 f1                	div    %ecx
    3f1c:	85 c0                	test   %eax,%eax
    3f1e:	74 32                	je     3f52 <grid_rearrange+0x2c2>
    3f20:	31 d2                	xor    %edx,%edx
    3f22:	85 c9                	test   %ecx,%ecx
    3f24:	74 ea                	je     3f10 <grid_rearrange+0x280>
    3f26:	8b 7d b0             	mov    -0x50(%ebp),%edi
    3f29:	89 c6                	mov    %eax,%esi
    3f2b:	89 4d dc             	mov    %ecx,-0x24(%ebp)
    3f2e:	8b 47 08             	mov    0x8(%edi),%eax
    3f31:	8d 0c 30             	lea    (%eax,%esi,1),%ecx
    3f34:	89 4d e4             	mov    %ecx,-0x1c(%ebp)
    3f37:	3b 4f 04             	cmp    0x4(%edi),%ecx
    3f3a:	73 05                	jae    3f41 <grid_rearrange+0x2b1>
    3f3c:	89 4f 08             	mov    %ecx,0x8(%edi)
    3f3f:	89 c8                	mov    %ecx,%eax
    3f41:	83 c7 0c             	add    $0xc,%edi
    3f44:	01 c2                	add    %eax,%edx
    3f46:	3b 7d e0             	cmp    -0x20(%ebp),%edi
    3f49:	75 e3                	jne    3f2e <grid_rearrange+0x29e>
    3f4b:	8b 4d dc             	mov    -0x24(%ebp),%ecx
    3f4e:	39 d3                	cmp    %edx,%ebx
    3f50:	77 c2                	ja     3f14 <grid_rearrange+0x284>
    3f52:	8b 4d cc             	mov    -0x34(%ebp),%ecx
    3f55:	c7 44 24 04 0c 00 00 	movl   $0xc,0x4(%esp)
    3f5c:	00 
    3f5d:	89 0c 24             	mov    %ecx,(%esp)
    3f60:	e8 0b 48 01 00       	call   18770 <calloc>
    3f65:	89 45 a8             	mov    %eax,-0x58(%ebp)
    3f68:	85 c0                	test   %eax,%eax
    3f6a:	0f 84 9d 03 00 00    	je     430d <grid_rearrange+0x67d>
    3f70:	8b 75 bc             	mov    -0x44(%ebp),%esi
    3f73:	8b 76 60             	mov    0x60(%esi),%esi
    3f76:	89 75 c8             	mov    %esi,-0x38(%ebp)
    3f79:	85 f6                	test   %esi,%esi
    3f7b:	0f 84 97 03 00 00    	je     4318 <grid_rearrange+0x688>
    3f81:	8b 7d bc             	mov    -0x44(%ebp),%edi
    3f84:	89 45 9c             	mov    %eax,-0x64(%ebp)
    3f87:	c7 45 b8 00 00 00 00 	movl   $0x0,-0x48(%ebp)
    3f8e:	c7 45 c0 00 00 00 00 	movl   $0x0,-0x40(%ebp)
    3f95:	8b 7f 5c             	mov    0x5c(%edi),%edi
    3f98:	89 7d cc             	mov    %edi,-0x34(%ebp)
    3f9b:	8d 04 7f             	lea    (%edi,%edi,2),%eax
    3f9e:	c1 e0 02             	shl    $0x2,%eax
    3fa1:	89 45 ac             	mov    %eax,-0x54(%ebp)
    3fa4:	8b 45 a8             	mov    -0x58(%ebp),%eax
    3fa7:	89 45 c4             	mov    %eax,-0x3c(%ebp)
    3faa:	8d b6 00 00 00 00    	lea    0x0(%esi),%esi
    3fb0:	8b 4d c4             	mov    -0x3c(%ebp),%ecx
    3fb3:	8b 7d cc             	mov    -0x34(%ebp),%edi
    3fb6:	85 ff                	test   %edi,%edi
    3fb8:	c7 01 00 00 00 00    	movl   $0x0,(%ecx)
    3fbe:	0f 84 c0 00 00 00    	je     4084 <grid_rearrange+0x3f4>
    3fc4:	8b 75 b8             	mov    -0x48(%ebp),%esi
    3fc7:	c7 45 dc 00 00 00 00 	movl   $0x0,-0x24(%ebp)
    3fce:	89 75 d8             	mov    %esi,-0x28(%ebp)
    3fd1:	8d b4 26 00 00 00 00 	lea    0x0(%esi,%eiz,1),%esi
    3fd8:	8b 7d cc             	mov    -0x34(%ebp),%edi
    3fdb:	39 7d dc             	cmp    %edi,-0x24(%ebp)
    3fde:	0f 83 84 00 00 00    	jae    4068 <grid_rearrange+0x3d8>
    3fe4:	8b 4d c8             	mov    -0x38(%ebp),%ecx
    3fe7:	39 4d c0             	cmp    %ecx,-0x40(%ebp)
    3fea:	73 7c                	jae    4068 <grid_rearrange+0x3d8>
    3fec:	8b 75 bc             	mov    -0x44(%ebp),%esi
    3fef:	8b 55 d8             	mov    -0x28(%ebp),%edx
    3ff2:	03 56 64             	add    0x64(%esi),%edx
    3ff5:	74 71                	je     4068 <grid_rearrange+0x3d8>
    3ff7:	8b 02                	mov    (%edx),%eax
    3ff9:	85 c0                	test   %eax,%eax
    3ffb:	74 6b                	je     4068 <grid_rearrange+0x3d8>
    3ffd:	8b 5a 08             	mov    0x8(%edx),%ebx
    4000:	8b 48 3c             	mov    0x3c(%eax),%ecx
    4003:	85 db                	test   %ebx,%ebx
    4005:	8b 40 2c             	mov    0x2c(%eax),%eax
    4008:	0f 84 21 03 00 00    	je     432f <grid_rearrange+0x69f>
    400e:	31 d2                	xor    %edx,%edx
    4010:	8d 7b ff             	lea    -0x1(%ebx),%edi
    4013:	f7 f3                	div    %ebx
    4015:	89 d6                	mov    %edx,%esi
    4017:	89 45 e4             	mov    %eax,-0x1c(%ebp)
    401a:	31 d2                	xor    %edx,%edx
    401c:	89 c8                	mov    %ecx,%eax
    401e:	f7 f3                	div    %ebx
    4020:	03 75 e4             	add    -0x1c(%ebp),%esi
    4023:	89 45 e0             	mov    %eax,-0x20(%ebp)
    4026:	89 d1                	mov    %edx,%ecx
    4028:	89 75 d4             	mov    %esi,-0x2c(%ebp)
    402b:	8b 75 e0             	mov    -0x20(%ebp),%esi
    402e:	8b 45 c4             	mov    -0x3c(%ebp),%eax
    4031:	01 f1                	add    %esi,%ecx
    4033:	31 d2                	xor    %edx,%edx
    4035:	89 4d d0             	mov    %ecx,-0x30(%ebp)
    4038:	eb 22                	jmp    405c <grid_rearrange+0x3cc>
    403a:	8d b6 00 00 00 00    	lea    0x0(%esi),%esi
    4040:	8b 4d e0             	mov    -0x20(%ebp),%ecx
    4043:	8b 75 e4             	mov    -0x1c(%ebp),%esi
    4046:	39 30                	cmp    %esi,(%eax)
    4048:	73 02                	jae    404c <grid_rearrange+0x3bc>
    404a:	89 30                	mov    %esi,(%eax)
    404c:	39 48 04             	cmp    %ecx,0x4(%eax)
    404f:	73 03                	jae    4054 <grid_rearrange+0x3c4>
    4051:	89 48 04             	mov    %ecx,0x4(%eax)
    4054:	42                   	inc    %edx
    4055:	83 c0 0c             	add    $0xc,%eax
    4058:	39 da                	cmp    %ebx,%edx
    405a:	74 0c                	je     4068 <grid_rearrange+0x3d8>
    405c:	39 fa                	cmp    %edi,%edx
    405e:	75 e0                	jne    4040 <grid_rearrange+0x3b0>
    4060:	8b 75 d4             	mov    -0x2c(%ebp),%esi
    4063:	8b 4d d0             	mov    -0x30(%ebp),%ecx
    4066:	eb de                	jmp    4046 <grid_rearrange+0x3b6>
    4068:	8b 45 dc             	mov    -0x24(%ebp),%eax
    406b:	8b 4d cc             	mov    -0x34(%ebp),%ecx
    406e:	40                   	inc    %eax
    406f:	89 45 dc             	mov    %eax,-0x24(%ebp)
    4072:	8b 45 d8             	mov    -0x28(%ebp),%eax
    4075:	83 c0 0c             	add    $0xc,%eax
    4078:	39 4d dc             	cmp    %ecx,-0x24(%ebp)
    407b:	89 45 d8             	mov    %eax,-0x28(%ebp)
    407e:	0f 85 54 ff ff ff    	jne    3fd8 <grid_rearrange+0x348>
    4084:	8b 45 c4             	mov    -0x3c(%ebp),%eax
    4087:	8b 7d c0             	mov    -0x40(%ebp),%edi
    408a:	83 c0 0c             	add    $0xc,%eax
    408d:	47                   	inc    %edi
    408e:	89 45 c4             	mov    %eax,-0x3c(%ebp)
    4091:	8b 75 ac             	mov    -0x54(%ebp),%esi
    4094:	8b 45 b8             	mov    -0x48(%ebp),%eax
    4097:	89 7d c0             	mov    %edi,-0x40(%ebp)
    409a:	01 f0                	add    %esi,%eax
    409c:	8b 7d c8             	mov    -0x38(%ebp),%edi
    409f:	89 45 b8             	mov    %eax,-0x48(%ebp)
    40a2:	39 7d c0             	cmp    %edi,-0x40(%ebp)
    40a5:	0f 85 05 ff ff ff    	jne    3fb0 <grid_rearrange+0x320>
    40ab:	8d 04 7f             	lea    (%edi,%edi,2),%eax
    40ae:	8b 55 a8             	mov    -0x58(%ebp),%edx
    40b1:	8d 0c 82             	lea    (%edx,%eax,4),%ecx
    40b4:	31 d2                	xor    %edx,%edx
    40b6:	8b 45 9c             	mov    -0x64(%ebp),%eax
    40b9:	8d b4 26 00 00 00 00 	lea    0x0(%esi,%eiz,1),%esi
    40c0:	8b 18                	mov    (%eax),%ebx
    40c2:	89 58 08             	mov    %ebx,0x8(%eax)
    40c5:	83 c0 0c             	add    $0xc,%eax
    40c8:	01 da                	add    %ebx,%edx
    40ca:	39 c8                	cmp    %ecx,%eax
    40cc:	75 f2                	jne    40c0 <grid_rearrange+0x430>
    40ce:	39 55 a0             	cmp    %edx,-0x60(%ebp)
    40d1:	76 68                	jbe    413b <grid_rearrange+0x4ab>
    40d3:	8b 45 a0             	mov    -0x60(%ebp),%eax
    40d6:	29 d0                	sub    %edx,%eax
    40d8:	31 d2                	xor    %edx,%edx
    40da:	f7 75 c8             	divl   -0x38(%ebp)
    40dd:	85 c0                	test   %eax,%eax
    40df:	74 5a                	je     413b <grid_rearrange+0x4ab>
    40e1:	8b 4d c8             	mov    -0x38(%ebp),%ecx
    40e4:	8b 75 a8             	mov    -0x58(%ebp),%esi
    40e7:	8b 5d a0             	mov    -0x60(%ebp),%ebx
    40ea:	8d 14 49             	lea    (%ecx,%ecx,2),%edx
    40ed:	8d 3c 96             	lea    (%esi,%edx,4),%edi
    40f0:	89 7d e0             	mov    %edi,-0x20(%ebp)
    40f3:	eb 13                	jmp    4108 <grid_rearrange+0x478>
    40f5:	8d 76 00             	lea    0x0(%esi),%esi
    40f8:	39 d3                	cmp    %edx,%ebx
    40fa:	76 3f                	jbe    413b <grid_rearrange+0x4ab>
    40fc:	89 d8                	mov    %ebx,%eax
    40fe:	29 d0                	sub    %edx,%eax
    4100:	31 d2                	xor    %edx,%edx
    4102:	f7 f1                	div    %ecx
    4104:	85 c0                	test   %eax,%eax
    4106:	74 33                	je     413b <grid_rearrange+0x4ab>
    4108:	31 d2                	xor    %edx,%edx
    410a:	85 c9                	test   %ecx,%ecx
    410c:	74 ea                	je     40f8 <grid_rearrange+0x468>
    410e:	8b 7d a8             	mov    -0x58(%ebp),%edi
    4111:	89 ce                	mov    %ecx,%esi
    4113:	89 45 dc             	mov    %eax,-0x24(%ebp)
    4116:	8b 4f 08             	mov    0x8(%edi),%ecx
    4119:	8b 45 dc             	mov    -0x24(%ebp),%eax
    411c:	01 c8                	add    %ecx,%eax
    411e:	89 45 e4             	mov    %eax,-0x1c(%ebp)
    4121:	3b 47 04             	cmp    0x4(%edi),%eax
    4124:	73 05                	jae    412b <grid_rearrange+0x49b>
    4126:	89 47 08             	mov    %eax,0x8(%edi)
    4129:	89 c1                	mov    %eax,%ecx
    412b:	83 c7 0c             	add    $0xc,%edi
    412e:	01 ca                	add    %ecx,%edx
    4130:	3b 7d e0             	cmp    -0x20(%ebp),%edi
    4133:	75 e1                	jne    4116 <grid_rearrange+0x486>
    4135:	89 f1                	mov    %esi,%ecx
    4137:	39 d3                	cmp    %edx,%ebx
    4139:	77 c1                	ja     40fc <grid_rearrange+0x46c>
    413b:	8b 75 b0             	mov    -0x50(%ebp),%esi
    413e:	85 f6                	test   %esi,%esi
    4140:	0f 84 97 01 00 00    	je     42dd <grid_rearrange+0x64d>
    4146:	8b 5d c8             	mov    -0x38(%ebp),%ebx
    4149:	85 db                	test   %ebx,%ebx
    414b:	0f 84 7b 01 00 00    	je     42cc <grid_rearrange+0x63c>
    4151:	8b 45 a8             	mov    -0x58(%ebp),%eax
    4154:	8b 7d bc             	mov    -0x44(%ebp),%edi
    4157:	89 45 d4             	mov    %eax,-0x2c(%ebp)
    415a:	83 c0 08             	add    $0x8,%eax
    415d:	89 45 d0             	mov    %eax,-0x30(%ebp)
    4160:	8b 45 b0             	mov    -0x50(%ebp),%eax
    4163:	8b 7f 5c             	mov    0x5c(%edi),%edi
    4166:	83 c0 08             	add    $0x8,%eax
    4169:	89 7d e0             	mov    %edi,-0x20(%ebp)
    416c:	c7 45 d8 00 00 00 00 	movl   $0x0,-0x28(%ebp)
    4173:	89 45 cc             	mov    %eax,-0x34(%ebp)
    4176:	8b 45 e0             	mov    -0x20(%ebp),%eax
    4179:	85 c0                	test   %eax,%eax
    417b:	0f 84 21 01 00 00    	je     42a2 <grid_rearrange+0x612>
    4181:	8b 7d a4             	mov    -0x5c(%ebp),%edi
    4184:	8b 5d b0             	mov    -0x50(%ebp),%ebx
    4187:	89 7d dc             	mov    %edi,-0x24(%ebp)
    418a:	c7 45 e4 00 00 00 00 	movl   $0x0,-0x1c(%ebp)
    4191:	8d b4 26 00 00 00 00 	lea    0x0(%esi,%eiz,1),%esi
    4198:	8b 55 e4             	mov    -0x1c(%ebp),%edx
    419b:	39 55 e0             	cmp    %edx,-0x20(%ebp)
    419e:	0f 86 e8 00 00 00    	jbe    428c <grid_rearrange+0x5fc>
    41a4:	8b 4d d8             	mov    -0x28(%ebp),%ecx
    41a7:	39 4d c8             	cmp    %ecx,-0x38(%ebp)
    41aa:	0f 86 dc 00 00 00    	jbe    428c <grid_rearrange+0x5fc>
    41b0:	8b 45 e0             	mov    -0x20(%ebp),%eax
    41b3:	8b 75 bc             	mov    -0x44(%ebp),%esi
    41b6:	0f af c1             	imul   %ecx,%eax
    41b9:	01 d0                	add    %edx,%eax
    41bb:	8d 14 40             	lea    (%eax,%eax,2),%edx
    41be:	8b 46 64             	mov    0x64(%esi),%eax
    41c1:	8d 3c 90             	lea    (%eax,%edx,4),%edi
    41c4:	85 ff                	test   %edi,%edi
    41c6:	0f 84 c0 00 00 00    	je     428c <grid_rearrange+0x5fc>
    41cc:	8b 37                	mov    (%edi),%esi
    41ce:	85 f6                	test   %esi,%esi
    41d0:	0f 84 ab 00 00 00    	je     4281 <grid_rearrange+0x5f1>
    41d6:	8b 57 04             	mov    0x4(%edi),%edx
    41d9:	85 d2                	test   %edx,%edx
    41db:	0f 84 17 01 00 00    	je     42f8 <grid_rearrange+0x668>
    41e1:	8b 4d e4             	mov    -0x1c(%ebp),%ecx
    41e4:	8d 43 08             	lea    0x8(%ebx),%eax
    41e7:	01 ca                	add    %ecx,%edx
    41e9:	8b 4d cc             	mov    -0x34(%ebp),%ecx
    41ec:	8d 14 52             	lea    (%edx,%edx,2),%edx
    41ef:	8d 14 91             	lea    (%ecx,%edx,4),%edx
    41f2:	31 c9                	xor    %ecx,%ecx
    41f4:	8d 74 26 00          	lea    0x0(%esi,%eiz,1),%esi
    41f8:	03 08                	add    (%eax),%ecx
    41fa:	83 c0 0c             	add    $0xc,%eax
    41fd:	39 d0                	cmp    %edx,%eax
    41ff:	75 f7                	jne    41f8 <grid_rearrange+0x568>
    4201:	8b 57 08             	mov    0x8(%edi),%edx
    4204:	85 d2                	test   %edx,%edx
    4206:	74 79                	je     4281 <grid_rearrange+0x5f1>
    4208:	8b 45 d8             	mov    -0x28(%ebp),%eax
    420b:	8b 7d d4             	mov    -0x2c(%ebp),%edi
    420e:	01 c2                	add    %eax,%edx
    4210:	83 c7 08             	add    $0x8,%edi
    4213:	8b 45 d0             	mov    -0x30(%ebp),%eax
    4216:	89 7d c4             	mov    %edi,-0x3c(%ebp)
    4219:	8d 14 52             	lea    (%edx,%edx,2),%edx
    421c:	8d 3c 90             	lea    (%eax,%edx,4),%edi
    421f:	31 d2                	xor    %edx,%edx
    4221:	8b 45 c4             	mov    -0x3c(%ebp),%eax
    4224:	8d 74 26 00          	lea    0x0(%esi,%eiz,1),%esi
    4228:	03 10                	add    (%eax),%edx
    422a:	83 c0 0c             	add    $0xc,%eax
    422d:	39 f8                	cmp    %edi,%eax
    422f:	75 f7                	jne    4228 <grid_rearrange+0x598>
    4231:	85 d2                	test   %edx,%edx
    4233:	74 4c                	je     4281 <grid_rearrange+0x5f1>
    4235:	85 c9                	test   %ecx,%ecx
    4237:	74 48                	je     4281 <grid_rearrange+0x5f1>
    4239:	8b 46 38             	mov    0x38(%esi),%eax
    423c:	85 c0                	test   %eax,%eax
    423e:	74 06                	je     4246 <grid_rearrange+0x5b6>
    4240:	39 c1                	cmp    %eax,%ecx
    4242:	76 02                	jbe    4246 <grid_rearrange+0x5b6>
    4244:	89 c1                	mov    %eax,%ecx
    4246:	8b 46 3c             	mov    0x3c(%esi),%eax
    4249:	85 c0                	test   %eax,%eax
    424b:	74 06                	je     4253 <grid_rearrange+0x5c3>
    424d:	39 c2                	cmp    %eax,%edx
    424f:	76 02                	jbe    4253 <grid_rearrange+0x5c3>
    4251:	89 c2                	mov    %eax,%edx
    4253:	89 54 24 10          	mov    %edx,0x10(%esp)
    4257:	89 4c 24 0c          	mov    %ecx,0xc(%esp)
    425b:	8b 55 b4             	mov    -0x4c(%ebp),%edx
    425e:	8b 4d dc             	mov    -0x24(%ebp),%ecx
    4261:	89 34 24             	mov    %esi,(%esp)
    4264:	89 54 24 08          	mov    %edx,0x8(%esp)
    4268:	89 4c 24 04          	mov    %ecx,0x4(%esp)
    426c:	ff 56 48             	call   *0x48(%esi)
    426f:	8b 75 bc             	mov    -0x44(%ebp),%esi
    4272:	8b 7d bc             	mov    -0x44(%ebp),%edi
    4275:	8b 76 60             	mov    0x60(%esi),%esi
    4278:	89 75 c8             	mov    %esi,-0x38(%ebp)
    427b:	8b 7f 5c             	mov    0x5c(%edi),%edi
    427e:	89 7d e0             	mov    %edi,-0x20(%ebp)
    4281:	8b 4d dc             	mov    -0x24(%ebp),%ecx
    4284:	8b 43 08             	mov    0x8(%ebx),%eax
    4287:	01 c1                	add    %eax,%ecx
    4289:	89 4d dc             	mov    %ecx,-0x24(%ebp)
    428c:	8b 55 e4             	mov    -0x1c(%ebp),%edx
    428f:	83 c3 0c             	add    $0xc,%ebx
    4292:	42                   	inc    %edx
    4293:	89 55 e4             	mov    %edx,-0x1c(%ebp)
    4296:	8b 55 e0             	mov    -0x20(%ebp),%edx
    4299:	39 55 e4             	cmp    %edx,-0x1c(%ebp)
    429c:	0f 82 f6 fe ff ff    	jb     4198 <grid_rearrange+0x508>
    42a2:	8b 4d d4             	mov    -0x2c(%ebp),%ecx
    42a5:	8b 45 b4             	mov    -0x4c(%ebp),%eax
    42a8:	8b 75 c8             	mov    -0x38(%ebp),%esi
    42ab:	8b 49 08             	mov    0x8(%ecx),%ecx
    42ae:	01 c8                	add    %ecx,%eax
    42b0:	89 45 b4             	mov    %eax,-0x4c(%ebp)
    42b3:	8b 45 d8             	mov    -0x28(%ebp),%eax
    42b6:	40                   	inc    %eax
    42b7:	89 45 d8             	mov    %eax,-0x28(%ebp)
    42ba:	8b 45 d4             	mov    -0x2c(%ebp),%eax
    42bd:	83 c0 0c             	add    $0xc,%eax
    42c0:	39 75 d8             	cmp    %esi,-0x28(%ebp)
    42c3:	89 45 d4             	mov    %eax,-0x2c(%ebp)
    42c6:	0f 82 aa fe ff ff    	jb     4176 <grid_rearrange+0x4e6>
    42cc:	b3 01                	mov    $0x1,%bl
    42ce:	8b 45 b0             	mov    -0x50(%ebp),%eax
    42d1:	89 04 24             	mov    %eax,(%esp)
    42d4:	e8 07 46 01 00       	call   188e0 <free>
    42d9:	84 db                	test   %bl,%bl
    42db:	74 12                	je     42ef <grid_rearrange+0x65f>
    42dd:	8b 45 a8             	mov    -0x58(%ebp),%eax
    42e0:	89 45 08             	mov    %eax,0x8(%ebp)
    42e3:	83 c4 7c             	add    $0x7c,%esp
    42e6:	5b                   	pop    %ebx
    42e7:	5e                   	pop    %esi
    42e8:	5f                   	pop    %edi
    42e9:	5d                   	pop    %ebp
    42ea:	e9 f1 45 01 00       	jmp    188e0 <free>
    42ef:	83 c4 7c             	add    $0x7c,%esp
    42f2:	5b                   	pop    %ebx
    42f3:	5e                   	pop    %esi
    42f4:	5f                   	pop    %edi
    42f5:	5d                   	pop    %ebp
    42f6:	c3                   	ret    
    42f7:	90                   	nop
    42f8:	31 c9                	xor    %ecx,%ecx
    42fa:	e9 02 ff ff ff       	jmp    4201 <grid_rearrange+0x571>
    42ff:	8b 75 bc             	mov    -0x44(%ebp),%esi
    4302:	8b 76 60             	mov    0x60(%esi),%esi
    4305:	89 75 cc             	mov    %esi,-0x34(%ebp)
    4308:	e9 45 fc ff ff       	jmp    3f52 <grid_rearrange+0x2c2>
    430d:	8b 45 b0             	mov    -0x50(%ebp),%eax
    4310:	85 c0                	test   %eax,%eax
    4312:	74 db                	je     42ef <grid_rearrange+0x65f>
    4314:	31 db                	xor    %ebx,%ebx
    4316:	eb b6                	jmp    42ce <grid_rearrange+0x63e>
    4318:	31 d2                	xor    %edx,%edx
    431a:	e9 af fd ff ff       	jmp    40ce <grid_rearrange+0x43e>
    431f:	8b 75 bc             	mov    -0x44(%ebp),%esi
    4322:	31 d2                	xor    %edx,%edx
    4324:	8b 76 60             	mov    0x60(%esi),%esi
    4327:	89 75 cc             	mov    %esi,-0x34(%ebp)
    432a:	e9 af fb ff ff       	jmp    3ede <grid_rearrange+0x24e>
    432f:	c7 44 24 08 77 00 00 	movl   $0x77,0x8(%esp)
    4336:	00 
    4337:	c7 44 24 04 a6 53 02 	movl   $0x253a6,0x4(%esp)
    433e:	00 
    433f:	c7 04 24 ad 53 02 00 	movl   $0x253ad,(%esp)
    4346:	e8 65 ed 01 00       	call   230b0 <assert_abort>
    434b:	90                   	nop
    434c:	8d 74 26 00          	lea    0x0(%esi,%eiz,1),%esi

00004350 <deinit_grid>:
    4350:	55                   	push   %ebp
    4351:	89 e5                	mov    %esp,%ebp
    4353:	53                   	push   %ebx
    4354:	83 ec 14             	sub    $0x14,%esp
    4357:	8b 5d 08             	mov    0x8(%ebp),%ebx
    435a:	89 1c 24             	mov    %ebx,(%esp)
    435d:	e8 7e 07 00 00       	call   4ae0 <widget_deinit>
    4362:	8b 43 64             	mov    0x64(%ebx),%eax
    4365:	89 45 08             	mov    %eax,0x8(%ebp)
    4368:	83 c4 14             	add    $0x14,%esp
    436b:	5b                   	pop    %ebx
    436c:	5d                   	pop    %ebp
    436d:	e9 6e 45 01 00       	jmp    188e0 <free>
    4372:	8d b4 26 00 00 00 00 	lea    0x0(%esi,%eiz,1),%esi
    4379:	8d bc 27 00 00 00 00 	lea    0x0(%edi,%eiz,1),%edi

00004380 <init_grid>:
    4380:	55                   	push   %ebp
    4381:	89 e5                	mov    %esp,%ebp
    4383:	57                   	push   %edi
    4384:	56                   	push   %esi
    4385:	53                   	push   %ebx
    4386:	83 ec 1c             	sub    $0x1c,%esp
    4389:	8b 75 14             	mov    0x14(%ebp),%esi
    438c:	8b 5d 08             	mov    0x8(%ebp),%ebx
    438f:	85 f6                	test   %esi,%esi
    4391:	75 0d                	jne    43a0 <init_grid+0x20>
    4393:	83 c4 1c             	add    $0x1c,%esp
    4396:	31 c0                	xor    %eax,%eax
    4398:	5b                   	pop    %ebx
    4399:	5e                   	pop    %esi
    439a:	5f                   	pop    %edi
    439b:	5d                   	pop    %ebp
    439c:	c3                   	ret    
    439d:	8d 76 00             	lea    0x0(%esi),%esi
    43a0:	8b 45 10             	mov    0x10(%ebp),%eax
    43a3:	85 c0                	test   %eax,%eax
    43a5:	74 ec                	je     4393 <init_grid+0x13>
    43a7:	8b 7d 10             	mov    0x10(%ebp),%edi
    43aa:	c7 44 24 04 0c 00 00 	movl   $0xc,0x4(%esp)
    43b1:	00 
    43b2:	0f af fe             	imul   %esi,%edi
    43b5:	89 3c 24             	mov    %edi,(%esp)
    43b8:	e8 b3 43 01 00       	call   18770 <calloc>
    43bd:	89 43 64             	mov    %eax,0x64(%ebx)
    43c0:	85 c0                	test   %eax,%eax
    43c2:	74 cf                	je     4393 <init_grid+0x13>
    43c4:	8d 14 7f             	lea    (%edi,%edi,2),%edx
    43c7:	c7 44 24 04 00 00 00 	movl   $0x0,0x4(%esp)
    43ce:	00 
    43cf:	c1 e2 02             	shl    $0x2,%edx
    43d2:	89 04 24             	mov    %eax,(%esp)
    43d5:	89 54 24 08          	mov    %edx,0x8(%esp)
    43d9:	e8 72 70 00 00       	call   b450 <memset>
    43de:	8b 45 0c             	mov    0xc(%ebp),%eax
    43e1:	89 44 24 04          	mov    %eax,0x4(%esp)
    43e5:	89 1c 24             	mov    %ebx,(%esp)
    43e8:	e8 33 06 00 00       	call   4a20 <widget_init>
    43ed:	8b 45 18             	mov    0x18(%ebp),%eax
    43f0:	89 43 58             	mov    %eax,0x58(%ebx)
    43f3:	8b 45 10             	mov    0x10(%ebp),%eax
    43f6:	89 43 5c             	mov    %eax,0x5c(%ebx)
    43f9:	c7 43 40 60 3c 00 00 	movl   $0x3c60,0x40(%ebx)
    4400:	c7 43 44 f0 38 00 00 	movl   $0x38f0,0x44(%ebx)
    4407:	c7 43 48 90 3c 00 00 	movl   $0x3c90,0x48(%ebx)
    440e:	c7 43 4c f0 39 00 00 	movl   $0x39f0,0x4c(%ebx)
    4415:	c7 43 50 00 39 00 00 	movl   $0x3900,0x50(%ebx)
    441c:	c7 43 54 10 39 00 00 	movl   $0x3910,0x54(%ebx)
    4423:	c7 43 68 a0 3a 00 00 	movl   $0x3aa0,0x68(%ebx)
    442a:	89 73 60             	mov    %esi,0x60(%ebx)
    442d:	83 c4 1c             	add    $0x1c,%esp
    4430:	b0 01                	mov    $0x1,%al
    4432:	5b                   	pop    %ebx
    4433:	5e                   	pop    %esi
    4434:	5f                   	pop    %edi
    4435:	5d                   	pop    %ebp
    4436:	c3                   	ret    
    4437:	89 f6                	mov    %esi,%esi
    4439:	8d bc 27 00 00 00 00 	lea    0x0(%edi,%eiz,1),%edi

00004440 <create_grid>:
    4440:	55                   	push   %ebp
    4441:	89 e5                	mov    %esp,%ebp
    4443:	57                   	push   %edi
    4444:	56                   	push   %esi
    4445:	53                   	push   %ebx
    4446:	83 ec 1c             	sub    $0x1c,%esp
    4449:	8b 75 10             	mov    0x10(%ebp),%esi
    444c:	c7 04 24 6c 00 00 00 	movl   $0x6c,(%esp)
    4453:	e8 78 43 01 00       	call   187d0 <malloc>
    4458:	89 c3                	mov    %eax,%ebx
    445a:	85 c0                	test   %eax,%eax
    445c:	74 0e                	je     446c <create_grid+0x2c>
    445e:	85 f6                	test   %esi,%esi
    4460:	75 16                	jne    4478 <create_grid+0x38>
    4462:	89 1c 24             	mov    %ebx,(%esp)
    4465:	31 db                	xor    %ebx,%ebx
    4467:	e8 74 44 01 00       	call   188e0 <free>
    446c:	83 c4 1c             	add    $0x1c,%esp
    446f:	89 d8                	mov    %ebx,%eax
    4471:	5b                   	pop    %ebx
    4472:	5e                   	pop    %esi
    4473:	5f                   	pop    %edi
    4474:	5d                   	pop    %ebp
    4475:	c3                   	ret    
    4476:	66 90                	xchg   %ax,%ax
    4478:	8b 45 0c             	mov    0xc(%ebp),%eax
    447b:	85 c0                	test   %eax,%eax
    447d:	74 e3                	je     4462 <create_grid+0x22>
    447f:	8b 7d 0c             	mov    0xc(%ebp),%edi
    4482:	c7 44 24 04 0c 00 00 	movl   $0xc,0x4(%esp)
    4489:	00 
    448a:	0f af fe             	imul   %esi,%edi
    448d:	89 3c 24             	mov    %edi,(%esp)
    4490:	e8 db 42 01 00       	call   18770 <calloc>
    4495:	89 43 64             	mov    %eax,0x64(%ebx)
    4498:	85 c0                	test   %eax,%eax
    449a:	74 c6                	je     4462 <create_grid+0x22>
    449c:	8d 14 7f             	lea    (%edi,%edi,2),%edx
    449f:	c7 44 24 04 00 00 00 	movl   $0x0,0x4(%esp)
    44a6:	00 
    44a7:	c1 e2 02             	shl    $0x2,%edx
    44aa:	89 04 24             	mov    %eax,(%esp)
    44ad:	89 54 24 08          	mov    %edx,0x8(%esp)
    44b1:	e8 9a 6f 00 00       	call   b450 <memset>
    44b6:	8b 45 08             	mov    0x8(%ebp),%eax
    44b9:	89 44 24 04          	mov    %eax,0x4(%esp)
    44bd:	89 1c 24             	mov    %ebx,(%esp)
    44c0:	e8 5b 05 00 00       	call   4a20 <widget_init>
    44c5:	8b 45 14             	mov    0x14(%ebp),%eax
    44c8:	89 43 58             	mov    %eax,0x58(%ebx)
    44cb:	8b 45 0c             	mov    0xc(%ebp),%eax
    44ce:	89 43 5c             	mov    %eax,0x5c(%ebx)
    44d1:	c7 43 40 60 3c 00 00 	movl   $0x3c60,0x40(%ebx)
    44d8:	c7 43 44 f0 38 00 00 	movl   $0x38f0,0x44(%ebx)
    44df:	c7 43 48 90 3c 00 00 	movl   $0x3c90,0x48(%ebx)
    44e6:	c7 43 4c f0 39 00 00 	movl   $0x39f0,0x4c(%ebx)
    44ed:	c7 43 50 00 39 00 00 	movl   $0x3900,0x50(%ebx)
    44f4:	c7 43 54 10 39 00 00 	movl   $0x3910,0x54(%ebx)
    44fb:	c7 43 68 a0 3a 00 00 	movl   $0x3aa0,0x68(%ebx)
    4502:	89 73 60             	mov    %esi,0x60(%ebx)
    4505:	83 c4 1c             	add    $0x1c,%esp
    4508:	89 d8                	mov    %ebx,%eax
    450a:	5b                   	pop    %ebx
    450b:	5e                   	pop    %esi
    450c:	5f                   	pop    %edi
    450d:	5d                   	pop    %ebp
    450e:	c3                   	ret    
    450f:	90                   	nop

00004510 <label_reconfigure>:
    4510:	55                   	push   %ebp
    4511:	89 e5                	mov    %esp,%ebp
    4513:	5d                   	pop    %ebp
    4514:	c3                   	ret    
    4515:	8d 74 26 00          	lea    0x0(%esi,%eiz,1),%esi
    4519:	8d bc 27 00 00 00 00 	lea    0x0(%edi,%eiz,1),%edi

00004520 <label_handle_keyboard_event>:
    4520:	55                   	push   %ebp
    4521:	89 e5                	mov    %esp,%ebp
    4523:	5d                   	pop    %ebp
    4524:	c3                   	ret    
    4525:	8d 74 26 00          	lea    0x0(%esi,%eiz,1),%esi
    4529:	8d bc 27 00 00 00 00 	lea    0x0(%edi,%eiz,1),%edi

00004530 <label_handle_position_event>:
    4530:	55                   	push   %ebp
    4531:	89 e5                	mov    %esp,%ebp
    4533:	5d                   	pop    %ebp
    4534:	c3                   	ret    
    4535:	8d 74 26 00          	lea    0x0(%esi,%eiz,1),%esi
    4539:	8d bc 27 00 00 00 00 	lea    0x0(%edi,%eiz,1),%edi

00004540 <on_rewrite>:
    4540:	55                   	push   %ebp
    4541:	89 e5                	mov    %esp,%ebp
    4543:	53                   	push   %ebx
    4544:	83 ec 24             	sub    $0x24,%esp
    4547:	8b 45 0c             	mov    0xc(%ebp),%eax
    454a:	8b 5d 08             	mov    0x8(%ebp),%ebx
    454d:	85 c0                	test   %eax,%eax
    454f:	74 51                	je     45a2 <on_rewrite+0x62>
    4551:	89 04 24             	mov    %eax,(%esp)
    4554:	e8 27 9e 00 00       	call   e380 <str_dup>
    4559:	8d 55 f4             	lea    -0xc(%ebp),%edx
    455c:	89 83 20 01 00 00    	mov    %eax,0x120(%ebx)
    4562:	89 54 24 0c          	mov    %edx,0xc(%esp)
    4566:	89 44 24 04          	mov    %eax,0x4(%esp)
    456a:	8d 55 f0             	lea    -0x10(%ebp),%edx
    456d:	8d 83 24 01 00 00    	lea    0x124(%ebx),%eax
    4573:	89 54 24 08          	mov    %edx,0x8(%esp)
    4577:	89 04 24             	mov    %eax,(%esp)
    457a:	e8 f1 1f 00 00       	call   6570 <font_get_box>
    457f:	8b 45 f4             	mov    -0xc(%ebp),%eax
    4582:	83 c0 04             	add    $0x4,%eax
    4585:	8b 55 f0             	mov    -0x10(%ebp),%edx
    4588:	83 c2 04             	add    $0x4,%edx
    458b:	89 43 2c             	mov    %eax,0x2c(%ebx)
    458e:	89 43 34             	mov    %eax,0x34(%ebx)
    4591:	8b 43 14             	mov    0x14(%ebx),%eax
    4594:	89 53 28             	mov    %edx,0x28(%ebx)
    4597:	89 53 30             	mov    %edx,0x30(%ebx)
    459a:	89 04 24             	mov    %eax,(%esp)
    459d:	e8 2e 18 00 00       	call   5dd0 <window_refresh>
    45a2:	83 c4 24             	add    $0x24,%esp
    45a5:	5b                   	pop    %ebx
    45a6:	5d                   	pop    %ebp
    45a7:	c3                   	ret    
    45a8:	90                   	nop
    45a9:	8d b4 26 00 00 00 00 	lea    0x0(%esi,%eiz,1),%esi

000045b0 <paint_internal>:
    45b0:	55                   	push   %ebp
    45b1:	89 e5                	mov    %esp,%ebp
    45b3:	57                   	push   %edi
    45b4:	56                   	push   %esi
    45b5:	53                   	push   %ebx
    45b6:	83 ec 7c             	sub    $0x7c,%esp
    45b9:	89 c3                	mov    %eax,%ebx
    45bb:	8b 40 14             	mov    0x14(%eax),%eax
    45be:	89 04 24             	mov    %eax,(%esp)
    45c1:	e8 fa 18 00 00       	call   5ec0 <window_claim>
    45c6:	85 c0                	test   %eax,%eax
    45c8:	0f 84 f2 00 00 00    	je     46c0 <paint_internal+0x110>
    45ce:	8d 75 b0             	lea    -0x50(%ebp),%esi
    45d1:	89 44 24 04          	mov    %eax,0x4(%esp)
    45d5:	89 34 24             	mov    %esi,(%esp)
    45d8:	8d bb 24 01 00 00    	lea    0x124(%ebx),%edi
    45de:	e8 4d 19 00 00       	call   5f30 <drawctx_init>
    45e3:	8d 43 58             	lea    0x58(%ebx),%eax
    45e6:	89 44 24 04          	mov    %eax,0x4(%esp)
    45ea:	89 34 24             	mov    %esi,(%esp)
    45ed:	e8 2e 1b 00 00       	call   6120 <drawctx_set_source>
    45f2:	8b 43 24             	mov    0x24(%ebx),%eax
    45f5:	89 44 24 10          	mov    %eax,0x10(%esp)
    45f9:	8b 43 20             	mov    0x20(%ebx),%eax
    45fc:	89 44 24 0c          	mov    %eax,0xc(%esp)
    4600:	8b 43 1c             	mov    0x1c(%ebx),%eax
    4603:	89 44 24 08          	mov    %eax,0x8(%esp)
    4607:	8b 43 18             	mov    0x18(%ebx),%eax
    460a:	89 44 24 04          	mov    %eax,0x4(%esp)
    460e:	89 34 24             	mov    %esi,(%esp)
    4611:	e8 2a 1b 00 00       	call   6140 <drawctx_transfer>
    4616:	8d 45 ac             	lea    -0x54(%ebp),%eax
    4619:	89 44 24 0c          	mov    %eax,0xc(%esp)
    461d:	8d 45 a8             	lea    -0x58(%ebp),%eax
    4620:	89 44 24 08          	mov    %eax,0x8(%esp)
    4624:	8b 83 20 01 00 00    	mov    0x120(%ebx),%eax
    462a:	89 44 24 04          	mov    %eax,0x4(%esp)
    462e:	89 3c 24             	mov    %edi,(%esp)
    4631:	e8 3a 1f 00 00       	call   6570 <font_get_box>
    4636:	8b 45 a8             	mov    -0x58(%ebp),%eax
    4639:	39 43 20             	cmp    %eax,0x20(%ebx)
    463c:	72 08                	jb     4646 <paint_internal+0x96>
    463e:	8b 45 ac             	mov    -0x54(%ebp),%eax
    4641:	39 43 24             	cmp    %eax,0x24(%ebx)
    4644:	73 1a                	jae    4660 <paint_internal+0xb0>
    4646:	8b 43 14             	mov    0x14(%ebx),%eax
    4649:	89 04 24             	mov    %eax,(%esp)
    464c:	e8 9f 18 00 00       	call   5ef0 <window_yield>
    4651:	83 c4 7c             	add    $0x7c,%esp
    4654:	5b                   	pop    %ebx
    4655:	5e                   	pop    %esi
    4656:	5f                   	pop    %edi
    4657:	5d                   	pop    %ebp
    4658:	c3                   	ret    
    4659:	8d b4 26 00 00 00 00 	lea    0x0(%esi,%eiz,1),%esi
    4660:	8d 83 bc 00 00 00    	lea    0xbc(%ebx),%eax
    4666:	89 34 24             	mov    %esi,(%esp)
    4669:	89 44 24 04          	mov    %eax,0x4(%esp)
    466d:	e8 ae 1a 00 00       	call   6120 <drawctx_set_source>
    4672:	89 7c 24 04          	mov    %edi,0x4(%esp)
    4676:	89 34 24             	mov    %esi,(%esp)
    4679:	e8 b2 1a 00 00       	call   6130 <drawctx_set_font>
    467e:	8b 55 a8             	mov    -0x58(%ebp),%edx
    4681:	8b 43 20             	mov    0x20(%ebx),%eax
    4684:	8b 7d ac             	mov    -0x54(%ebp),%edi
    4687:	29 d0                	sub    %edx,%eax
    4689:	8b 53 24             	mov    0x24(%ebx),%edx
    468c:	d1 e8                	shr    %eax
    468e:	8b 4b 18             	mov    0x18(%ebx),%ecx
    4691:	29 fa                	sub    %edi,%edx
    4693:	01 c8                	add    %ecx,%eax
    4695:	d1 ea                	shr    %edx
    4697:	8b 4b 1c             	mov    0x1c(%ebx),%ecx
    469a:	01 ca                	add    %ecx,%edx
    469c:	8b 8b 20 01 00 00    	mov    0x120(%ebx),%ecx
    46a2:	85 c9                	test   %ecx,%ecx
    46a4:	74 a0                	je     4646 <paint_internal+0x96>
    46a6:	89 54 24 0c          	mov    %edx,0xc(%esp)
    46aa:	89 44 24 08          	mov    %eax,0x8(%esp)
    46ae:	89 4c 24 04          	mov    %ecx,0x4(%esp)
    46b2:	89 34 24             	mov    %esi,(%esp)
    46b5:	e8 36 1d 00 00       	call   63f0 <drawctx_print>
    46ba:	eb 8a                	jmp    4646 <paint_internal+0x96>
    46bc:	8d 74 26 00          	lea    0x0(%esi,%eiz,1),%esi
    46c0:	8b 53 14             	mov    0x14(%ebx),%edx
    46c3:	89 45 a4             	mov    %eax,-0x5c(%ebp)
    46c6:	89 14 24             	mov    %edx,(%esp)
    46c9:	e8 22 18 00 00       	call   5ef0 <window_yield>
    46ce:	8b 45 a4             	mov    -0x5c(%ebp),%eax
    46d1:	e9 f8 fe ff ff       	jmp    45ce <paint_internal+0x1e>
    46d6:	8d 76 00             	lea    0x0(%esi),%esi
    46d9:	8d bc 27 00 00 00 00 	lea    0x0(%edi,%eiz,1),%edi

000046e0 <label_repaint>:
    46e0:	55                   	push   %ebp
    46e1:	89 e5                	mov    %esp,%ebp
    46e3:	53                   	push   %ebx
    46e4:	53                   	push   %ebx
    46e5:	8b 5d 08             	mov    0x8(%ebp),%ebx
    46e8:	89 d8                	mov    %ebx,%eax
    46ea:	e8 c1 fe ff ff       	call   45b0 <paint_internal>
    46ef:	8b 43 14             	mov    0x14(%ebx),%eax
    46f2:	89 45 08             	mov    %eax,0x8(%ebp)
    46f5:	58                   	pop    %eax
    46f6:	5b                   	pop    %ebx
    46f7:	5d                   	pop    %ebp
    46f8:	e9 13 17 00 00       	jmp    5e10 <window_damage>
    46fd:	8d 76 00             	lea    0x0(%esi),%esi

00004700 <label_rearrange>:
    4700:	55                   	push   %ebp
    4701:	89 e5                	mov    %esp,%ebp
    4703:	53                   	push   %ebx
    4704:	83 ec 24             	sub    $0x24,%esp
    4707:	8b 45 18             	mov    0x18(%ebp),%eax
    470a:	8b 5d 08             	mov    0x8(%ebp),%ebx
    470d:	89 44 24 10          	mov    %eax,0x10(%esp)
    4711:	8b 45 14             	mov    0x14(%ebp),%eax
    4714:	89 44 24 0c          	mov    %eax,0xc(%esp)
    4718:	8b 45 10             	mov    0x10(%ebp),%eax
    471b:	89 44 24 08          	mov    %eax,0x8(%esp)
    471f:	8b 45 0c             	mov    0xc(%ebp),%eax
    4722:	89 44 24 04          	mov    %eax,0x4(%esp)
    4726:	89 1c 24             	mov    %ebx,(%esp)
    4729:	e8 92 03 00 00       	call   4ac0 <widget_modify>
    472e:	83 c4 24             	add    $0x24,%esp
    4731:	89 d8                	mov    %ebx,%eax
    4733:	5b                   	pop    %ebx
    4734:	5d                   	pop    %ebp
    4735:	e9 76 fe ff ff       	jmp    45b0 <paint_internal>
    473a:	8d b6 00 00 00 00    	lea    0x0(%esi),%esi

00004740 <label_destroy>:
    4740:	55                   	push   %ebp
    4741:	89 e5                	mov    %esp,%ebp
    4743:	53                   	push   %ebx
    4744:	83 ec 14             	sub    $0x14,%esp
    4747:	8b 5d 08             	mov    0x8(%ebp),%ebx
    474a:	89 1c 24             	mov    %ebx,(%esp)
    474d:	e8 8e 03 00 00       	call   4ae0 <widget_deinit>
    4752:	8b 83 20 01 00 00    	mov    0x120(%ebx),%eax
    4758:	89 04 24             	mov    %eax,(%esp)
    475b:	e8 80 41 01 00       	call   188e0 <free>
    4760:	8d 83 24 01 00 00    	lea    0x124(%ebx),%eax
    4766:	89 04 24             	mov    %eax,(%esp)
    4769:	e8 92 1d 00 00       	call   6500 <font_release>
    476e:	89 5d 08             	mov    %ebx,0x8(%ebp)
    4771:	83 c4 14             	add    $0x14,%esp
    4774:	5b                   	pop    %ebx
    4775:	5d                   	pop    %ebp
    4776:	e9 65 41 01 00       	jmp    188e0 <free>
    477b:	90                   	nop
    477c:	8d 74 26 00          	lea    0x0(%esi,%eiz,1),%esi

00004780 <deinit_label>:
    4780:	55                   	push   %ebp
    4781:	89 e5                	mov    %esp,%ebp
    4783:	53                   	push   %ebx
    4784:	83 ec 14             	sub    $0x14,%esp
    4787:	8b 5d 08             	mov    0x8(%ebp),%ebx
    478a:	89 1c 24             	mov    %ebx,(%esp)
    478d:	e8 4e 03 00 00       	call   4ae0 <widget_deinit>
    4792:	8b 83 20 01 00 00    	mov    0x120(%ebx),%eax
    4798:	89 04 24             	mov    %eax,(%esp)
    479b:	81 c3 24 01 00 00    	add    $0x124,%ebx
    47a1:	e8 3a 41 01 00       	call   188e0 <free>
    47a6:	89 5d 08             	mov    %ebx,0x8(%ebp)
    47a9:	83 c4 14             	add    $0x14,%esp
    47ac:	5b                   	pop    %ebx
    47ad:	5d                   	pop    %ebp
    47ae:	e9 4d 1d 00 00       	jmp    6500 <font_release>
    47b3:	8d b6 00 00 00 00    	lea    0x0(%esi),%esi
    47b9:	8d bc 27 00 00 00 00 	lea    0x0(%edi,%eiz,1),%edi

000047c0 <init_label>:
    47c0:	55                   	push   %ebp
    47c1:	89 e5                	mov    %esp,%ebp
    47c3:	57                   	push   %edi
    47c4:	56                   	push   %esi
    47c5:	53                   	push   %ebx
    47c6:	83 ec 2c             	sub    $0x2c,%esp
    47c9:	8b 5d 08             	mov    0x8(%ebp),%ebx
    47cc:	8b 45 0c             	mov    0xc(%ebp),%eax
    47cf:	89 44 24 04          	mov    %eax,0x4(%esp)
    47d3:	89 1c 24             	mov    %ebx,(%esp)
    47d6:	8d 73 58             	lea    0x58(%ebx),%esi
    47d9:	8b 7d 14             	mov    0x14(%ebp),%edi
    47dc:	e8 3f 02 00 00       	call   4a20 <widget_init>
    47e1:	c7 43 40 40 47 00 00 	movl   $0x4740,0x40(%ebx)
    47e8:	c7 43 44 10 45 00 00 	movl   $0x4510,0x44(%ebx)
    47ef:	c7 43 48 00 47 00 00 	movl   $0x4700,0x48(%ebx)
    47f6:	c7 43 4c e0 46 00 00 	movl   $0x46e0,0x4c(%ebx)
    47fd:	c7 43 50 20 45 00 00 	movl   $0x4520,0x50(%ebx)
    4804:	c7 43 54 30 45 00 00 	movl   $0x4530,0x54(%ebx)
    480b:	89 34 24             	mov    %esi,(%esp)
    480e:	e8 6d 20 00 00       	call   6880 <source_init>
    4813:	8b 55 18             	mov    0x18(%ebp),%edx
    4816:	89 54 24 04          	mov    %edx,0x4(%esp)
    481a:	89 34 24             	mov    %esi,(%esp)
    481d:	8d b3 bc 00 00 00    	lea    0xbc(%ebx),%esi
    4823:	e8 e8 20 00 00       	call   6910 <source_set_color>
    4828:	89 34 24             	mov    %esi,(%esp)
    482b:	e8 50 20 00 00       	call   6880 <source_init>
    4830:	8b 55 1c             	mov    0x1c(%ebp),%edx
    4833:	89 54 24 04          	mov    %edx,0x4(%esp)
    4837:	89 34 24             	mov    %esi,(%esp)
    483a:	e8 d1 20 00 00       	call   6910 <source_set_color>
    483f:	8b 45 10             	mov    0x10(%ebp),%eax
    4842:	85 c0                	test   %eax,%eax
    4844:	0f 84 86 00 00 00    	je     48d0 <init_label+0x110>
    484a:	8b 45 10             	mov    0x10(%ebp),%eax
    484d:	89 04 24             	mov    %eax,(%esp)
    4850:	e8 2b 9b 00 00       	call   e380 <str_dup>
    4855:	89 83 20 01 00 00    	mov    %eax,0x120(%ebx)
    485b:	8d b3 24 01 00 00    	lea    0x124(%ebx),%esi
    4861:	81 e7 ff ff 00 00    	and    $0xffff,%edi
    4867:	89 7c 24 0c          	mov    %edi,0xc(%esp)
    486b:	89 34 24             	mov    %esi,(%esp)
    486e:	c7 44 24 08 00 00 00 	movl   $0x0,0x8(%esp)
    4875:	00 
    4876:	c7 44 24 04 00 00 00 	movl   $0x0,0x4(%esp)
    487d:	00 
    487e:	e8 bd 1b 00 00       	call   6440 <font_init>
    4883:	8d 45 e4             	lea    -0x1c(%ebp),%eax
    4886:	89 44 24 0c          	mov    %eax,0xc(%esp)
    488a:	8d 45 e0             	lea    -0x20(%ebp),%eax
    488d:	89 44 24 08          	mov    %eax,0x8(%esp)
    4891:	8b 83 20 01 00 00    	mov    0x120(%ebx),%eax
    4897:	89 34 24             	mov    %esi,(%esp)
    489a:	89 44 24 04          	mov    %eax,0x4(%esp)
    489e:	e8 cd 1c 00 00       	call   6570 <font_get_box>
    48a3:	8b 55 e0             	mov    -0x20(%ebp),%edx
    48a6:	8b 45 e4             	mov    -0x1c(%ebp),%eax
    48a9:	83 c2 04             	add    $0x4,%edx
    48ac:	83 c0 04             	add    $0x4,%eax
    48af:	89 53 28             	mov    %edx,0x28(%ebx)
    48b2:	89 43 2c             	mov    %eax,0x2c(%ebx)
    48b5:	89 43 34             	mov    %eax,0x34(%ebx)
    48b8:	89 53 30             	mov    %edx,0x30(%ebx)
    48bb:	c7 83 34 01 00 00 40 	movl   $0x4540,0x134(%ebx)
    48c2:	45 00 00 
    48c5:	83 c4 2c             	add    $0x2c,%esp
    48c8:	b0 01                	mov    $0x1,%al
    48ca:	5b                   	pop    %ebx
    48cb:	5e                   	pop    %esi
    48cc:	5f                   	pop    %edi
    48cd:	5d                   	pop    %ebp
    48ce:	c3                   	ret    
    48cf:	90                   	nop
    48d0:	c7 83 20 01 00 00 00 	movl   $0x0,0x120(%ebx)
    48d7:	00 00 00 
    48da:	e9 7c ff ff ff       	jmp    485b <init_label+0x9b>
    48df:	90                   	nop

000048e0 <create_label>:
    48e0:	55                   	push   %ebp
    48e1:	89 e5                	mov    %esp,%ebp
    48e3:	57                   	push   %edi
    48e4:	56                   	push   %esi
    48e5:	53                   	push   %ebx
    48e6:	83 ec 2c             	sub    $0x2c,%esp
    48e9:	8b 7d 10             	mov    0x10(%ebp),%edi
    48ec:	c7 04 24 38 01 00 00 	movl   $0x138,(%esp)
    48f3:	e8 d8 3e 01 00       	call   187d0 <malloc>
    48f8:	89 c3                	mov    %eax,%ebx
    48fa:	85 c0                	test   %eax,%eax
    48fc:	0f 84 f6 00 00 00    	je     49f8 <create_label+0x118>
    4902:	8b 45 08             	mov    0x8(%ebp),%eax
    4905:	8d 73 58             	lea    0x58(%ebx),%esi
    4908:	89 44 24 04          	mov    %eax,0x4(%esp)
    490c:	89 1c 24             	mov    %ebx,(%esp)
    490f:	e8 0c 01 00 00       	call   4a20 <widget_init>
    4914:	89 34 24             	mov    %esi,(%esp)
    4917:	c7 43 40 40 47 00 00 	movl   $0x4740,0x40(%ebx)
    491e:	c7 43 44 10 45 00 00 	movl   $0x4510,0x44(%ebx)
    4925:	c7 43 48 00 47 00 00 	movl   $0x4700,0x48(%ebx)
    492c:	c7 43 4c e0 46 00 00 	movl   $0x46e0,0x4c(%ebx)
    4933:	c7 43 50 20 45 00 00 	movl   $0x4520,0x50(%ebx)
    493a:	c7 43 54 30 45 00 00 	movl   $0x4530,0x54(%ebx)
    4941:	e8 3a 1f 00 00       	call   6880 <source_init>
    4946:	8b 55 14             	mov    0x14(%ebp),%edx
    4949:	89 54 24 04          	mov    %edx,0x4(%esp)
    494d:	89 34 24             	mov    %esi,(%esp)
    4950:	8d b3 bc 00 00 00    	lea    0xbc(%ebx),%esi
    4956:	e8 b5 1f 00 00       	call   6910 <source_set_color>
    495b:	89 34 24             	mov    %esi,(%esp)
    495e:	e8 1d 1f 00 00       	call   6880 <source_init>
    4963:	8b 55 18             	mov    0x18(%ebp),%edx
    4966:	89 54 24 04          	mov    %edx,0x4(%esp)
    496a:	89 34 24             	mov    %esi,(%esp)
    496d:	e8 9e 1f 00 00       	call   6910 <source_set_color>
    4972:	8b 45 0c             	mov    0xc(%ebp),%eax
    4975:	85 c0                	test   %eax,%eax
    4977:	0f 84 8b 00 00 00    	je     4a08 <create_label+0x128>
    497d:	8b 45 0c             	mov    0xc(%ebp),%eax
    4980:	89 04 24             	mov    %eax,(%esp)
    4983:	e8 f8 99 00 00       	call   e380 <str_dup>
    4988:	89 83 20 01 00 00    	mov    %eax,0x120(%ebx)
    498e:	8d b3 24 01 00 00    	lea    0x124(%ebx),%esi
    4994:	81 e7 ff ff 00 00    	and    $0xffff,%edi
    499a:	89 7c 24 0c          	mov    %edi,0xc(%esp)
    499e:	c7 44 24 08 00 00 00 	movl   $0x0,0x8(%esp)
    49a5:	00 
    49a6:	c7 44 24 04 00 00 00 	movl   $0x0,0x4(%esp)
    49ad:	00 
    49ae:	89 34 24             	mov    %esi,(%esp)
    49b1:	e8 8a 1a 00 00       	call   6440 <font_init>
    49b6:	8d 45 e4             	lea    -0x1c(%ebp),%eax
    49b9:	89 44 24 0c          	mov    %eax,0xc(%esp)
    49bd:	8d 45 e0             	lea    -0x20(%ebp),%eax
    49c0:	89 44 24 08          	mov    %eax,0x8(%esp)
    49c4:	8b 83 20 01 00 00    	mov    0x120(%ebx),%eax
    49ca:	89 44 24 04          	mov    %eax,0x4(%esp)
    49ce:	89 34 24             	mov    %esi,(%esp)
    49d1:	e8 9a 1b 00 00       	call   6570 <font_get_box>
    49d6:	8b 55 e0             	mov    -0x20(%ebp),%edx
    49d9:	8b 45 e4             	mov    -0x1c(%ebp),%eax
    49dc:	83 c2 04             	add    $0x4,%edx
    49df:	83 c0 04             	add    $0x4,%eax
    49e2:	89 53 28             	mov    %edx,0x28(%ebx)
    49e5:	89 43 2c             	mov    %eax,0x2c(%ebx)
    49e8:	89 53 30             	mov    %edx,0x30(%ebx)
    49eb:	89 43 34             	mov    %eax,0x34(%ebx)
    49ee:	c7 83 34 01 00 00 40 	movl   $0x4540,0x134(%ebx)
    49f5:	45 00 00 
    49f8:	83 c4 2c             	add    $0x2c,%esp
    49fb:	89 d8                	mov    %ebx,%eax
    49fd:	5b                   	pop    %ebx
    49fe:	5e                   	pop    %esi
    49ff:	5f                   	pop    %edi
    4a00:	5d                   	pop    %ebp
    4a01:	c3                   	ret    
    4a02:	8d b6 00 00 00 00    	lea    0x0(%esi),%esi
    4a08:	c7 83 20 01 00 00 00 	movl   $0x0,0x120(%ebx)
    4a0f:	00 00 00 
    4a12:	e9 77 ff ff ff       	jmp    498e <create_label+0xae>
    4a17:	66 90                	xchg   %ax,%ax
    4a19:	66 90                	xchg   %ax,%ax
    4a1b:	66 90                	xchg   %ax,%ax
    4a1d:	66 90                	xchg   %ax,%ax
    4a1f:	90                   	nop

00004a20 <widget_init>:
    4a20:	55                   	push   %ebp
    4a21:	89 e5                	mov    %esp,%ebp
    4a23:	8b 45 08             	mov    0x8(%ebp),%eax
    4a26:	8b 55 0c             	mov    0xc(%ebp),%edx
    4a29:	85 d2                	test   %edx,%edx
    4a2b:	8d 48 0c             	lea    0xc(%eax),%ecx
    4a2e:	c7 00 00 00 00 00    	movl   $0x0,(%eax)
    4a34:	c7 40 04 00 00 00 00 	movl   $0x0,0x4(%eax)
    4a3b:	89 48 0c             	mov    %ecx,0xc(%eax)
    4a3e:	89 48 10             	mov    %ecx,0x10(%eax)
    4a41:	74 65                	je     4aa8 <widget_init+0x88>
    4a43:	8d 4a 0c             	lea    0xc(%edx),%ecx
    4a46:	89 50 08             	mov    %edx,0x8(%eax)
    4a49:	89 48 04             	mov    %ecx,0x4(%eax)
    4a4c:	8b 4a 0c             	mov    0xc(%edx),%ecx
    4a4f:	89 08                	mov    %ecx,(%eax)
    4a51:	8b 4a 0c             	mov    0xc(%edx),%ecx
    4a54:	89 42 0c             	mov    %eax,0xc(%edx)
    4a57:	8b 52 14             	mov    0x14(%edx),%edx
    4a5a:	89 41 04             	mov    %eax,0x4(%ecx)
    4a5d:	89 50 14             	mov    %edx,0x14(%eax)
    4a60:	c7 40 18 00 00 00 00 	movl   $0x0,0x18(%eax)
    4a67:	c7 40 1c 00 00 00 00 	movl   $0x0,0x1c(%eax)
    4a6e:	c7 40 20 00 00 00 00 	movl   $0x0,0x20(%eax)
    4a75:	c7 40 24 00 00 00 00 	movl   $0x0,0x24(%eax)
    4a7c:	c7 40 28 00 00 00 00 	movl   $0x0,0x28(%eax)
    4a83:	c7 40 2c 00 00 00 00 	movl   $0x0,0x2c(%eax)
    4a8a:	c7 40 30 00 00 00 00 	movl   $0x0,0x30(%eax)
    4a91:	c7 40 34 00 00 00 00 	movl   $0x0,0x34(%eax)
    4a98:	c7 40 38 ff ff ff ff 	movl   $0xffffffff,0x38(%eax)
    4a9f:	c7 40 3c ff ff ff ff 	movl   $0xffffffff,0x3c(%eax)
    4aa6:	5d                   	pop    %ebp
    4aa7:	c3                   	ret    
    4aa8:	c7 40 08 00 00 00 00 	movl   $0x0,0x8(%eax)
    4aaf:	c7 40 14 00 00 00 00 	movl   $0x0,0x14(%eax)
    4ab6:	eb a8                	jmp    4a60 <widget_init+0x40>
    4ab8:	90                   	nop
    4ab9:	8d b4 26 00 00 00 00 	lea    0x0(%esi,%eiz,1),%esi

00004ac0 <widget_modify>:
    4ac0:	55                   	push   %ebp
    4ac1:	89 e5                	mov    %esp,%ebp
    4ac3:	8b 45 08             	mov    0x8(%ebp),%eax
    4ac6:	8b 55 0c             	mov    0xc(%ebp),%edx
    4ac9:	89 50 18             	mov    %edx,0x18(%eax)
    4acc:	8b 55 10             	mov    0x10(%ebp),%edx
    4acf:	89 50 1c             	mov    %edx,0x1c(%eax)
    4ad2:	8b 55 14             	mov    0x14(%ebp),%edx
    4ad5:	89 50 20             	mov    %edx,0x20(%eax)
    4ad8:	8b 55 18             	mov    0x18(%ebp),%edx
    4adb:	89 50 24             	mov    %edx,0x24(%eax)
    4ade:	5d                   	pop    %ebp
    4adf:	c3                   	ret    

00004ae0 <widget_deinit>:
    4ae0:	55                   	push   %ebp
    4ae1:	89 e5                	mov    %esp,%ebp
    4ae3:	8b 45 08             	mov    0x8(%ebp),%eax
    4ae6:	8b 50 08             	mov    0x8(%eax),%edx
    4ae9:	85 d2                	test   %edx,%edx
    4aeb:	74 21                	je     4b0e <widget_deinit+0x2e>
    4aed:	8b 08                	mov    (%eax),%ecx
    4aef:	85 c9                	test   %ecx,%ecx
    4af1:	74 0e                	je     4b01 <widget_deinit+0x21>
    4af3:	8b 50 04             	mov    0x4(%eax),%edx
    4af6:	85 d2                	test   %edx,%edx
    4af8:	74 07                	je     4b01 <widget_deinit+0x21>
    4afa:	89 0a                	mov    %ecx,(%edx)
    4afc:	8b 08                	mov    (%eax),%ecx
    4afe:	89 51 04             	mov    %edx,0x4(%ecx)
    4b01:	c7 00 00 00 00 00    	movl   $0x0,(%eax)
    4b07:	c7 40 04 00 00 00 00 	movl   $0x0,0x4(%eax)
    4b0e:	5d                   	pop    %ebp
    4b0f:	c3                   	ret    

00004b10 <root_handle_keyboard_event>:
    4b10:	55                   	push   %ebp
    4b11:	89 e5                	mov    %esp,%ebp
    4b13:	57                   	push   %edi
    4b14:	56                   	push   %esi
    4b15:	8b 55 08             	mov    0x8(%ebp),%edx
    4b18:	8b 42 10             	mov    0x10(%edx),%eax
    4b1b:	83 c2 0c             	add    $0xc,%edx
    4b1e:	39 d0                	cmp    %edx,%eax
    4b20:	74 1e                	je     4b40 <root_handle_keyboard_event+0x30>
    4b22:	8d 7d 0c             	lea    0xc(%ebp),%edi
    4b25:	b9 06 00 00 00       	mov    $0x6,%ecx
    4b2a:	89 fe                	mov    %edi,%esi
    4b2c:	f3 a5                	rep movsl %ds:(%esi),%es:(%edi)
    4b2e:	89 45 08             	mov    %eax,0x8(%ebp)
    4b31:	5e                   	pop    %esi
    4b32:	8b 40 50             	mov    0x50(%eax),%eax
    4b35:	5f                   	pop    %edi
    4b36:	5d                   	pop    %ebp
    4b37:	ff e0                	jmp    *%eax
    4b39:	8d b4 26 00 00 00 00 	lea    0x0(%esi,%eiz,1),%esi
    4b40:	5e                   	pop    %esi
    4b41:	5f                   	pop    %edi
    4b42:	5d                   	pop    %ebp
    4b43:	c3                   	ret    
    4b44:	8d b6 00 00 00 00    	lea    0x0(%esi),%esi
    4b4a:	8d bf 00 00 00 00    	lea    0x0(%edi),%edi

00004b50 <fetch_input>:
    4b50:	55                   	push   %ebp
    4b51:	89 e5                	mov    %esp,%ebp
    4b53:	57                   	push   %edi
    4b54:	56                   	push   %esi
    4b55:	53                   	push   %ebx
    4b56:	83 ec 2c             	sub    $0x2c,%esp
    4b59:	8b 5d 08             	mov    0x8(%ebp),%ebx
    4b5c:	8d 43 10             	lea    0x10(%ebx),%eax
    4b5f:	89 45 e4             	mov    %eax,-0x1c(%ebp)
    4b62:	c7 04 24 24 00 00 00 	movl   $0x24,(%esp)
    4b69:	e8 62 3c 01 00       	call   187d0 <malloc>
    4b6e:	89 c7                	mov    %eax,%edi
    4b70:	85 c0                	test   %eax,%eax
    4b72:	74 44                	je     4bb8 <fetch_input+0x68>
    4b74:	89 44 24 04          	mov    %eax,0x4(%esp)
    4b78:	8b 43 08             	mov    0x8(%ebx),%eax
    4b7b:	89 04 24             	mov    %eax,(%esp)
    4b7e:	e8 9d 16 01 00       	call   16220 <win_get_event>
    4b83:	85 c0                	test   %eax,%eax
    4b85:	75 29                	jne    4bb0 <fetch_input+0x60>
    4b87:	8b 45 e4             	mov    -0x1c(%ebp),%eax
    4b8a:	8b 77 08             	mov    0x8(%edi),%esi
    4b8d:	89 7c 24 04          	mov    %edi,0x4(%esp)
    4b91:	89 04 24             	mov    %eax,(%esp)
    4b94:	c7 07 00 00 00 00    	movl   $0x0,(%edi)
    4b9a:	c7 47 04 00 00 00 00 	movl   $0x0,0x4(%edi)
    4ba1:	e8 ba a3 01 00       	call   1ef60 <prodcons_produce>
    4ba6:	83 fe 08             	cmp    $0x8,%esi
    4ba9:	75 b7                	jne    4b62 <fetch_input+0x12>
    4bab:	eb 0b                	jmp    4bb8 <fetch_input+0x68>
    4bad:	8d 76 00             	lea    0x0(%esi),%esi
    4bb0:	89 3c 24             	mov    %edi,(%esp)
    4bb3:	e8 28 3d 01 00       	call   188e0 <free>
    4bb8:	83 c4 2c             	add    $0x2c,%esp
    4bbb:	31 c0                	xor    %eax,%eax
    4bbd:	5b                   	pop    %ebx
    4bbe:	5e                   	pop    %esi
    4bbf:	5f                   	pop    %edi
    4bc0:	5d                   	pop    %ebp
    4bc1:	c3                   	ret    
    4bc2:	8d b4 26 00 00 00 00 	lea    0x0(%esi,%eiz,1),%esi
    4bc9:	8d bc 27 00 00 00 00 	lea    0x0(%edi,%eiz,1),%edi

00004bd0 <root_handle_position_event>:
    4bd0:	55                   	push   %ebp
    4bd1:	89 e5                	mov    %esp,%ebp
    4bd3:	57                   	push   %edi
    4bd4:	56                   	push   %esi
    4bd5:	53                   	push   %ebx
    4bd6:	83 ec 4c             	sub    $0x4c,%esp
    4bd9:	8b 45 08             	mov    0x8(%ebp),%eax
    4bdc:	8b 55 0c             	mov    0xc(%ebp),%edx
    4bdf:	8b 5d 10             	mov    0x10(%ebp),%ebx
    4be2:	89 55 e4             	mov    %edx,-0x1c(%ebp)
    4be5:	8b 48 14             	mov    0x14(%eax),%ecx
    4be8:	89 5d e0             	mov    %ebx,-0x20(%ebp)
    4beb:	8b 55 14             	mov    0x14(%ebp),%edx
    4bee:	8b 75 18             	mov    0x18(%ebp),%esi
    4bf1:	8b 7d 1c             	mov    0x1c(%ebp),%edi
    4bf4:	80 79 01 00          	cmpb   $0x0,0x1(%ecx)
    4bf8:	0f 84 aa 00 00 00    	je     4ca8 <root_handle_position_event+0xd8>
    4bfe:	8b 58 20             	mov    0x20(%eax),%ebx
    4c01:	83 fa 01             	cmp    $0x1,%edx
    4c04:	89 5d d4             	mov    %ebx,-0x2c(%ebp)
    4c07:	8b 58 24             	mov    0x24(%eax),%ebx
    4c0a:	89 5d c8             	mov    %ebx,-0x38(%ebp)
    4c0d:	0f 84 c5 01 00 00    	je     4dd8 <root_handle_position_event+0x208>
    4c13:	83 fa 02             	cmp    $0x2,%edx
    4c16:	0f 84 2c 02 00 00    	je     4e48 <root_handle_position_event+0x278>
    4c1c:	c6 45 dc 00          	movb   $0x0,-0x24(%ebp)
    4c20:	c6 45 d2 00          	movb   $0x0,-0x2e(%ebp)
    4c24:	8b 5d d4             	mov    -0x2c(%ebp),%ebx
    4c27:	83 fe 04             	cmp    $0x4,%esi
    4c2a:	0f 96 45 d1          	setbe  -0x2f(%ebp)
    4c2e:	83 eb 05             	sub    $0x5,%ebx
    4c31:	39 f3                	cmp    %esi,%ebx
    4c33:	89 5d d8             	mov    %ebx,-0x28(%ebp)
    4c36:	8b 5d c8             	mov    -0x38(%ebp),%ebx
    4c39:	0f 96 45 d0          	setbe  -0x30(%ebp)
    4c3d:	83 ff 04             	cmp    $0x4,%edi
    4c40:	0f 96 45 d3          	setbe  -0x2d(%ebp)
    4c44:	83 eb 05             	sub    $0x5,%ebx
    4c47:	39 fb                	cmp    %edi,%ebx
    4c49:	0f 96 45 c8          	setbe  -0x38(%ebp)
    4c4d:	83 fe 04             	cmp    $0x4,%esi
    4c50:	76 09                	jbe    4c5b <root_handle_position_event+0x8b>
    4c52:	39 75 d8             	cmp    %esi,-0x28(%ebp)
    4c55:	0f 87 95 01 00 00    	ja     4df0 <root_handle_position_event+0x220>
    4c5b:	c6 45 d8 00          	movb   $0x0,-0x28(%ebp)
    4c5f:	c6 45 d4 00          	movb   $0x0,-0x2c(%ebp)
    4c63:	80 7d d3 00          	cmpb   $0x0,-0x2d(%ebp)
    4c67:	0f 84 9b 00 00 00    	je     4d08 <root_handle_position_event+0x138>
    4c6d:	80 7d d1 00          	cmpb   $0x0,-0x2f(%ebp)
    4c71:	0f 84 91 00 00 00    	je     4d08 <root_handle_position_event+0x138>
    4c77:	80 7d dc 00          	cmpb   $0x0,-0x24(%ebp)
    4c7b:	0f 84 21 02 00 00    	je     4ea2 <root_handle_position_event+0x2d2>
    4c81:	80 7d d2 01          	cmpb   $0x1,-0x2e(%ebp)
    4c85:	19 c0                	sbb    %eax,%eax
    4c87:	83 e0 24             	and    $0x24,%eax
    4c8a:	83 c0 0f             	add    $0xf,%eax
    4c8d:	89 45 10             	mov    %eax,0x10(%ebp)
    4c90:	8b 45 e4             	mov    -0x1c(%ebp),%eax
    4c93:	89 45 0c             	mov    %eax,0xc(%ebp)
    4c96:	8b 41 0c             	mov    0xc(%ecx),%eax
    4c99:	89 45 08             	mov    %eax,0x8(%ebp)
    4c9c:	83 c4 4c             	add    $0x4c,%esp
    4c9f:	5b                   	pop    %ebx
    4ca0:	5e                   	pop    %esi
    4ca1:	5f                   	pop    %edi
    4ca2:	5d                   	pop    %ebp
    4ca3:	e9 98 16 01 00       	jmp    16340 <win_grab>
    4ca8:	8b 58 10             	mov    0x10(%eax),%ebx
    4cab:	83 c0 0c             	add    $0xc,%eax
    4cae:	89 45 dc             	mov    %eax,-0x24(%ebp)
    4cb1:	39 d8                	cmp    %ebx,%eax
    4cb3:	74 48                	je     4cfd <root_handle_position_event+0x12d>
    4cb5:	8d 76 00             	lea    0x0(%esi),%esi
    4cb8:	8b 45 e4             	mov    -0x1c(%ebp),%eax
    4cbb:	8b 4b 54             	mov    0x54(%ebx),%ecx
    4cbe:	89 45 0c             	mov    %eax,0xc(%ebp)
    4cc1:	8b 45 e0             	mov    -0x20(%ebp),%eax
    4cc4:	89 45 10             	mov    %eax,0x10(%ebp)
    4cc7:	8b 45 e4             	mov    -0x1c(%ebp),%eax
    4cca:	89 44 24 04          	mov    %eax,0x4(%esp)
    4cce:	8b 45 e0             	mov    -0x20(%ebp),%eax
    4cd1:	89 54 24 0c          	mov    %edx,0xc(%esp)
    4cd5:	89 1c 24             	mov    %ebx,(%esp)
    4cd8:	89 55 cc             	mov    %edx,-0x34(%ebp)
    4cdb:	89 44 24 08          	mov    %eax,0x8(%esp)
    4cdf:	89 74 24 10          	mov    %esi,0x10(%esp)
    4ce3:	89 7c 24 14          	mov    %edi,0x14(%esp)
    4ce7:	89 55 14             	mov    %edx,0x14(%ebp)
    4cea:	89 75 18             	mov    %esi,0x18(%ebp)
    4ced:	89 7d 1c             	mov    %edi,0x1c(%ebp)
    4cf0:	ff d1                	call   *%ecx
    4cf2:	8b 5b 04             	mov    0x4(%ebx),%ebx
    4cf5:	8b 55 cc             	mov    -0x34(%ebp),%edx
    4cf8:	39 5d dc             	cmp    %ebx,-0x24(%ebp)
    4cfb:	75 bb                	jne    4cb8 <root_handle_position_event+0xe8>
    4cfd:	83 c4 4c             	add    $0x4c,%esp
    4d00:	5b                   	pop    %ebx
    4d01:	5e                   	pop    %esi
    4d02:	5f                   	pop    %edi
    4d03:	5d                   	pop    %ebp
    4d04:	c3                   	ret    
    4d05:	8d 76 00             	lea    0x0(%esi),%esi
    4d08:	80 7d c8 00          	cmpb   $0x0,-0x38(%ebp)
    4d0c:	75 3a                	jne    4d48 <root_handle_position_event+0x178>
    4d0e:	80 7d d0 00          	cmpb   $0x0,-0x30(%ebp)
    4d12:	74 0a                	je     4d1e <root_handle_position_event+0x14e>
    4d14:	80 7d d3 00          	cmpb   $0x0,-0x2d(%ebp)
    4d18:	0f 85 42 01 00 00    	jne    4e60 <root_handle_position_event+0x290>
    4d1e:	80 7d dc 00          	cmpb   $0x0,-0x24(%ebp)
    4d22:	74 3e                	je     4d62 <root_handle_position_event+0x192>
    4d24:	80 7d d3 00          	cmpb   $0x0,-0x2d(%ebp)
    4d28:	0f 84 ad 01 00 00    	je     4edb <root_handle_position_event+0x30b>
    4d2e:	80 7d d2 01          	cmpb   $0x1,-0x2e(%ebp)
    4d32:	19 c0                	sbb    %eax,%eax
    4d34:	8b 55 e4             	mov    -0x1c(%ebp),%edx
    4d37:	83 e0 18             	and    $0x18,%eax
    4d3a:	89 55 0c             	mov    %edx,0xc(%ebp)
    4d3d:	83 c0 0a             	add    $0xa,%eax
    4d40:	89 45 10             	mov    %eax,0x10(%ebp)
    4d43:	e9 4e ff ff ff       	jmp    4c96 <root_handle_position_event+0xc6>
    4d48:	80 7d d1 00          	cmpb   $0x0,-0x2f(%ebp)
    4d4c:	0f 85 ce 00 00 00    	jne    4e20 <root_handle_position_event+0x250>
    4d52:	80 7d d0 00          	cmpb   $0x0,-0x30(%ebp)
    4d56:	74 c6                	je     4d1e <root_handle_position_event+0x14e>
    4d58:	80 7d dc 00          	cmpb   $0x0,-0x24(%ebp)
    4d5c:	0f 85 26 01 00 00    	jne    4e88 <root_handle_position_event+0x2b8>
    4d62:	80 7d d4 00          	cmpb   $0x0,-0x2c(%ebp)
    4d66:	0f 85 4c 01 00 00    	jne    4eb8 <root_handle_position_event+0x2e8>
    4d6c:	80 7d d8 00          	cmpb   $0x0,-0x28(%ebp)
    4d70:	0f 85 5c 01 00 00    	jne    4ed2 <root_handle_position_event+0x302>
    4d76:	8b 58 10             	mov    0x10(%eax),%ebx
    4d79:	83 c0 0c             	add    $0xc,%eax
    4d7c:	89 45 dc             	mov    %eax,-0x24(%ebp)
    4d7f:	39 d8                	cmp    %ebx,%eax
    4d81:	0f 84 76 ff ff ff    	je     4cfd <root_handle_position_event+0x12d>
    4d87:	90                   	nop
    4d88:	8b 45 e4             	mov    -0x1c(%ebp),%eax
    4d8b:	8b 4b 54             	mov    0x54(%ebx),%ecx
    4d8e:	89 45 0c             	mov    %eax,0xc(%ebp)
    4d91:	8b 45 e0             	mov    -0x20(%ebp),%eax
    4d94:	89 45 10             	mov    %eax,0x10(%ebp)
    4d97:	8b 45 e4             	mov    -0x1c(%ebp),%eax
    4d9a:	89 44 24 04          	mov    %eax,0x4(%esp)
    4d9e:	8b 45 e0             	mov    -0x20(%ebp),%eax
    4da1:	89 54 24 0c          	mov    %edx,0xc(%esp)
    4da5:	89 1c 24             	mov    %ebx,(%esp)
    4da8:	89 55 cc             	mov    %edx,-0x34(%ebp)
    4dab:	89 44 24 08          	mov    %eax,0x8(%esp)
    4daf:	89 74 24 10          	mov    %esi,0x10(%esp)
    4db3:	89 7c 24 14          	mov    %edi,0x14(%esp)
    4db7:	89 55 14             	mov    %edx,0x14(%ebp)
    4dba:	89 75 18             	mov    %esi,0x18(%ebp)
    4dbd:	89 7d 1c             	mov    %edi,0x1c(%ebp)
    4dc0:	ff d1                	call   *%ecx
    4dc2:	8b 5b 04             	mov    0x4(%ebx),%ebx
    4dc5:	8b 55 cc             	mov    -0x34(%ebp),%edx
    4dc8:	39 5d dc             	cmp    %ebx,-0x24(%ebp)
    4dcb:	75 bb                	jne    4d88 <root_handle_position_event+0x1b8>
    4dcd:	e9 2b ff ff ff       	jmp    4cfd <root_handle_position_event+0x12d>
    4dd2:	8d b6 00 00 00 00    	lea    0x0(%esi),%esi
    4dd8:	83 7d e0 01          	cmpl   $0x1,-0x20(%ebp)
    4ddc:	0f 94 45 dc          	sete   -0x24(%ebp)
    4de0:	8a 5d dc             	mov    -0x24(%ebp),%bl
    4de3:	88 5d d2             	mov    %bl,-0x2e(%ebp)
    4de6:	e9 39 fe ff ff       	jmp    4c24 <root_handle_position_event+0x54>
    4deb:	90                   	nop
    4dec:	8d 74 26 00          	lea    0x0(%esi,%eiz,1),%esi
    4df0:	83 ff 04             	cmp    $0x4,%edi
    4df3:	0f 86 62 fe ff ff    	jbe    4c5b <root_handle_position_event+0x8b>
    4df9:	83 ff 18             	cmp    $0x18,%edi
    4dfc:	0f 87 59 fe ff ff    	ja     4c5b <root_handle_position_event+0x8b>
    4e02:	8b 5d d4             	mov    -0x2c(%ebp),%ebx
    4e05:	83 eb 19             	sub    $0x19,%ebx
    4e08:	39 f3                	cmp    %esi,%ebx
    4e0a:	8a 5d d2             	mov    -0x2e(%ebp),%bl
    4e0d:	88 5d d8             	mov    %bl,-0x28(%ebp)
    4e10:	0f 86 b4 00 00 00    	jbe    4eca <root_handle_position_event+0x2fa>
    4e16:	c6 45 d4 00          	movb   $0x0,-0x2c(%ebp)
    4e1a:	e9 44 fe ff ff       	jmp    4c63 <root_handle_position_event+0x93>
    4e1f:	90                   	nop
    4e20:	80 7d dc 00          	cmpb   $0x0,-0x24(%ebp)
    4e24:	0f 84 38 ff ff ff    	je     4d62 <root_handle_position_event+0x192>
    4e2a:	80 7d d2 01          	cmpb   $0x1,-0x2e(%ebp)
    4e2e:	19 c0                	sbb    %eax,%eax
    4e30:	8b 55 e4             	mov    -0x1c(%ebp),%edx
    4e33:	83 e0 24             	and    $0x24,%eax
    4e36:	89 55 0c             	mov    %edx,0xc(%ebp)
    4e39:	83 c0 0d             	add    $0xd,%eax
    4e3c:	89 45 10             	mov    %eax,0x10(%ebp)
    4e3f:	e9 52 fe ff ff       	jmp    4c96 <root_handle_position_event+0xc6>
    4e44:	8d 74 26 00          	lea    0x0(%esi,%eiz,1),%esi
    4e48:	83 7d e0 01          	cmpl   $0x1,-0x20(%ebp)
    4e4c:	0f 94 45 dc          	sete   -0x24(%ebp)
    4e50:	c6 45 d2 00          	movb   $0x0,-0x2e(%ebp)
    4e54:	e9 cb fd ff ff       	jmp    4c24 <root_handle_position_event+0x54>
    4e59:	8d b4 26 00 00 00 00 	lea    0x0(%esi,%eiz,1),%esi
    4e60:	80 7d dc 00          	cmpb   $0x0,-0x24(%ebp)
    4e64:	0f 84 f8 fe ff ff    	je     4d62 <root_handle_position_event+0x192>
    4e6a:	80 7d d2 01          	cmpb   $0x1,-0x2e(%ebp)
    4e6e:	19 c0                	sbb    %eax,%eax
    4e70:	83 e0 24             	and    $0x24,%eax
    4e73:	83 c0 0e             	add    $0xe,%eax
    4e76:	89 45 10             	mov    %eax,0x10(%ebp)
    4e79:	8b 45 e4             	mov    -0x1c(%ebp),%eax
    4e7c:	89 45 0c             	mov    %eax,0xc(%ebp)
    4e7f:	e9 12 fe ff ff       	jmp    4c96 <root_handle_position_event+0xc6>
    4e84:	8d 74 26 00          	lea    0x0(%esi,%eiz,1),%esi
    4e88:	80 7d d2 01          	cmpb   $0x1,-0x2e(%ebp)
    4e8c:	19 c0                	sbb    %eax,%eax
