
vlaunch:     file format elf32-i386


Disassembly of section .init:

00001094 <__entry>:
    1094:	66 8c d0             	mov    %ss,%ax
    1097:	8e d8                	mov    %eax,%ds
    1099:	8e c0                	mov    %eax,%es
    109b:	8e e0                	mov    %eax,%fs
    109d:	b8 01 00 00 00       	mov    $0x1,%eax
    10a2:	0f a2                	cpuid  
    10a4:	0f ba e2 0b          	bt     $0xb,%edx
    10a8:	73 0c                	jae    10b6 <__entry+0x22>
    10aa:	8d 05 54 65 21 00    	lea    0x216554,%eax
    10b0:	c7 00 57 21 02 00    	movl   $0x22157,(%eax)
    10b6:	6a 00                	push   $0x0
    10b8:	89 e5                	mov    %esp,%ebp
    10ba:	57                   	push   %edi
    10bb:	e8 40 67 00 00       	call   7800 <__main>

Disassembly of section .text:

000010c0 <app_launch>:
    10c0:	55                   	push   %ebp
    10c1:	89 e5                	mov    %esp,%ebp
    10c3:	53                   	push   %ebx
    10c4:	83 ec 34             	sub    $0x34,%esp
    10c7:	89 c3                	mov    %eax,%ebx
    10c9:	a1 90 65 21 00       	mov    0x216590,%eax
    10ce:	89 44 24 0c          	mov    %eax,0xc(%esp)
    10d2:	89 5c 24 08          	mov    %ebx,0x8(%esp)
    10d6:	c7 44 24 04 02 43 02 	movl   $0x24302,0x4(%esp)
    10dd:	00 
    10de:	c7 04 24 0a 43 02 00 	movl   $0x2430a,(%esp)
    10e5:	e8 c6 14 01 00       	call   125b0 <printf>
    10ea:	a1 90 65 21 00       	mov    0x216590,%eax
    10ef:	89 44 24 0c          	mov    %eax,0xc(%esp)
    10f3:	8d 45 f0             	lea    -0x10(%ebp),%eax
    10f6:	c7 44 24 10 00 00 00 	movl   $0x0,0x10(%esp)
    10fd:	00 
    10fe:	89 5c 24 08          	mov    %ebx,0x8(%esp)
    1102:	89 5c 24 04          	mov    %ebx,0x4(%esp)
    1106:	89 04 24             	mov    %eax,(%esp)
    1109:	e8 72 ec 00 00       	call   fd80 <task_spawnl>
    110e:	85 c0                	test   %eax,%eax
    1110:	75 66                	jne    1178 <app_launch+0xb8>
    1112:	8d 45 ec             	lea    -0x14(%ebp),%eax
    1115:	8b 55 f4             	mov    -0xc(%ebp),%edx
    1118:	89 44 24 0c          	mov    %eax,0xc(%esp)
    111c:	8d 45 e8             	lea    -0x18(%ebp),%eax
    111f:	89 44 24 08          	mov    %eax,0x8(%esp)
    1123:	8b 45 f0             	mov    -0x10(%ebp),%eax
    1126:	89 04 24             	mov    %eax,(%esp)
    1129:	89 54 24 04          	mov    %edx,0x4(%esp)
    112d:	e8 5e ed 00 00       	call   fe90 <task_wait>
    1132:	85 c0                	test   %eax,%eax
    1134:	75 12                	jne    1148 <app_launch+0x88>
    1136:	8b 4d e8             	mov    -0x18(%ebp),%ecx
    1139:	8b 55 ec             	mov    -0x14(%ebp),%edx
    113c:	85 c9                	test   %ecx,%ecx
    113e:	75 08                	jne    1148 <app_launch+0x88>
    1140:	83 c4 34             	add    $0x34,%esp
    1143:	89 d0                	mov    %edx,%eax
    1145:	5b                   	pop    %ebx
    1146:	5d                   	pop    %ebp
    1147:	c3                   	ret    
    1148:	89 04 24             	mov    %eax,(%esp)
    114b:	e8 e0 ca 00 00       	call   dc30 <str_error>
    1150:	89 5c 24 08          	mov    %ebx,0x8(%esp)
    1154:	89 44 24 0c          	mov    %eax,0xc(%esp)
    1158:	c7 44 24 04 02 43 02 	movl   $0x24302,0x4(%esp)
    115f:	00 
    1160:	c7 04 24 f8 43 02 00 	movl   $0x243f8,(%esp)
    1167:	e8 44 14 01 00       	call   125b0 <printf>
    116c:	83 ca ff             	or     $0xffffffff,%edx
    116f:	eb cf                	jmp    1140 <app_launch+0x80>
    1171:	8d b4 26 00 00 00 00 	lea    0x0(%esi,%eiz,1),%esi
    1178:	89 04 24             	mov    %eax,(%esp)
    117b:	e8 b0 ca 00 00       	call   dc30 <str_error>
    1180:	89 5c 24 08          	mov    %ebx,0x8(%esp)
    1184:	89 44 24 10          	mov    %eax,0x10(%esp)
    1188:	a1 90 65 21 00       	mov    0x216590,%eax
    118d:	89 44 24 0c          	mov    %eax,0xc(%esp)
    1191:	c7 44 24 04 02 43 02 	movl   $0x24302,0x4(%esp)
    1198:	00 
    1199:	c7 04 24 d8 43 02 00 	movl   $0x243d8,(%esp)
    11a0:	e8 0b 14 01 00       	call   125b0 <printf>
    11a5:	83 ca ff             	or     $0xffffffff,%edx
    11a8:	eb 96                	jmp    1140 <app_launch+0x80>
    11aa:	8d b6 00 00 00 00    	lea    0x0(%esi),%esi

000011b0 <on_calendar>:
    11b0:	55                   	push   %ebp
    11b1:	b8 1f 43 02 00       	mov    $0x2431f,%eax
    11b6:	89 e5                	mov    %esp,%ebp
    11b8:	5d                   	pop    %ebp
    11b9:	e9 02 ff ff ff       	jmp    10c0 <app_launch>
    11be:	66 90                	xchg   %ax,%ax

000011c0 <on_calculator>:
    11c0:	55                   	push   %ebp
    11c1:	b8 2d 43 02 00       	mov    $0x2432d,%eax
    11c6:	89 e5                	mov    %esp,%ebp
    11c8:	5d                   	pop    %ebp
    11c9:	e9 f2 fe ff ff       	jmp    10c0 <app_launch>
    11ce:	66 90                	xchg   %ax,%ax

000011d0 <on_vterm>:
    11d0:	55                   	push   %ebp
    11d1:	b8 3d 43 02 00       	mov    $0x2433d,%eax
    11d6:	89 e5                	mov    %esp,%ebp
    11d8:	5d                   	pop    %ebp
    11d9:	e9 e2 fe ff ff       	jmp    10c0 <app_launch>
    11de:	66 90                	xchg   %ax,%ax

000011e0 <on_explorer>:
    11e0:	55                   	push   %ebp
    11e1:	89 e5                	mov    %esp,%ebp
    11e3:	83 ec 38             	sub    $0x38,%esp
    11e6:	a1 90 65 21 00       	mov    0x216590,%eax
    11eb:	89 44 24 0c          	mov    %eax,0xc(%esp)
    11ef:	c7 44 24 08 48 43 02 	movl   $0x24348,0x8(%esp)
    11f6:	00 
    11f7:	c7 44 24 04 02 43 02 	movl   $0x24302,0x4(%esp)
    11fe:	00 
    11ff:	c7 04 24 0a 43 02 00 	movl   $0x2430a,(%esp)
    1206:	e8 a5 13 01 00       	call   125b0 <printf>
    120b:	8d 45 f0             	lea    -0x10(%ebp),%eax
    120e:	c7 44 24 10 00 00 00 	movl   $0x0,0x10(%esp)
    1215:	00 
    1216:	c7 44 24 0c 5a 43 02 	movl   $0x2435a,0xc(%esp)
    121d:	00 
    121e:	c7 44 24 08 48 43 02 	movl   $0x24348,0x8(%esp)
    1225:	00 
    1226:	c7 44 24 04 48 43 02 	movl   $0x24348,0x4(%esp)
    122d:	00 
    122e:	89 04 24             	mov    %eax,(%esp)
    1231:	e8 4a eb 00 00       	call   fd80 <task_spawnl>
    1236:	85 c0                	test   %eax,%eax
    1238:	75 5e                	jne    1298 <on_explorer+0xb8>
    123a:	8d 45 ec             	lea    -0x14(%ebp),%eax
    123d:	8b 55 f4             	mov    -0xc(%ebp),%edx
    1240:	89 44 24 0c          	mov    %eax,0xc(%esp)
    1244:	8d 45 e8             	lea    -0x18(%ebp),%eax
    1247:	89 44 24 08          	mov    %eax,0x8(%esp)
    124b:	8b 45 f0             	mov    -0x10(%ebp),%eax
    124e:	89 04 24             	mov    %eax,(%esp)
    1251:	89 54 24 04          	mov    %edx,0x4(%esp)
    1255:	e8 36 ec 00 00       	call   fe90 <task_wait>
    125a:	85 c0                	test   %eax,%eax
    125c:	75 0a                	jne    1268 <on_explorer+0x88>
    125e:	8b 55 e8             	mov    -0x18(%ebp),%edx
    1261:	85 d2                	test   %edx,%edx
    1263:	75 03                	jne    1268 <on_explorer+0x88>
    1265:	c9                   	leave  
    1266:	c3                   	ret    
    1267:	90                   	nop
    1268:	89 04 24             	mov    %eax,(%esp)
    126b:	e8 c0 c9 00 00       	call   dc30 <str_error>
    1270:	c7 44 24 08 48 43 02 	movl   $0x24348,0x8(%esp)
    1277:	00 
    1278:	89 44 24 0c          	mov    %eax,0xc(%esp)
    127c:	c7 44 24 04 02 43 02 	movl   $0x24302,0x4(%esp)
    1283:	00 
    1284:	c7 04 24 f8 43 02 00 	movl   $0x243f8,(%esp)
    128b:	e8 20 13 01 00       	call   125b0 <printf>
    1290:	c9                   	leave  
    1291:	c3                   	ret    
    1292:	8d b6 00 00 00 00    	lea    0x0(%esi),%esi
    1298:	89 04 24             	mov    %eax,(%esp)
    129b:	e8 90 c9 00 00       	call   dc30 <str_error>
    12a0:	c7 44 24 08 48 43 02 	movl   $0x24348,0x8(%esp)
    12a7:	00 
    12a8:	89 44 24 10          	mov    %eax,0x10(%esp)
    12ac:	a1 90 65 21 00       	mov    0x216590,%eax
    12b1:	89 44 24 0c          	mov    %eax,0xc(%esp)
    12b5:	c7 44 24 04 02 43 02 	movl   $0x24302,0x4(%esp)
    12bc:	00 
    12bd:	c7 04 24 d8 43 02 00 	movl   $0x243d8,(%esp)
    12c4:	e8 e7 12 01 00       	call   125b0 <printf>
    12c9:	c9                   	leave  
    12ca:	c3                   	ret    
    12cb:	66 90                	xchg   %ax,%ax
    12cd:	66 90                	xchg   %ax,%ax
    12cf:	90                   	nop

000012d0 <main>:
    12d0:	55                   	push   %ebp
    12d1:	89 e5                	mov    %esp,%ebp
    12d3:	57                   	push   %edi
    12d4:	56                   	push   %esi
    12d5:	53                   	push   %ebx
    12d6:	83 e4 f0             	and    $0xfffffff0,%esp
    12d9:	83 ec 30             	sub    $0x30,%esp
    12dc:	83 7d 08 01          	cmpl   $0x1,0x8(%ebp)
    12e0:	0f 8e 69 03 00 00    	jle    164f <main+0x37f>
    12e6:	a1 80 70 02 00       	mov    0x27080,%eax
    12eb:	c7 44 24 08 00 00 00 	movl   $0x0,0x8(%esp)
    12f2:	00 
    12f3:	89 44 24 04          	mov    %eax,0x4(%esp)
    12f7:	c7 04 24 a0 70 02 00 	movl   $0x270a0,(%esp)
    12fe:	e8 ad 31 00 00       	call   44b0 <decode_tga>
    1303:	89 c6                	mov    %eax,%esi
    1305:	85 c0                	test   %eax,%eax
    1307:	0f 84 55 03 00 00    	je     1662 <main+0x392>
    130d:	8b 45 0c             	mov    0xc(%ebp),%eax
    1310:	8b 40 04             	mov    0x4(%eax),%eax
    1313:	c7 44 24 14 00 00 00 	movl   $0x0,0x14(%esp)
    131a:	00 
    131b:	c7 44 24 10 00 00 00 	movl   $0x0,0x10(%esp)
    1322:	00 
    1323:	c7 44 24 0c 74 43 02 	movl   $0x24374,0xc(%esp)
    132a:	00 
    132b:	c7 44 24 08 01 00 00 	movl   $0x1,0x8(%esp)
    1332:	00 
    1333:	c7 44 24 04 01 00 00 	movl   $0x1,0x4(%esp)
    133a:	00 
    133b:	89 04 24             	mov    %eax,(%esp)
    133e:	a3 90 65 21 00       	mov    %eax,0x216590
    1343:	e8 e8 2a 00 00       	call   3e30 <window_open>
    1348:	89 c3                	mov    %eax,%ebx
    134a:	85 c0                	test   %eax,%eax
    134c:	0f 84 23 03 00 00    	je     1675 <main+0x3a5>
    1352:	89 74 24 0c          	mov    %esi,0xc(%esp)
    1356:	c7 44 24 08 d0 02 00 	movl   $0x2d0,0x8(%esp)
    135d:	00 
    135e:	c7 44 24 04 00 04 00 	movl   $0x400,0x4(%esp)
    1365:	00 
    1366:	c7 04 24 00 00 00 00 	movl   $0x0,(%esp)
    136d:	e8 ae 30 00 00       	call   4420 <create_canvas>
    1372:	c7 44 24 10 00 00 00 	movl   $0xff000000,0x10(%esp)
    1379:	ff 
    137a:	c7 44 24 0c f0 f0 f0 	movl   $0xfff0f0f0,0xc(%esp)
    1381:	ff 
    1382:	c7 44 24 08 10 00 00 	movl   $0x10,0x8(%esp)
    1389:	00 
    138a:	c7 44 24 04 96 43 02 	movl   $0x24396,0x4(%esp)
    1391:	00 
    1392:	c7 04 24 00 00 00 00 	movl   $0x0,(%esp)
    1399:	89 44 24 20          	mov    %eax,0x20(%esp)
    139d:	e8 ee 06 00 00       	call   1a90 <create_button>
    13a2:	c7 44 24 10 00 00 00 	movl   $0xff000000,0x10(%esp)
    13a9:	ff 
    13aa:	c7 44 24 0c f0 f0 f0 	movl   $0xfff0f0f0,0xc(%esp)
    13b1:	ff 
    13b2:	c7 44 24 08 10 00 00 	movl   $0x10,0x8(%esp)
    13b9:	00 
    13ba:	c7 44 24 04 9d 43 02 	movl   $0x2439d,0x4(%esp)
    13c1:	00 
    13c2:	c7 04 24 00 00 00 00 	movl   $0x0,(%esp)
    13c9:	89 44 24 2c          	mov    %eax,0x2c(%esp)
    13cd:	e8 be 06 00 00       	call   1a90 <create_button>
    13d2:	c7 44 24 10 00 00 00 	movl   $0xff000000,0x10(%esp)
    13d9:	ff 
    13da:	c7 44 24 0c f0 f0 f0 	movl   $0xfff0f0f0,0xc(%esp)
    13e1:	ff 
    13e2:	c7 44 24 08 10 00 00 	movl   $0x10,0x8(%esp)
    13e9:	00 
    13ea:	c7 44 24 04 a4 43 02 	movl   $0x243a4,0x4(%esp)
    13f1:	00 
    13f2:	c7 04 24 00 00 00 00 	movl   $0x0,(%esp)
    13f9:	89 c6                	mov    %eax,%esi
    13fb:	e8 90 06 00 00       	call   1a90 <create_button>
    1400:	c7 44 24 10 00 00 00 	movl   $0xff000000,0x10(%esp)
    1407:	ff 
    1408:	c7 44 24 0c f0 f0 f0 	movl   $0xfff0f0f0,0xc(%esp)
    140f:	ff 
    1410:	c7 44 24 08 10 00 00 	movl   $0x10,0x8(%esp)
    1417:	00 
    1418:	c7 44 24 04 af 43 02 	movl   $0x243af,0x4(%esp)
    141f:	00 
    1420:	c7 04 24 00 00 00 00 	movl   $0x0,(%esp)
    1427:	89 44 24 24          	mov    %eax,0x24(%esp)
    142b:	e8 60 06 00 00       	call   1a90 <create_button>
    1430:	89 1c 24             	mov    %ebx,(%esp)
    1433:	89 44 24 28          	mov    %eax,0x28(%esp)
    1437:	e8 a4 2c 00 00       	call   40e0 <window_root>
    143c:	c7 44 24 0c 00 14 3c 	movl   $0xff3c1400,0xc(%esp)
    1443:	ff 
    1444:	c7 44 24 08 19 00 00 	movl   $0x19,0x8(%esp)
    144b:	00 
    144c:	c7 44 24 04 19 00 00 	movl   $0x19,0x4(%esp)
    1453:	00 
    1454:	89 04 24             	mov    %eax,(%esp)
    1457:	e8 84 17 00 00       	call   2be0 <create_grid>
    145c:	85 f6                	test   %esi,%esi
    145e:	89 c7                	mov    %eax,%edi
    1460:	0f 84 c8 01 00 00    	je     162e <main+0x35e>
    1466:	83 7c 24 2c 00       	cmpl   $0x0,0x2c(%esp)
    146b:	0f 84 bd 01 00 00    	je     162e <main+0x35e>
    1471:	83 7c 24 28 00       	cmpl   $0x0,0x28(%esp)
    1476:	0f 84 b2 01 00 00    	je     162e <main+0x35e>
    147c:	83 7c 24 24 00       	cmpl   $0x0,0x24(%esp)
    1481:	0f 84 a7 01 00 00    	je     162e <main+0x35e>
    1487:	85 c0                	test   %eax,%eax
    1489:	0f 84 9f 01 00 00    	je     162e <main+0x35e>
    148f:	8b 44 24 2c          	mov    0x2c(%esp),%eax
    1493:	c7 44 24 08 d0 11 00 	movl   $0x11d0,0x8(%esp)
    149a:	00 
    149b:	05 34 01 00 00       	add    $0x134,%eax
    14a0:	c7 44 24 04 00 00 00 	movl   $0x0,0x4(%esp)
    14a7:	00 
    14a8:	89 04 24             	mov    %eax,(%esp)
    14ab:	e8 10 07 00 00       	call   1bc0 <sig_connect>
    14b0:	8d 86 34 01 00 00    	lea    0x134(%esi),%eax
    14b6:	89 04 24             	mov    %eax,(%esp)
    14b9:	c7 44 24 08 c0 11 00 	movl   $0x11c0,0x8(%esp)
    14c0:	00 
    14c1:	c7 44 24 04 00 00 00 	movl   $0x0,0x4(%esp)
    14c8:	00 
    14c9:	e8 f2 06 00 00       	call   1bc0 <sig_connect>
    14ce:	8b 44 24 24          	mov    0x24(%esp),%eax
    14d2:	05 34 01 00 00       	add    $0x134,%eax
    14d7:	c7 44 24 08 b0 11 00 	movl   $0x11b0,0x8(%esp)
    14de:	00 
    14df:	89 04 24             	mov    %eax,(%esp)
    14e2:	c7 44 24 04 00 00 00 	movl   $0x0,0x4(%esp)
    14e9:	00 
    14ea:	e8 d1 06 00 00       	call   1bc0 <sig_connect>
    14ef:	8b 44 24 28          	mov    0x28(%esp),%eax
    14f3:	05 34 01 00 00       	add    $0x134,%eax
    14f8:	c7 44 24 08 e0 11 00 	movl   $0x11e0,0x8(%esp)
    14ff:	00 
    1500:	89 04 24             	mov    %eax,(%esp)
    1503:	c7 44 24 04 00 00 00 	movl   $0x0,0x4(%esp)
    150a:	00 
    150b:	e8 b0 06 00 00       	call   1bc0 <sig_connect>
    1510:	8b 44 24 20          	mov    0x20(%esp),%eax
    1514:	c7 44 24 14 18 00 00 	movl   $0x18,0x14(%esp)
    151b:	00 
    151c:	c7 44 24 10 14 00 00 	movl   $0x14,0x10(%esp)
    1523:	00 
    1524:	c7 44 24 0c 00 00 00 	movl   $0x0,0xc(%esp)
    152b:	00 
    152c:	c7 44 24 08 00 00 00 	movl   $0x0,0x8(%esp)
    1533:	00 
    1534:	89 44 24 04          	mov    %eax,0x4(%esp)
    1538:	89 3c 24             	mov    %edi,(%esp)
    153b:	ff 57 68             	call   *0x68(%edi)
    153e:	8b 44 24 2c          	mov    0x2c(%esp),%eax
    1542:	c7 44 24 14 02 00 00 	movl   $0x2,0x14(%esp)
    1549:	00 
    154a:	c7 44 24 10 02 00 00 	movl   $0x2,0x10(%esp)
    1551:	00 
    1552:	c7 44 24 0c 05 00 00 	movl   $0x5,0xc(%esp)
    1559:	00 
    155a:	c7 44 24 08 15 00 00 	movl   $0x15,0x8(%esp)
    1561:	00 
    1562:	89 44 24 04          	mov    %eax,0x4(%esp)
    1566:	89 3c 24             	mov    %edi,(%esp)
    1569:	ff 57 68             	call   *0x68(%edi)
    156c:	c7 44 24 14 02 00 00 	movl   $0x2,0x14(%esp)
    1573:	00 
    1574:	c7 44 24 10 02 00 00 	movl   $0x2,0x10(%esp)
    157b:	00 
    157c:	c7 44 24 0c 08 00 00 	movl   $0x8,0xc(%esp)
    1583:	00 
    1584:	c7 44 24 08 15 00 00 	movl   $0x15,0x8(%esp)
    158b:	00 
    158c:	89 74 24 04          	mov    %esi,0x4(%esp)
    1590:	89 3c 24             	mov    %edi,(%esp)
    1593:	ff 57 68             	call   *0x68(%edi)
    1596:	8b 44 24 24          	mov    0x24(%esp),%eax
    159a:	c7 44 24 14 02 00 00 	movl   $0x2,0x14(%esp)
    15a1:	00 
    15a2:	c7 44 24 10 02 00 00 	movl   $0x2,0x10(%esp)
    15a9:	00 
    15aa:	c7 44 24 0c 0c 00 00 	movl   $0xc,0xc(%esp)
    15b1:	00 
    15b2:	c7 44 24 08 15 00 00 	movl   $0x15,0x8(%esp)
    15b9:	00 
    15ba:	89 44 24 04          	mov    %eax,0x4(%esp)
    15be:	89 3c 24             	mov    %edi,(%esp)
    15c1:	ff 57 68             	call   *0x68(%edi)
    15c4:	8b 44 24 28          	mov    0x28(%esp),%eax
    15c8:	c7 44 24 14 02 00 00 	movl   $0x2,0x14(%esp)
    15cf:	00 
    15d0:	c7 44 24 10 02 00 00 	movl   $0x2,0x10(%esp)
    15d7:	00 
    15d8:	c7 44 24 0c 0f 00 00 	movl   $0xf,0xc(%esp)
    15df:	00 
    15e0:	c7 44 24 08 15 00 00 	movl   $0x15,0x8(%esp)
    15e7:	00 
    15e8:	89 44 24 04          	mov    %eax,0x4(%esp)
    15ec:	89 3c 24             	mov    %edi,(%esp)
    15ef:	ff 57 68             	call   *0x68(%edi)
    15f2:	c7 44 24 08 d0 02 00 	movl   $0x2d0,0x8(%esp)
    15f9:	00 
    15fa:	c7 44 24 04 32 04 00 	movl   $0x432,0x4(%esp)
    1601:	00 
    1602:	89 1c 24             	mov    %ebx,(%esp)
    1605:	e8 f6 29 00 00       	call   4000 <window_resize>
    160a:	89 1c 24             	mov    %ebx,(%esp)
    160d:	e8 de 2a 00 00       	call   40f0 <window_exec>
    1612:	c7 04 24 00 00 00 00 	movl   $0x0,(%esp)
    1619:	e8 52 e9 00 00       	call   ff70 <task_retval>
    161e:	c7 04 24 01 00 00 00 	movl   $0x1,(%esp)
    1625:	e8 26 c8 00 00       	call   de50 <fibril_switch>
    162a:	31 c0                	xor    %eax,%eax
    162c:	eb 19                	jmp    1647 <main+0x377>
    162e:	89 1c 24             	mov    %ebx,(%esp)
    1631:	e8 6a 2b 00 00       	call   41a0 <window_close>
    1636:	c7 04 24 bd 43 02 00 	movl   $0x243bd,(%esp)
    163d:	e8 6e 0f 01 00       	call   125b0 <printf>
    1642:	b8 01 00 00 00       	mov    $0x1,%eax
    1647:	8d 65 f4             	lea    -0xc(%ebp),%esp
    164a:	5b                   	pop    %ebx
    164b:	5e                   	pop    %esi
    164c:	5f                   	pop    %edi
    164d:	5d                   	pop    %ebp
    164e:	c3                   	ret    
    164f:	c7 04 24 24 44 02 00 	movl   $0x24424,(%esp)
    1656:	e8 55 0f 01 00       	call   125b0 <printf>
    165b:	b8 01 00 00 00       	mov    $0x1,%eax
    1660:	eb e5                	jmp    1647 <main+0x377>
    1662:	c7 04 24 5c 43 02 00 	movl   $0x2435c,(%esp)
    1669:	e8 42 0f 01 00       	call   125b0 <printf>
    166e:	b8 01 00 00 00       	mov    $0x1,%eax
    1673:	eb d2                	jmp    1647 <main+0x377>
    1675:	c7 04 24 7c 43 02 00 	movl   $0x2437c,(%esp)
    167c:	e8 2f 0f 01 00       	call   125b0 <printf>
    1681:	b8 01 00 00 00       	mov    $0x1,%eax
    1686:	eb bf                	jmp    1647 <main+0x377>
    1688:	66 90                	xchg   %ax,%ax
    168a:	66 90                	xchg   %ax,%ax
    168c:	66 90                	xchg   %ax,%ax
    168e:	66 90                	xchg   %ax,%ax

00001690 <button_reconfigure>:
    1690:	55                   	push   %ebp
    1691:	89 e5                	mov    %esp,%ebp
    1693:	5d                   	pop    %ebp
    1694:	c3                   	ret    
    1695:	8d 74 26 00          	lea    0x0(%esi,%eiz,1),%esi
    1699:	8d bc 27 00 00 00 00 	lea    0x0(%edi,%eiz,1),%edi

000016a0 <paint_internal>:
    16a0:	55                   	push   %ebp
    16a1:	89 e5                	mov    %esp,%ebp
    16a3:	57                   	push   %edi
    16a4:	56                   	push   %esi
    16a5:	53                   	push   %ebx
    16a6:	83 ec 7c             	sub    $0x7c,%esp
    16a9:	89 c7                	mov    %eax,%edi
    16ab:	8b 40 14             	mov    0x14(%eax),%eax
    16ae:	89 04 24             	mov    %eax,(%esp)
    16b1:	e8 9a 2a 00 00       	call   4150 <window_claim>
    16b6:	85 c0                	test   %eax,%eax
    16b8:	0f 84 4a 01 00 00    	je     1808 <paint_internal+0x168>
    16be:	8d 5d b0             	lea    -0x50(%ebp),%ebx
    16c1:	89 44 24 04          	mov    %eax,0x4(%esp)
    16c5:	89 1c 24             	mov    %ebx,(%esp)
    16c8:	e8 63 30 00 00       	call   4730 <drawctx_init>
    16cd:	8d 87 bc 00 00 00    	lea    0xbc(%edi),%eax
    16d3:	89 44 24 04          	mov    %eax,0x4(%esp)
    16d7:	89 1c 24             	mov    %ebx,(%esp)
    16da:	89 45 a4             	mov    %eax,-0x5c(%ebp)
    16dd:	e8 3e 32 00 00       	call   4920 <drawctx_set_source>
    16e2:	8b 47 24             	mov    0x24(%edi),%eax
    16e5:	89 1c 24             	mov    %ebx,(%esp)
    16e8:	89 44 24 10          	mov    %eax,0x10(%esp)
    16ec:	8b 47 20             	mov    0x20(%edi),%eax
    16ef:	89 44 24 0c          	mov    %eax,0xc(%esp)
    16f3:	8b 47 1c             	mov    0x1c(%edi),%eax
    16f6:	89 44 24 08          	mov    %eax,0x8(%esp)
    16fa:	8b 47 18             	mov    0x18(%edi),%eax
    16fd:	89 44 24 04          	mov    %eax,0x4(%esp)
    1701:	e8 3a 32 00 00       	call   4940 <drawctx_transfer>
    1706:	83 7f 20 05          	cmpl   $0x5,0x20(%edi)
    170a:	76 0a                	jbe    1716 <paint_internal+0x76>
    170c:	83 7f 24 05          	cmpl   $0x5,0x24(%edi)
    1710:	0f 87 aa 00 00 00    	ja     17c0 <paint_internal+0x120>
    1716:	8d 45 ac             	lea    -0x54(%ebp),%eax
    1719:	8d b7 24 01 00 00    	lea    0x124(%edi),%esi
    171f:	89 44 24 0c          	mov    %eax,0xc(%esp)
    1723:	8d 45 a8             	lea    -0x58(%ebp),%eax
    1726:	89 44 24 08          	mov    %eax,0x8(%esp)
    172a:	8b 87 20 01 00 00    	mov    0x120(%edi),%eax
    1730:	89 44 24 04          	mov    %eax,0x4(%esp)
    1734:	89 34 24             	mov    %esi,(%esp)
    1737:	e8 34 36 00 00       	call   4d70 <font_get_box>
    173c:	8b 45 a8             	mov    -0x58(%ebp),%eax
    173f:	39 47 20             	cmp    %eax,0x20(%edi)
    1742:	72 08                	jb     174c <paint_internal+0xac>
    1744:	8b 45 ac             	mov    -0x54(%ebp),%eax
    1747:	39 47 24             	cmp    %eax,0x24(%edi)
    174a:	73 14                	jae    1760 <paint_internal+0xc0>
    174c:	8b 47 14             	mov    0x14(%edi),%eax
    174f:	89 04 24             	mov    %eax,(%esp)
    1752:	e8 29 2a 00 00       	call   4180 <window_yield>
    1757:	83 c4 7c             	add    $0x7c,%esp
    175a:	5b                   	pop    %ebx
    175b:	5e                   	pop    %esi
    175c:	5f                   	pop    %edi
    175d:	5d                   	pop    %ebp
    175e:	c3                   	ret    
    175f:	90                   	nop
    1760:	8b 45 a4             	mov    -0x5c(%ebp),%eax
    1763:	89 1c 24             	mov    %ebx,(%esp)
    1766:	89 44 24 04          	mov    %eax,0x4(%esp)
    176a:	e8 b1 31 00 00       	call   4920 <drawctx_set_source>
    176f:	89 74 24 04          	mov    %esi,0x4(%esp)
    1773:	89 1c 24             	mov    %ebx,(%esp)
    1776:	e8 b5 31 00 00       	call   4930 <drawctx_set_font>
    177b:	8b 55 a8             	mov    -0x58(%ebp),%edx
    177e:	8b 47 20             	mov    0x20(%edi),%eax
    1781:	8b 4f 18             	mov    0x18(%edi),%ecx
    1784:	29 d0                	sub    %edx,%eax
    1786:	8b 75 ac             	mov    -0x54(%ebp),%esi
    1789:	d1 e8                	shr    %eax
    178b:	8b 57 1c             	mov    0x1c(%edi),%edx
    178e:	01 c8                	add    %ecx,%eax
    1790:	8b 4f 24             	mov    0x24(%edi),%ecx
    1793:	29 f1                	sub    %esi,%ecx
    1795:	8b b7 20 01 00 00    	mov    0x120(%edi),%esi
    179b:	d1 e9                	shr    %ecx
    179d:	01 d1                	add    %edx,%ecx
    179f:	85 f6                	test   %esi,%esi
    17a1:	74 a9                	je     174c <paint_internal+0xac>
    17a3:	89 4c 24 0c          	mov    %ecx,0xc(%esp)
    17a7:	89 44 24 08          	mov    %eax,0x8(%esp)
    17ab:	89 74 24 04          	mov    %esi,0x4(%esp)
    17af:	89 1c 24             	mov    %ebx,(%esp)
    17b2:	e8 39 34 00 00       	call   4bf0 <drawctx_print>
    17b7:	eb 93                	jmp    174c <paint_internal+0xac>
    17b9:	8d b4 26 00 00 00 00 	lea    0x0(%esi,%eiz,1),%esi
    17c0:	8d 47 58             	lea    0x58(%edi),%eax
    17c3:	89 1c 24             	mov    %ebx,(%esp)
    17c6:	89 44 24 04          	mov    %eax,0x4(%esp)
    17ca:	e8 51 31 00 00       	call   4920 <drawctx_set_source>
    17cf:	8b 47 24             	mov    0x24(%edi),%eax
    17d2:	83 e8 06             	sub    $0x6,%eax
    17d5:	89 1c 24             	mov    %ebx,(%esp)
    17d8:	89 44 24 10          	mov    %eax,0x10(%esp)
    17dc:	8b 47 20             	mov    0x20(%edi),%eax
    17df:	83 e8 06             	sub    $0x6,%eax
    17e2:	89 44 24 0c          	mov    %eax,0xc(%esp)
    17e6:	8b 47 1c             	mov    0x1c(%edi),%eax
    17e9:	83 c0 03             	add    $0x3,%eax
    17ec:	89 44 24 08          	mov    %eax,0x8(%esp)
    17f0:	8b 47 18             	mov    0x18(%edi),%eax
    17f3:	83 c0 03             	add    $0x3,%eax
    17f6:	89 44 24 04          	mov    %eax,0x4(%esp)
    17fa:	e8 41 31 00 00       	call   4940 <drawctx_transfer>
    17ff:	e9 12 ff ff ff       	jmp    1716 <paint_internal+0x76>
    1804:	8d 74 26 00          	lea    0x0(%esi,%eiz,1),%esi
    1808:	8b 4f 14             	mov    0x14(%edi),%ecx
    180b:	89 45 a0             	mov    %eax,-0x60(%ebp)
    180e:	89 0c 24             	mov    %ecx,(%esp)
    1811:	e8 6a 29 00 00       	call   4180 <window_yield>
    1816:	8b 45 a0             	mov    -0x60(%ebp),%eax
    1819:	e9 a0 fe ff ff       	jmp    16be <paint_internal+0x1e>
    181e:	66 90                	xchg   %ax,%ax

00001820 <button_repaint>:
    1820:	55                   	push   %ebp
    1821:	89 e5                	mov    %esp,%ebp
    1823:	53                   	push   %ebx
    1824:	51                   	push   %ecx
    1825:	8b 5d 08             	mov    0x8(%ebp),%ebx
    1828:	89 d8                	mov    %ebx,%eax
    182a:	e8 71 fe ff ff       	call   16a0 <paint_internal>
    182f:	8b 43 14             	mov    0x14(%ebx),%eax
    1832:	89 45 08             	mov    %eax,0x8(%ebp)
    1835:	5b                   	pop    %ebx
    1836:	5b                   	pop    %ebx
    1837:	5d                   	pop    %ebp
    1838:	e9 63 28 00 00       	jmp    40a0 <window_damage>
    183d:	8d 76 00             	lea    0x0(%esi),%esi

00001840 <button_rearrange>:
    1840:	55                   	push   %ebp
    1841:	89 e5                	mov    %esp,%ebp
    1843:	53                   	push   %ebx
    1844:	83 ec 24             	sub    $0x24,%esp
    1847:	8b 45 18             	mov    0x18(%ebp),%eax
    184a:	8b 5d 08             	mov    0x8(%ebp),%ebx
    184d:	89 44 24 10          	mov    %eax,0x10(%esp)
    1851:	8b 45 14             	mov    0x14(%ebp),%eax
    1854:	89 44 24 0c          	mov    %eax,0xc(%esp)
    1858:	8b 45 10             	mov    0x10(%ebp),%eax
    185b:	89 44 24 08          	mov    %eax,0x8(%esp)
    185f:	8b 45 0c             	mov    0xc(%ebp),%eax
    1862:	89 44 24 04          	mov    %eax,0x4(%esp)
    1866:	89 1c 24             	mov    %ebx,(%esp)
    1869:	e8 e2 14 00 00       	call   2d50 <widget_modify>
    186e:	83 c4 24             	add    $0x24,%esp
    1871:	89 d8                	mov    %ebx,%eax
    1873:	5b                   	pop    %ebx
    1874:	5d                   	pop    %ebp
    1875:	e9 26 fe ff ff       	jmp    16a0 <paint_internal>
    187a:	8d b6 00 00 00 00    	lea    0x0(%esi),%esi

00001880 <button_handle_position_event>:
    1880:	55                   	push   %ebp
    1881:	89 e5                	mov    %esp,%ebp
    1883:	8b 45 08             	mov    0x8(%ebp),%eax
    1886:	83 7d 14 01          	cmpl   $0x1,0x14(%ebp)
    188a:	8b 50 14             	mov    0x14(%eax),%edx
    188d:	89 82 8c 00 00 00    	mov    %eax,0x8c(%edx)
    1893:	74 03                	je     1898 <button_handle_position_event+0x18>
    1895:	5d                   	pop    %ebp
    1896:	c3                   	ret    
    1897:	90                   	nop
    1898:	83 7d 10 02          	cmpl   $0x2,0x10(%ebp)
    189c:	75 f7                	jne    1895 <button_handle_position_event+0x15>
    189e:	05 34 01 00 00       	add    $0x134,%eax
    18a3:	c7 45 0c 00 00 00 00 	movl   $0x0,0xc(%ebp)
    18aa:	89 45 08             	mov    %eax,0x8(%ebp)
    18ad:	5d                   	pop    %ebp
    18ae:	e9 dd 05 00 00       	jmp    1e90 <sig_send>
    18b3:	8d b6 00 00 00 00    	lea    0x0(%esi),%esi
    18b9:	8d bc 27 00 00 00 00 	lea    0x0(%edi,%eiz,1),%edi

000018c0 <button_handle_keyboard_event>:
    18c0:	55                   	push   %ebp
    18c1:	89 e5                	mov    %esp,%ebp
    18c3:	8b 45 08             	mov    0x8(%ebp),%eax
    18c6:	83 7d 18 29          	cmpl   $0x29,0x18(%ebp)
    18ca:	74 04                	je     18d0 <button_handle_keyboard_event+0x10>
    18cc:	5d                   	pop    %ebp
    18cd:	c3                   	ret    
    18ce:	66 90                	xchg   %ax,%ax
    18d0:	8b 55 14             	mov    0x14(%ebp),%edx
    18d3:	85 d2                	test   %edx,%edx
    18d5:	75 f5                	jne    18cc <button_handle_keyboard_event+0xc>
    18d7:	05 34 01 00 00       	add    $0x134,%eax
    18dc:	c7 45 0c 00 00 00 00 	movl   $0x0,0xc(%ebp)
    18e3:	89 45 08             	mov    %eax,0x8(%ebp)
    18e6:	5d                   	pop    %ebp
    18e7:	e9 a4 05 00 00       	jmp    1e90 <sig_send>
    18ec:	8d 74 26 00          	lea    0x0(%esi,%eiz,1),%esi

000018f0 <button_destroy>:
    18f0:	55                   	push   %ebp
    18f1:	89 e5                	mov    %esp,%ebp
    18f3:	53                   	push   %ebx
    18f4:	83 ec 14             	sub    $0x14,%esp
    18f7:	8b 5d 08             	mov    0x8(%ebp),%ebx
    18fa:	89 1c 24             	mov    %ebx,(%esp)
    18fd:	e8 6e 14 00 00       	call   2d70 <widget_deinit>
    1902:	8b 83 20 01 00 00    	mov    0x120(%ebx),%eax
    1908:	89 04 24             	mov    %eax,(%esp)
    190b:	e8 f0 5f 01 00       	call   17900 <free>
    1910:	8d 83 24 01 00 00    	lea    0x124(%ebx),%eax
    1916:	89 04 24             	mov    %eax,(%esp)
    1919:	e8 e2 33 00 00       	call   4d00 <font_release>
    191e:	89 5d 08             	mov    %ebx,0x8(%ebp)
    1921:	83 c4 14             	add    $0x14,%esp
    1924:	5b                   	pop    %ebx
    1925:	5d                   	pop    %ebp
    1926:	e9 d5 5f 01 00       	jmp    17900 <free>
    192b:	90                   	nop
    192c:	8d 74 26 00          	lea    0x0(%esi,%eiz,1),%esi

00001930 <deinit_button>:
    1930:	55                   	push   %ebp
    1931:	89 e5                	mov    %esp,%ebp
    1933:	53                   	push   %ebx
    1934:	83 ec 14             	sub    $0x14,%esp
    1937:	8b 5d 08             	mov    0x8(%ebp),%ebx
    193a:	89 1c 24             	mov    %ebx,(%esp)
    193d:	e8 2e 14 00 00       	call   2d70 <widget_deinit>
    1942:	8b 83 20 01 00 00    	mov    0x120(%ebx),%eax
    1948:	89 04 24             	mov    %eax,(%esp)
    194b:	81 c3 24 01 00 00    	add    $0x124,%ebx
    1951:	e8 aa 5f 01 00       	call   17900 <free>
    1956:	89 5d 08             	mov    %ebx,0x8(%ebp)
    1959:	83 c4 14             	add    $0x14,%esp
    195c:	5b                   	pop    %ebx
    195d:	5d                   	pop    %ebp
    195e:	e9 9d 33 00 00       	jmp    4d00 <font_release>
    1963:	8d b6 00 00 00 00    	lea    0x0(%esi),%esi
    1969:	8d bc 27 00 00 00 00 	lea    0x0(%edi,%eiz,1),%edi

00001970 <init_button>:
    1970:	55                   	push   %ebp
    1971:	89 e5                	mov    %esp,%ebp
    1973:	57                   	push   %edi
    1974:	56                   	push   %esi
    1975:	53                   	push   %ebx
    1976:	83 ec 2c             	sub    $0x2c,%esp
    1979:	8b 5d 08             	mov    0x8(%ebp),%ebx
    197c:	8b 45 0c             	mov    0xc(%ebp),%eax
    197f:	89 44 24 04          	mov    %eax,0x4(%esp)
    1983:	89 1c 24             	mov    %ebx,(%esp)
    1986:	8d 73 58             	lea    0x58(%ebx),%esi
    1989:	8b 7d 14             	mov    0x14(%ebp),%edi
    198c:	e8 1f 13 00 00       	call   2cb0 <widget_init>
    1991:	c7 43 40 f0 18 00 00 	movl   $0x18f0,0x40(%ebx)
    1998:	c7 43 44 90 16 00 00 	movl   $0x1690,0x44(%ebx)
    199f:	c7 43 48 40 18 00 00 	movl   $0x1840,0x48(%ebx)
    19a6:	c7 43 4c 20 18 00 00 	movl   $0x1820,0x4c(%ebx)
    19ad:	c7 43 50 c0 18 00 00 	movl   $0x18c0,0x50(%ebx)
    19b4:	c7 43 54 80 18 00 00 	movl   $0x1880,0x54(%ebx)
    19bb:	89 34 24             	mov    %esi,(%esp)
    19be:	e8 bd 36 00 00       	call   5080 <source_init>
    19c3:	8b 55 18             	mov    0x18(%ebp),%edx
    19c6:	89 54 24 04          	mov    %edx,0x4(%esp)
    19ca:	89 34 24             	mov    %esi,(%esp)
    19cd:	8d b3 bc 00 00 00    	lea    0xbc(%ebx),%esi
    19d3:	e8 38 37 00 00       	call   5110 <source_set_color>
    19d8:	89 34 24             	mov    %esi,(%esp)
    19db:	e8 a0 36 00 00       	call   5080 <source_init>
    19e0:	8b 55 1c             	mov    0x1c(%ebp),%edx
    19e3:	89 54 24 04          	mov    %edx,0x4(%esp)
    19e7:	89 34 24             	mov    %esi,(%esp)
    19ea:	e8 21 37 00 00       	call   5110 <source_set_color>
    19ef:	8b 4d 10             	mov    0x10(%ebp),%ecx
    19f2:	85 c9                	test   %ecx,%ecx
    19f4:	0f 84 7e 00 00 00    	je     1a78 <init_button+0x108>
    19fa:	8b 45 10             	mov    0x10(%ebp),%eax
    19fd:	89 04 24             	mov    %eax,(%esp)
    1a00:	e8 eb b8 00 00       	call   d2f0 <str_dup>
    1a05:	89 83 20 01 00 00    	mov    %eax,0x120(%ebx)
    1a0b:	8d b3 24 01 00 00    	lea    0x124(%ebx),%esi
    1a11:	81 e7 ff ff 00 00    	and    $0xffff,%edi
    1a17:	89 7c 24 0c          	mov    %edi,0xc(%esp)
    1a1b:	89 34 24             	mov    %esi,(%esp)
    1a1e:	c7 44 24 08 00 00 00 	movl   $0x0,0x8(%esp)
    1a25:	00 
    1a26:	c7 44 24 04 00 00 00 	movl   $0x0,0x4(%esp)
    1a2d:	00 
    1a2e:	e8 0d 32 00 00       	call   4c40 <font_init>
    1a33:	8d 45 e4             	lea    -0x1c(%ebp),%eax
    1a36:	89 44 24 0c          	mov    %eax,0xc(%esp)
    1a3a:	8d 45 e0             	lea    -0x20(%ebp),%eax
    1a3d:	89 44 24 08          	mov    %eax,0x8(%esp)
    1a41:	8b 83 20 01 00 00    	mov    0x120(%ebx),%eax
    1a47:	89 34 24             	mov    %esi,(%esp)
    1a4a:	89 44 24 04          	mov    %eax,0x4(%esp)
    1a4e:	e8 1d 33 00 00       	call   4d70 <font_get_box>
    1a53:	8b 55 e0             	mov    -0x20(%ebp),%edx
    1a56:	8d 42 08             	lea    0x8(%edx),%eax
    1a59:	83 c2 1c             	add    $0x1c,%edx
    1a5c:	89 43 28             	mov    %eax,0x28(%ebx)
    1a5f:	8b 45 e4             	mov    -0x1c(%ebp),%eax
    1a62:	83 c0 08             	add    $0x8,%eax
    1a65:	89 53 30             	mov    %edx,0x30(%ebx)
    1a68:	89 43 2c             	mov    %eax,0x2c(%ebx)
    1a6b:	89 43 34             	mov    %eax,0x34(%ebx)
    1a6e:	83 c4 2c             	add    $0x2c,%esp
    1a71:	b0 01                	mov    $0x1,%al
    1a73:	5b                   	pop    %ebx
    1a74:	5e                   	pop    %esi
    1a75:	5f                   	pop    %edi
    1a76:	5d                   	pop    %ebp
    1a77:	c3                   	ret    
    1a78:	c7 83 20 01 00 00 00 	movl   $0x0,0x120(%ebx)
    1a7f:	00 00 00 
    1a82:	eb 87                	jmp    1a0b <init_button+0x9b>
    1a84:	8d b6 00 00 00 00    	lea    0x0(%esi),%esi
    1a8a:	8d bf 00 00 00 00    	lea    0x0(%edi),%edi

00001a90 <create_button>:
    1a90:	55                   	push   %ebp
    1a91:	89 e5                	mov    %esp,%ebp
    1a93:	57                   	push   %edi
    1a94:	56                   	push   %esi
    1a95:	53                   	push   %ebx
    1a96:	83 ec 2c             	sub    $0x2c,%esp
    1a99:	8b 7d 10             	mov    0x10(%ebp),%edi
    1a9c:	c7 04 24 38 01 00 00 	movl   $0x138,(%esp)
    1aa3:	e8 48 5d 01 00       	call   177f0 <malloc>
    1aa8:	89 c3                	mov    %eax,%ebx
    1aaa:	85 c0                	test   %eax,%eax
    1aac:	0f 84 eb 00 00 00    	je     1b9d <create_button+0x10d>
    1ab2:	8b 45 08             	mov    0x8(%ebp),%eax
    1ab5:	8d 73 58             	lea    0x58(%ebx),%esi
    1ab8:	89 44 24 04          	mov    %eax,0x4(%esp)
    1abc:	89 1c 24             	mov    %ebx,(%esp)
    1abf:	e8 ec 11 00 00       	call   2cb0 <widget_init>
    1ac4:	89 34 24             	mov    %esi,(%esp)
    1ac7:	c7 43 40 f0 18 00 00 	movl   $0x18f0,0x40(%ebx)
    1ace:	c7 43 44 90 16 00 00 	movl   $0x1690,0x44(%ebx)
    1ad5:	c7 43 48 40 18 00 00 	movl   $0x1840,0x48(%ebx)
    1adc:	c7 43 4c 20 18 00 00 	movl   $0x1820,0x4c(%ebx)
    1ae3:	c7 43 50 c0 18 00 00 	movl   $0x18c0,0x50(%ebx)
    1aea:	c7 43 54 80 18 00 00 	movl   $0x1880,0x54(%ebx)
    1af1:	e8 8a 35 00 00       	call   5080 <source_init>
    1af6:	8b 55 14             	mov    0x14(%ebp),%edx
    1af9:	89 54 24 04          	mov    %edx,0x4(%esp)
    1afd:	89 34 24             	mov    %esi,(%esp)
    1b00:	8d b3 bc 00 00 00    	lea    0xbc(%ebx),%esi
    1b06:	e8 05 36 00 00       	call   5110 <source_set_color>
    1b0b:	89 34 24             	mov    %esi,(%esp)
    1b0e:	e8 6d 35 00 00       	call   5080 <source_init>
    1b13:	8b 55 18             	mov    0x18(%ebp),%edx
    1b16:	89 34 24             	mov    %esi,(%esp)
    1b19:	89 54 24 04          	mov    %edx,0x4(%esp)
    1b1d:	e8 ee 35 00 00       	call   5110 <source_set_color>
    1b22:	8b 75 0c             	mov    0xc(%ebp),%esi
    1b25:	85 f6                	test   %esi,%esi
    1b27:	74 7f                	je     1ba8 <create_button+0x118>
    1b29:	8b 45 0c             	mov    0xc(%ebp),%eax
    1b2c:	89 04 24             	mov    %eax,(%esp)
    1b2f:	e8 bc b7 00 00       	call   d2f0 <str_dup>
    1b34:	89 83 20 01 00 00    	mov    %eax,0x120(%ebx)
    1b3a:	8d b3 24 01 00 00    	lea    0x124(%ebx),%esi
    1b40:	81 e7 ff ff 00 00    	and    $0xffff,%edi
    1b46:	89 7c 24 0c          	mov    %edi,0xc(%esp)
    1b4a:	c7 44 24 08 00 00 00 	movl   $0x0,0x8(%esp)
    1b51:	00 
    1b52:	c7 44 24 04 00 00 00 	movl   $0x0,0x4(%esp)
    1b59:	00 
    1b5a:	89 34 24             	mov    %esi,(%esp)
    1b5d:	e8 de 30 00 00       	call   4c40 <font_init>
    1b62:	8d 45 e4             	lea    -0x1c(%ebp),%eax
    1b65:	89 44 24 0c          	mov    %eax,0xc(%esp)
    1b69:	8d 45 e0             	lea    -0x20(%ebp),%eax
    1b6c:	89 44 24 08          	mov    %eax,0x8(%esp)
    1b70:	8b 83 20 01 00 00    	mov    0x120(%ebx),%eax
    1b76:	89 44 24 04          	mov    %eax,0x4(%esp)
    1b7a:	89 34 24             	mov    %esi,(%esp)
    1b7d:	e8 ee 31 00 00       	call   4d70 <font_get_box>
    1b82:	8b 55 e0             	mov    -0x20(%ebp),%edx
    1b85:	8d 42 08             	lea    0x8(%edx),%eax
    1b88:	83 c2 1c             	add    $0x1c,%edx
    1b8b:	89 43 28             	mov    %eax,0x28(%ebx)
    1b8e:	8b 45 e4             	mov    -0x1c(%ebp),%eax
    1b91:	83 c0 08             	add    $0x8,%eax
    1b94:	89 53 30             	mov    %edx,0x30(%ebx)
    1b97:	89 43 2c             	mov    %eax,0x2c(%ebx)
    1b9a:	89 43 34             	mov    %eax,0x34(%ebx)
    1b9d:	83 c4 2c             	add    $0x2c,%esp
    1ba0:	89 d8                	mov    %ebx,%eax
    1ba2:	5b                   	pop    %ebx
    1ba3:	5e                   	pop    %esi
    1ba4:	5f                   	pop    %edi
    1ba5:	5d                   	pop    %ebp
    1ba6:	c3                   	ret    
    1ba7:	90                   	nop
    1ba8:	c7 83 20 01 00 00 00 	movl   $0x0,0x120(%ebx)
    1baf:	00 00 00 
    1bb2:	eb 86                	jmp    1b3a <create_button+0xaa>
    1bb4:	66 90                	xchg   %ax,%ax
    1bb6:	66 90                	xchg   %ax,%ax
    1bb8:	66 90                	xchg   %ax,%ax
    1bba:	66 90                	xchg   %ax,%ax
    1bbc:	66 90                	xchg   %ax,%ax
    1bbe:	66 90                	xchg   %ax,%ax

00001bc0 <sig_connect>:
    1bc0:	55                   	push   %ebp
    1bc1:	89 e5                	mov    %esp,%ebp
    1bc3:	57                   	push   %edi
    1bc4:	56                   	push   %esi
    1bc5:	53                   	push   %ebx
    1bc6:	83 ec 2c             	sub    $0x2c,%esp
    1bc9:	8b 75 08             	mov    0x8(%ebp),%esi
    1bcc:	8b 7d 0c             	mov    0xc(%ebp),%edi
    1bcf:	c7 04 24 1c ae 20 00 	movl   $0x20ae1c,(%esp)
    1bd6:	8b 5d 10             	mov    0x10(%ebp),%ebx
    1bd9:	e8 c2 cd 00 00       	call   e9a0 <fibril_rwlock_write_lock>
    1bde:	a1 34 ae 20 00       	mov    0x20ae34,%eax
    1be3:	3d 30 ae 20 00       	cmp    $0x20ae30,%eax
    1be8:	75 10                	jne    1bfa <sig_connect+0x3a>
    1bea:	eb 54                	jmp    1c40 <sig_connect+0x80>
    1bec:	8d 74 26 00          	lea    0x0(%esi,%eiz,1),%esi
    1bf0:	8b 40 04             	mov    0x4(%eax),%eax
    1bf3:	3d 30 ae 20 00       	cmp    $0x20ae30,%eax
    1bf8:	74 46                	je     1c40 <sig_connect+0x80>
    1bfa:	39 70 08             	cmp    %esi,0x8(%eax)
    1bfd:	75 f1                	jne    1bf0 <sig_connect+0x30>
    1bff:	89 c1                	mov    %eax,%ecx
    1c01:	8d 70 0c             	lea    0xc(%eax),%esi
    1c04:	8b 51 10             	mov    0x10(%ecx),%edx
    1c07:	39 f2                	cmp    %esi,%edx
    1c09:	75 0c                	jne    1c17 <sig_connect+0x57>
    1c0b:	eb 6b                	jmp    1c78 <sig_connect+0xb8>
    1c0d:	8d 76 00             	lea    0x0(%esi),%esi
    1c10:	8b 52 04             	mov    0x4(%edx),%edx
    1c13:	39 f2                	cmp    %esi,%edx
    1c15:	74 61                	je     1c78 <sig_connect+0xb8>
    1c17:	39 7a 08             	cmp    %edi,0x8(%edx)
    1c1a:	75 f4                	jne    1c10 <sig_connect+0x50>
    1c1c:	39 5a 0c             	cmp    %ebx,0xc(%edx)
    1c1f:	75 ef                	jne    1c10 <sig_connect+0x50>
    1c21:	c7 04 24 1c ae 20 00 	movl   $0x20ae1c,(%esp)
    1c28:	e8 b3 ce 00 00       	call   eae0 <fibril_rwlock_write_unlock>
    1c2d:	c7 45 08 1c ae 20 00 	movl   $0x20ae1c,0x8(%ebp)
    1c34:	83 c4 2c             	add    $0x2c,%esp
    1c37:	5b                   	pop    %ebx
    1c38:	5e                   	pop    %esi
    1c39:	5f                   	pop    %edi
    1c3a:	5d                   	pop    %ebp
    1c3b:	e9 a0 ce 00 00       	jmp    eae0 <fibril_rwlock_write_unlock>
    1c40:	c7 04 24 14 00 00 00 	movl   $0x14,(%esp)
    1c47:	e8 a4 5b 01 00       	call   177f0 <malloc>
    1c4c:	89 c1                	mov    %eax,%ecx
    1c4e:	85 c0                	test   %eax,%eax
    1c50:	74 db                	je     1c2d <sig_connect+0x6d>
    1c52:	a1 30 ae 20 00       	mov    0x20ae30,%eax
    1c57:	89 71 08             	mov    %esi,0x8(%ecx)
    1c5a:	8d 71 0c             	lea    0xc(%ecx),%esi
    1c5d:	c7 41 04 30 ae 20 00 	movl   $0x20ae30,0x4(%ecx)
    1c64:	89 71 10             	mov    %esi,0x10(%ecx)
    1c67:	89 71 0c             	mov    %esi,0xc(%ecx)
    1c6a:	89 01                	mov    %eax,(%ecx)
    1c6c:	89 48 04             	mov    %ecx,0x4(%eax)
    1c6f:	89 0d 30 ae 20 00    	mov    %ecx,0x20ae30
    1c75:	eb 8d                	jmp    1c04 <sig_connect+0x44>
    1c77:	90                   	nop
    1c78:	c7 04 24 10 00 00 00 	movl   $0x10,(%esp)
    1c7f:	89 4d e4             	mov    %ecx,-0x1c(%ebp)
    1c82:	e8 69 5b 01 00       	call   177f0 <malloc>
    1c87:	8b 4d e4             	mov    -0x1c(%ebp),%ecx
    1c8a:	85 c0                	test   %eax,%eax
    1c8c:	74 9f                	je     1c2d <sig_connect+0x6d>
    1c8e:	c7 00 00 00 00 00    	movl   $0x0,(%eax)
    1c94:	89 78 08             	mov    %edi,0x8(%eax)
    1c97:	8b 51 0c             	mov    0xc(%ecx),%edx
    1c9a:	89 58 0c             	mov    %ebx,0xc(%eax)
    1c9d:	89 10                	mov    %edx,(%eax)
    1c9f:	89 70 04             	mov    %esi,0x4(%eax)
    1ca2:	8b 51 0c             	mov    0xc(%ecx),%edx
    1ca5:	89 41 0c             	mov    %eax,0xc(%ecx)
    1ca8:	89 42 04             	mov    %eax,0x4(%edx)
    1cab:	eb 80                	jmp    1c2d <sig_connect+0x6d>
    1cad:	8d 76 00             	lea    0x0(%esi),%esi

00001cb0 <sig_connectm>:
    1cb0:	55                   	push   %ebp
    1cb1:	89 e5                	mov    %esp,%ebp
    1cb3:	57                   	push   %edi
    1cb4:	56                   	push   %esi
    1cb5:	53                   	push   %ebx
    1cb6:	83 ec 2c             	sub    $0x2c,%esp
    1cb9:	8b 5d 08             	mov    0x8(%ebp),%ebx
    1cbc:	8b 75 0c             	mov    0xc(%ebp),%esi
    1cbf:	c7 04 24 1c ae 20 00 	movl   $0x20ae1c,(%esp)
    1cc6:	8b 7d 10             	mov    0x10(%ebp),%edi
    1cc9:	e8 d2 cc 00 00       	call   e9a0 <fibril_rwlock_write_lock>
    1cce:	a1 34 ae 20 00       	mov    0x20ae34,%eax
    1cd3:	3d 30 ae 20 00       	cmp    $0x20ae30,%eax
    1cd8:	75 14                	jne    1cee <sig_connectm+0x3e>
    1cda:	e9 a1 00 00 00       	jmp    1d80 <sig_connectm+0xd0>
    1cdf:	90                   	nop
    1ce0:	8b 40 04             	mov    0x4(%eax),%eax
    1ce3:	3d 30 ae 20 00       	cmp    $0x20ae30,%eax
    1ce8:	0f 84 92 00 00 00    	je     1d80 <sig_connectm+0xd0>
    1cee:	39 58 08             	cmp    %ebx,0x8(%eax)
    1cf1:	75 ed                	jne    1ce0 <sig_connectm+0x30>
    1cf3:	89 c1                	mov    %eax,%ecx
    1cf5:	8d 58 0c             	lea    0xc(%eax),%ebx
    1cf8:	8b 51 10             	mov    0x10(%ecx),%edx
    1cfb:	39 d3                	cmp    %edx,%ebx
    1cfd:	75 10                	jne    1d0f <sig_connectm+0x5f>
    1cff:	eb 2f                	jmp    1d30 <sig_connectm+0x80>
    1d01:	8d b4 26 00 00 00 00 	lea    0x0(%esi,%eiz,1),%esi
    1d08:	8b 52 04             	mov    0x4(%edx),%edx
    1d0b:	39 d3                	cmp    %edx,%ebx
    1d0d:	74 21                	je     1d30 <sig_connectm+0x80>
    1d0f:	39 72 08             	cmp    %esi,0x8(%edx)
    1d12:	75 f4                	jne    1d08 <sig_connectm+0x58>
    1d14:	39 7a 0c             	cmp    %edi,0xc(%edx)
    1d17:	75 ef                	jne    1d08 <sig_connectm+0x58>
    1d19:	c7 04 24 1c ae 20 00 	movl   $0x20ae1c,(%esp)
    1d20:	89 4d e4             	mov    %ecx,-0x1c(%ebp)
    1d23:	e8 b8 cd 00 00       	call   eae0 <fibril_rwlock_write_unlock>
    1d28:	8b 4d e4             	mov    -0x1c(%ebp),%ecx
    1d2b:	90                   	nop
    1d2c:	8d 74 26 00          	lea    0x0(%esi,%eiz,1),%esi
    1d30:	c7 04 24 10 00 00 00 	movl   $0x10,(%esp)
    1d37:	89 4d e4             	mov    %ecx,-0x1c(%ebp)
    1d3a:	e8 b1 5a 01 00       	call   177f0 <malloc>
    1d3f:	8b 4d e4             	mov    -0x1c(%ebp),%ecx
    1d42:	85 c0                	test   %eax,%eax
    1d44:	74 21                	je     1d67 <sig_connectm+0xb7>
    1d46:	c7 00 00 00 00 00    	movl   $0x0,(%eax)
    1d4c:	89 70 08             	mov    %esi,0x8(%eax)
    1d4f:	8b 51 0c             	mov    0xc(%ecx),%edx
    1d52:	c7 40 0c 00 00 00 00 	movl   $0x0,0xc(%eax)
    1d59:	89 10                	mov    %edx,(%eax)
    1d5b:	89 58 04             	mov    %ebx,0x4(%eax)
    1d5e:	8b 51 0c             	mov    0xc(%ecx),%edx
    1d61:	89 41 0c             	mov    %eax,0xc(%ecx)
    1d64:	89 42 04             	mov    %eax,0x4(%edx)
    1d67:	c7 45 08 1c ae 20 00 	movl   $0x20ae1c,0x8(%ebp)
    1d6e:	83 c4 2c             	add    $0x2c,%esp
    1d71:	5b                   	pop    %ebx
    1d72:	5e                   	pop    %esi
    1d73:	5f                   	pop    %edi
    1d74:	5d                   	pop    %ebp
    1d75:	e9 66 cd 00 00       	jmp    eae0 <fibril_rwlock_write_unlock>
    1d7a:	8d b6 00 00 00 00    	lea    0x0(%esi),%esi
    1d80:	c7 04 24 14 00 00 00 	movl   $0x14,(%esp)
    1d87:	e8 64 5a 01 00       	call   177f0 <malloc>
    1d8c:	89 c1                	mov    %eax,%ecx
    1d8e:	85 c0                	test   %eax,%eax
    1d90:	74 d5                	je     1d67 <sig_connectm+0xb7>
    1d92:	a1 30 ae 20 00       	mov    0x20ae30,%eax
    1d97:	89 59 08             	mov    %ebx,0x8(%ecx)
    1d9a:	8d 59 0c             	lea    0xc(%ecx),%ebx
    1d9d:	c7 41 04 30 ae 20 00 	movl   $0x20ae30,0x4(%ecx)
    1da4:	89 59 10             	mov    %ebx,0x10(%ecx)
    1da7:	89 59 0c             	mov    %ebx,0xc(%ecx)
    1daa:	89 01                	mov    %eax,(%ecx)
    1dac:	89 48 04             	mov    %ecx,0x4(%eax)
    1daf:	89 0d 30 ae 20 00    	mov    %ecx,0x20ae30
    1db5:	e9 3e ff ff ff       	jmp    1cf8 <sig_connectm+0x48>
    1dba:	8d b6 00 00 00 00    	lea    0x0(%esi),%esi

00001dc0 <sig_disconnect>:
    1dc0:	55                   	push   %ebp
    1dc1:	89 e5                	mov    %esp,%ebp
    1dc3:	57                   	push   %edi
    1dc4:	56                   	push   %esi
    1dc5:	53                   	push   %ebx
    1dc6:	83 ec 1c             	sub    $0x1c,%esp
    1dc9:	8b 75 08             	mov    0x8(%ebp),%esi
    1dcc:	8b 7d 0c             	mov    0xc(%ebp),%edi
    1dcf:	c7 04 24 1c ae 20 00 	movl   $0x20ae1c,(%esp)
    1dd6:	e8 c5 cb 00 00       	call   e9a0 <fibril_rwlock_write_lock>
    1ddb:	8b 1d 34 ae 20 00    	mov    0x20ae34,%ebx
    1de1:	81 fb 30 ae 20 00    	cmp    $0x20ae30,%ebx
    1de7:	75 12                	jne    1dfb <sig_disconnect+0x3b>
    1de9:	eb 5f                	jmp    1e4a <sig_disconnect+0x8a>
    1deb:	90                   	nop
    1dec:	8d 74 26 00          	lea    0x0(%esi,%eiz,1),%esi
    1df0:	8b 5b 04             	mov    0x4(%ebx),%ebx
    1df3:	81 fb 30 ae 20 00    	cmp    $0x20ae30,%ebx
    1df9:	74 4f                	je     1e4a <sig_disconnect+0x8a>
    1dfb:	39 73 08             	cmp    %esi,0x8(%ebx)
    1dfe:	75 f0                	jne    1df0 <sig_disconnect+0x30>
    1e00:	8b 43 10             	mov    0x10(%ebx),%eax
    1e03:	8d 73 0c             	lea    0xc(%ebx),%esi
    1e06:	39 f0                	cmp    %esi,%eax
    1e08:	75 0d                	jne    1e17 <sig_disconnect+0x57>
    1e0a:	eb 3e                	jmp    1e4a <sig_disconnect+0x8a>
    1e0c:	8d 74 26 00          	lea    0x0(%esi,%eiz,1),%esi
    1e10:	8b 40 04             	mov    0x4(%eax),%eax
    1e13:	39 f0                	cmp    %esi,%eax
    1e15:	74 33                	je     1e4a <sig_disconnect+0x8a>
    1e17:	39 78 08             	cmp    %edi,0x8(%eax)
    1e1a:	75 f4                	jne    1e10 <sig_disconnect+0x50>
    1e1c:	8b 08                	mov    (%eax),%ecx
    1e1e:	85 c9                	test   %ecx,%ecx
    1e20:	74 0e                	je     1e30 <sig_disconnect+0x70>
    1e22:	8b 50 04             	mov    0x4(%eax),%edx
    1e25:	85 d2                	test   %edx,%edx
    1e27:	74 07                	je     1e30 <sig_disconnect+0x70>
    1e29:	89 0a                	mov    %ecx,(%edx)
    1e2b:	8b 08                	mov    (%eax),%ecx
    1e2d:	89 51 04             	mov    %edx,0x4(%ecx)
    1e30:	c7 00 00 00 00 00    	movl   $0x0,(%eax)
    1e36:	c7 40 04 00 00 00 00 	movl   $0x0,0x4(%eax)
    1e3d:	89 04 24             	mov    %eax,(%esp)
    1e40:	e8 bb 5a 01 00       	call   17900 <free>
    1e45:	39 73 10             	cmp    %esi,0x10(%ebx)
    1e48:	74 16                	je     1e60 <sig_disconnect+0xa0>
    1e4a:	c7 45 08 1c ae 20 00 	movl   $0x20ae1c,0x8(%ebp)
    1e51:	83 c4 1c             	add    $0x1c,%esp
    1e54:	5b                   	pop    %ebx
    1e55:	5e                   	pop    %esi
    1e56:	5f                   	pop    %edi
    1e57:	5d                   	pop    %ebp
    1e58:	e9 83 cc 00 00       	jmp    eae0 <fibril_rwlock_write_unlock>
    1e5d:	8d 76 00             	lea    0x0(%esi),%esi
    1e60:	8b 13                	mov    (%ebx),%edx
    1e62:	85 d2                	test   %edx,%edx
    1e64:	74 0e                	je     1e74 <sig_disconnect+0xb4>
    1e66:	8b 43 04             	mov    0x4(%ebx),%eax
    1e69:	85 c0                	test   %eax,%eax
    1e6b:	74 07                	je     1e74 <sig_disconnect+0xb4>
    1e6d:	89 10                	mov    %edx,(%eax)
    1e6f:	8b 13                	mov    (%ebx),%edx
    1e71:	89 42 04             	mov    %eax,0x4(%edx)
    1e74:	c7 03 00 00 00 00    	movl   $0x0,(%ebx)
    1e7a:	c7 43 04 00 00 00 00 	movl   $0x0,0x4(%ebx)
    1e81:	89 1c 24             	mov    %ebx,(%esp)
    1e84:	e8 77 5a 01 00       	call   17900 <free>
    1e89:	eb bf                	jmp    1e4a <sig_disconnect+0x8a>
    1e8b:	90                   	nop
    1e8c:	8d 74 26 00          	lea    0x0(%esi,%eiz,1),%esi

00001e90 <sig_send>:
    1e90:	55                   	push   %ebp
    1e91:	89 e5                	mov    %esp,%ebp
    1e93:	57                   	push   %edi
    1e94:	56                   	push   %esi
    1e95:	53                   	push   %ebx
    1e96:	83 ec 1c             	sub    $0x1c,%esp
    1e99:	8b 5d 08             	mov    0x8(%ebp),%ebx
    1e9c:	8b 75 0c             	mov    0xc(%ebp),%esi
    1e9f:	c7 04 24 1c ae 20 00 	movl   $0x20ae1c,(%esp)
    1ea6:	e8 15 ca 00 00       	call   e8c0 <fibril_rwlock_read_lock>
    1eab:	a1 34 ae 20 00       	mov    0x20ae34,%eax
    1eb0:	3d 30 ae 20 00       	cmp    $0x20ae30,%eax
    1eb5:	75 13                	jne    1eca <sig_send+0x3a>
    1eb7:	eb 3b                	jmp    1ef4 <sig_send+0x64>
    1eb9:	8d b4 26 00 00 00 00 	lea    0x0(%esi,%eiz,1),%esi
    1ec0:	8b 40 04             	mov    0x4(%eax),%eax
    1ec3:	3d 30 ae 20 00       	cmp    $0x20ae30,%eax
    1ec8:	74 2a                	je     1ef4 <sig_send+0x64>
    1eca:	39 58 08             	cmp    %ebx,0x8(%eax)
    1ecd:	75 f1                	jne    1ec0 <sig_send+0x30>
    1ecf:	8b 58 10             	mov    0x10(%eax),%ebx
    1ed2:	8d 78 0c             	lea    0xc(%eax),%edi
    1ed5:	39 fb                	cmp    %edi,%ebx
    1ed7:	74 1b                	je     1ef4 <sig_send+0x64>
    1ed9:	8d b4 26 00 00 00 00 	lea    0x0(%esi,%eiz,1),%esi
    1ee0:	89 74 24 04          	mov    %esi,0x4(%esp)
    1ee4:	8b 43 08             	mov    0x8(%ebx),%eax
    1ee7:	89 04 24             	mov    %eax,(%esp)
    1eea:	ff 53 0c             	call   *0xc(%ebx)
    1eed:	8b 5b 04             	mov    0x4(%ebx),%ebx
    1ef0:	39 fb                	cmp    %edi,%ebx
    1ef2:	75 ec                	jne    1ee0 <sig_send+0x50>
    1ef4:	c7 45 08 1c ae 20 00 	movl   $0x20ae1c,0x8(%ebp)
    1efb:	83 c4 1c             	add    $0x1c,%esp
    1efe:	5b                   	pop    %ebx
    1eff:	5e                   	pop    %esi
    1f00:	5f                   	pop    %edi
    1f01:	5d                   	pop    %ebp
    1f02:	e9 79 cb 00 00       	jmp    ea80 <fibril_rwlock_read_unlock>
    1f07:	89 f6                	mov    %esi,%esi
    1f09:	8d bc 27 00 00 00 00 	lea    0x0(%edi,%eiz,1),%edi

00001f10 <sig_post>:
    1f10:	55                   	push   %ebp
    1f11:	89 e5                	mov    %esp,%ebp
    1f13:	57                   	push   %edi
    1f14:	56                   	push   %esi
    1f15:	53                   	push   %ebx
    1f16:	83 ec 2c             	sub    $0x2c,%esp
    1f19:	8b 45 0c             	mov    0xc(%ebp),%eax
    1f1c:	8b 5d 08             	mov    0x8(%ebp),%ebx
    1f1f:	c7 04 24 1c ae 20 00 	movl   $0x20ae1c,(%esp)
    1f26:	89 45 e0             	mov    %eax,-0x20(%ebp)
    1f29:	8b 75 10             	mov    0x10(%ebp),%esi
    1f2c:	e8 8f c9 00 00       	call   e8c0 <fibril_rwlock_read_lock>
    1f31:	a1 34 ae 20 00       	mov    0x20ae34,%eax
    1f36:	3d 30 ae 20 00       	cmp    $0x20ae30,%eax
    1f3b:	75 19                	jne    1f56 <sig_post+0x46>
    1f3d:	e9 be 00 00 00       	jmp    2000 <sig_post+0xf0>
    1f42:	8d b6 00 00 00 00    	lea    0x0(%esi),%esi
    1f48:	8b 40 04             	mov    0x4(%eax),%eax
    1f4b:	3d 30 ae 20 00       	cmp    $0x20ae30,%eax
    1f50:	0f 84 aa 00 00 00    	je     2000 <sig_post+0xf0>
    1f56:	39 58 08             	cmp    %ebx,0x8(%eax)
    1f59:	75 ed                	jne    1f48 <sig_post+0x38>
    1f5b:	8b 58 10             	mov    0x10(%eax),%ebx
    1f5e:	83 c0 0c             	add    $0xc,%eax
    1f61:	89 45 e4             	mov    %eax,-0x1c(%ebp)
    1f64:	39 c3                	cmp    %eax,%ebx
    1f66:	0f 84 94 00 00 00    	je     2000 <sig_post+0xf0>
    1f6c:	8b 55 e0             	mov    -0x20(%ebp),%edx
    1f6f:	85 d2                	test   %edx,%edx
    1f71:	75 42                	jne    1fb5 <sig_post+0xa5>
    1f73:	e9 9b 00 00 00       	jmp    2013 <sig_post+0x103>
    1f78:	8b 43 08             	mov    0x8(%ebx),%eax
    1f7b:	c7 02 00 00 00 00    	movl   $0x0,(%edx)
    1f81:	89 42 0c             	mov    %eax,0xc(%edx)
    1f84:	c7 42 04 00 00 00 00 	movl   $0x0,0x4(%edx)
    1f8b:	8b 4b 0c             	mov    0xc(%ebx),%ecx
    1f8e:	c7 42 08 02 00 00 00 	movl   $0x2,0x8(%edx)
    1f95:	89 4a 10             	mov    %ecx,0x10(%edx)
    1f98:	89 7a 14             	mov    %edi,0x14(%edx)
    1f9b:	89 54 24 04          	mov    %edx,0x4(%esp)
    1f9f:	8b 40 14             	mov    0x14(%eax),%eax
    1fa2:	83 c0 10             	add    $0x10,%eax
    1fa5:	89 04 24             	mov    %eax,(%esp)
    1fa8:	e8 d3 bf 01 00       	call   1df80 <prodcons_produce>
    1fad:	8b 5b 04             	mov    0x4(%ebx),%ebx
    1fb0:	3b 5d e4             	cmp    -0x1c(%ebp),%ebx
    1fb3:	74 4b                	je     2000 <sig_post+0xf0>
    1fb5:	89 34 24             	mov    %esi,(%esp)
    1fb8:	e8 33 58 01 00       	call   177f0 <malloc>
    1fbd:	89 c7                	mov    %eax,%edi
    1fbf:	85 c0                	test   %eax,%eax
    1fc1:	0f 84 a3 00 00 00    	je     206a <sig_post+0x15a>
    1fc7:	8b 45 e0             	mov    -0x20(%ebp),%eax
    1fca:	89 74 24 08          	mov    %esi,0x8(%esp)
    1fce:	89 44 24 04          	mov    %eax,0x4(%esp)
    1fd2:	89 3c 24             	mov    %edi,(%esp)
    1fd5:	e8 66 85 00 00       	call   a540 <memcpy>
    1fda:	c7 04 24 24 00 00 00 	movl   $0x24,(%esp)
    1fe1:	e8 0a 58 01 00       	call   177f0 <malloc>
    1fe6:	89 c2                	mov    %eax,%edx
    1fe8:	85 c0                	test   %eax,%eax
    1fea:	75 8c                	jne    1f78 <sig_post+0x68>
    1fec:	89 3c 24             	mov    %edi,(%esp)
    1fef:	e8 0c 59 01 00       	call   17900 <free>
    1ff4:	8b 5b 04             	mov    0x4(%ebx),%ebx
    1ff7:	3b 5d e4             	cmp    -0x1c(%ebp),%ebx
    1ffa:	75 b9                	jne    1fb5 <sig_post+0xa5>
    1ffc:	8d 74 26 00          	lea    0x0(%esi,%eiz,1),%esi
    2000:	c7 45 08 1c ae 20 00 	movl   $0x20ae1c,0x8(%ebp)
    2007:	83 c4 2c             	add    $0x2c,%esp
    200a:	5b                   	pop    %ebx
    200b:	5e                   	pop    %esi
    200c:	5f                   	pop    %edi
    200d:	5d                   	pop    %ebp
    200e:	e9 6d ca 00 00       	jmp    ea80 <fibril_rwlock_read_unlock>
    2013:	89 c6                	mov    %eax,%esi
    2015:	8d 76 00             	lea    0x0(%esi),%esi
    2018:	c7 04 24 24 00 00 00 	movl   $0x24,(%esp)
    201f:	e8 cc 57 01 00       	call   177f0 <malloc>
    2024:	85 c0                	test   %eax,%eax
    2026:	74 39                	je     2061 <sig_post+0x151>
    2028:	8b 53 08             	mov    0x8(%ebx),%edx
    202b:	c7 00 00 00 00 00    	movl   $0x0,(%eax)
    2031:	89 50 0c             	mov    %edx,0xc(%eax)
    2034:	c7 40 04 00 00 00 00 	movl   $0x0,0x4(%eax)
    203b:	8b 4b 0c             	mov    0xc(%ebx),%ecx
    203e:	c7 40 08 02 00 00 00 	movl   $0x2,0x8(%eax)
    2045:	89 48 10             	mov    %ecx,0x10(%eax)
    2048:	c7 40 14 00 00 00 00 	movl   $0x0,0x14(%eax)
    204f:	89 44 24 04          	mov    %eax,0x4(%esp)
    2053:	8b 42 14             	mov    0x14(%edx),%eax
    2056:	83 c0 10             	add    $0x10,%eax
    2059:	89 04 24             	mov    %eax,(%esp)
    205c:	e8 1f bf 01 00       	call   1df80 <prodcons_produce>
    2061:	8b 5b 04             	mov    0x4(%ebx),%ebx
    2064:	39 f3                	cmp    %esi,%ebx
    2066:	75 b0                	jne    2018 <sig_post+0x108>
    2068:	eb 96                	jmp    2000 <sig_post+0xf0>
    206a:	c7 04 24 24 00 00 00 	movl   $0x24,(%esp)
    2071:	e8 7a 57 01 00       	call   177f0 <malloc>
    2076:	89 c2                	mov    %eax,%edx
    2078:	85 c0                	test   %eax,%eax
    207a:	0f 85 f8 fe ff ff    	jne    1f78 <sig_post+0x68>
    2080:	e9 28 ff ff ff       	jmp    1fad <sig_post+0x9d>
    2085:	66 90                	xchg   %ax,%ax
    2087:	66 90                	xchg   %ax,%ax
    2089:	66 90                	xchg   %ax,%ax
    208b:	66 90                	xchg   %ax,%ax
    208d:	66 90                	xchg   %ax,%ax
    208f:	90                   	nop

00002090 <grid_reconfigure>:
    2090:	55                   	push   %ebp
    2091:	89 e5                	mov    %esp,%ebp
    2093:	5d                   	pop    %ebp
    2094:	c3                   	ret    
    2095:	8d 74 26 00          	lea    0x0(%esi,%eiz,1),%esi
    2099:	8d bc 27 00 00 00 00 	lea    0x0(%edi,%eiz,1),%edi

000020a0 <grid_handle_keyboard_event>:
    20a0:	55                   	push   %ebp
    20a1:	89 e5                	mov    %esp,%ebp
    20a3:	5d                   	pop    %ebp
    20a4:	c3                   	ret    
    20a5:	8d 74 26 00          	lea    0x0(%esi,%eiz,1),%esi
    20a9:	8d bc 27 00 00 00 00 	lea    0x0(%edi,%eiz,1),%edi

000020b0 <grid_handle_position_event>:
    20b0:	55                   	push   %ebp
    20b1:	89 e5                	mov    %esp,%ebp
    20b3:	57                   	push   %edi
    20b4:	56                   	push   %esi
    20b5:	53                   	push   %ebx
    20b6:	83 ec 2c             	sub    $0x2c,%esp
    20b9:	8b 45 08             	mov    0x8(%ebp),%eax
    20bc:	8b 55 1c             	mov    0x1c(%ebp),%edx
    20bf:	89 45 dc             	mov    %eax,-0x24(%ebp)
    20c2:	8b 75 18             	mov    0x18(%ebp),%esi
    20c5:	8b 40 5c             	mov    0x5c(%eax),%eax
    20c8:	89 55 d8             	mov    %edx,-0x28(%ebp)
    20cb:	89 75 e0             	mov    %esi,-0x20(%ebp)
    20ce:	89 45 cc             	mov    %eax,-0x34(%ebp)
    20d1:	85 c0                	test   %eax,%eax
    20d3:	0f 84 91 00 00 00    	je     216a <grid_handle_position_event+0xba>
    20d9:	8b 55 dc             	mov    -0x24(%ebp),%edx
    20dc:	8d 04 40             	lea    (%eax,%eax,2),%eax
    20df:	c1 e0 02             	shl    $0x2,%eax
    20e2:	c7 45 d0 00 00 00 00 	movl   $0x0,-0x30(%ebp)
    20e9:	8b 5a 60             	mov    0x60(%edx),%ebx
    20ec:	89 45 e4             	mov    %eax,-0x1c(%ebp)
    20ef:	c7 45 d4 00 00 00 00 	movl   $0x0,-0x2c(%ebp)
    20f6:	66 90                	xchg   %ax,%ax
    20f8:	85 db                	test   %ebx,%ebx
    20fa:	74 56                	je     2152 <grid_handle_position_event+0xa2>
    20fc:	8b 55 cc             	mov    -0x34(%ebp),%edx
    20ff:	39 55 d4             	cmp    %edx,-0x2c(%ebp)
    2102:	73 4e                	jae    2152 <grid_handle_position_event+0xa2>
    2104:	8b 4d d0             	mov    -0x30(%ebp),%ecx
    2107:	31 c0                	xor    %eax,%eax
    2109:	8d b4 26 00 00 00 00 	lea    0x0(%esi,%eiz,1),%esi
    2110:	39 d8                	cmp    %ebx,%eax
    2112:	73 34                	jae    2148 <grid_handle_position_event+0x98>
    2114:	8b 75 dc             	mov    -0x24(%ebp),%esi
    2117:	8b 56 64             	mov    0x64(%esi),%edx
    211a:	01 ca                	add    %ecx,%edx
    211c:	74 2a                	je     2148 <grid_handle_position_event+0x98>
    211e:	8b 12                	mov    (%edx),%edx
    2120:	85 d2                	test   %edx,%edx
    2122:	74 24                	je     2148 <grid_handle_position_event+0x98>
    2124:	8b 72 18             	mov    0x18(%edx),%esi
    2127:	39 75 e0             	cmp    %esi,-0x20(%ebp)
    212a:	72 1c                	jb     2148 <grid_handle_position_event+0x98>
    212c:	8b 7a 1c             	mov    0x1c(%edx),%edi
    212f:	39 7d d8             	cmp    %edi,-0x28(%ebp)
    2132:	72 14                	jb     2148 <grid_handle_position_event+0x98>
    2134:	03 72 20             	add    0x20(%edx),%esi
    2137:	39 75 e0             	cmp    %esi,-0x20(%ebp)
    213a:	73 0c                	jae    2148 <grid_handle_position_event+0x98>
    213c:	8b 72 24             	mov    0x24(%edx),%esi
    213f:	01 f7                	add    %esi,%edi
    2141:	39 7d d8             	cmp    %edi,-0x28(%ebp)
    2144:	72 2c                	jb     2172 <grid_handle_position_event+0xc2>
    2146:	66 90                	xchg   %ax,%ax
    2148:	40                   	inc    %eax
    2149:	8b 75 e4             	mov    -0x1c(%ebp),%esi
    214c:	01 f1                	add    %esi,%ecx
    214e:	39 d8                	cmp    %ebx,%eax
    2150:	75 be                	jne    2110 <grid_handle_position_event+0x60>
    2152:	8b 45 d4             	mov    -0x2c(%ebp),%eax
    2155:	8b 55 d0             	mov    -0x30(%ebp),%edx
    2158:	40                   	inc    %eax
    2159:	83 c2 0c             	add    $0xc,%edx
    215c:	89 45 d4             	mov    %eax,-0x2c(%ebp)
    215f:	8b 45 cc             	mov    -0x34(%ebp),%eax
    2162:	89 55 d0             	mov    %edx,-0x30(%ebp)
    2165:	39 45 d4             	cmp    %eax,-0x2c(%ebp)
    2168:	75 8e                	jne    20f8 <grid_handle_position_event+0x48>
    216a:	83 c4 2c             	add    $0x2c,%esp
    216d:	5b                   	pop    %ebx
    216e:	5e                   	pop    %esi
    216f:	5f                   	pop    %edi
    2170:	5d                   	pop    %ebp
    2171:	c3                   	ret    
    2172:	89 55 08             	mov    %edx,0x8(%ebp)
    2175:	8b 42 54             	mov    0x54(%edx),%eax
    2178:	83 c4 2c             	add    $0x2c,%esp
    217b:	5b                   	pop    %ebx
    217c:	5e                   	pop    %esi
    217d:	5f                   	pop    %edi
    217e:	5d                   	pop    %ebp
    217f:	ff e0                	jmp    *%eax
    2181:	eb 0d                	jmp    2190 <grid_repaint>
    2183:	90                   	nop
    2184:	90                   	nop
    2185:	90                   	nop
    2186:	90                   	nop
    2187:	90                   	nop
    2188:	90                   	nop
    2189:	90                   	nop
    218a:	90                   	nop
    218b:	90                   	nop
    218c:	90                   	nop
    218d:	90                   	nop
    218e:	90                   	nop
    218f:	90                   	nop

00002190 <grid_repaint>:
    2190:	55                   	push   %ebp
    2191:	89 e5                	mov    %esp,%ebp
    2193:	57                   	push   %edi
    2194:	56                   	push   %esi
    2195:	53                   	push   %ebx
    2196:	83 ec 2c             	sub    $0x2c,%esp
    2199:	8b 7d 08             	mov    0x8(%ebp),%edi
    219c:	8b 47 14             	mov    0x14(%edi),%eax
    219f:	89 04 24             	mov    %eax,(%esp)
    21a2:	e8 a9 1f 00 00       	call   4150 <window_claim>
    21a7:	89 45 e4             	mov    %eax,-0x1c(%ebp)
    21aa:	85 c0                	test   %eax,%eax
    21ac:	74 56                	je     2204 <grid_repaint+0x74>
    21ae:	8b 77 1c             	mov    0x1c(%edi),%esi
    21b1:	8b 5f 24             	mov    0x24(%edi),%ebx
    21b4:	01 f3                	add    %esi,%ebx
    21b6:	39 de                	cmp    %ebx,%esi
    21b8:	73 4a                	jae    2204 <grid_repaint+0x74>
    21ba:	8b 47 18             	mov    0x18(%edi),%eax
    21bd:	8b 4f 20             	mov    0x20(%edi),%ecx
    21c0:	01 c1                	add    %eax,%ecx
    21c2:	8d b6 00 00 00 00    	lea    0x0(%esi),%esi
    21c8:	39 c1                	cmp    %eax,%ecx
    21ca:	76 33                	jbe    21ff <grid_repaint+0x6f>
    21cc:	89 c3                	mov    %eax,%ebx
    21ce:	66 90                	xchg   %ax,%ax
    21d0:	8b 47 58             	mov    0x58(%edi),%eax
    21d3:	89 5c 24 04          	mov    %ebx,0x4(%esp)
    21d7:	89 44 24 0c          	mov    %eax,0xc(%esp)
    21db:	8b 45 e4             	mov    -0x1c(%ebp),%eax
    21de:	89 04 24             	mov    %eax,(%esp)
    21e1:	89 74 24 08          	mov    %esi,0x8(%esp)
    21e5:	e8 36 35 00 00       	call   5720 <surface_put_pixel>
    21ea:	8b 47 18             	mov    0x18(%edi),%eax
    21ed:	8b 4f 20             	mov    0x20(%edi),%ecx
    21f0:	43                   	inc    %ebx
    21f1:	01 c1                	add    %eax,%ecx
    21f3:	39 cb                	cmp    %ecx,%ebx
    21f5:	72 d9                	jb     21d0 <grid_repaint+0x40>
    21f7:	8b 5f 24             	mov    0x24(%edi),%ebx
    21fa:	8b 57 1c             	mov    0x1c(%edi),%edx
    21fd:	01 d3                	add    %edx,%ebx
    21ff:	46                   	inc    %esi
    2200:	39 de                	cmp    %ebx,%esi
    2202:	72 c4                	jb     21c8 <grid_repaint+0x38>
    2204:	8b 47 14             	mov    0x14(%edi),%eax
    2207:	8d 77 0c             	lea    0xc(%edi),%esi
    220a:	89 04 24             	mov    %eax,(%esp)
    220d:	e8 6e 1f 00 00       	call   4180 <window_yield>
    2212:	8b 5f 10             	mov    0x10(%edi),%ebx
    2215:	39 f3                	cmp    %esi,%ebx
    2217:	74 14                	je     222d <grid_repaint+0x9d>
    2219:	8d b4 26 00 00 00 00 	lea    0x0(%esi,%eiz,1),%esi
    2220:	89 1c 24             	mov    %ebx,(%esp)
    2223:	ff 53 4c             	call   *0x4c(%ebx)
    2226:	8b 5b 04             	mov    0x4(%ebx),%ebx
    2229:	39 f3                	cmp    %esi,%ebx
    222b:	75 f3                	jne    2220 <grid_repaint+0x90>
    222d:	8b 47 14             	mov    0x14(%edi),%eax
    2230:	89 45 08             	mov    %eax,0x8(%ebp)
    2233:	83 c4 2c             	add    $0x2c,%esp
    2236:	5b                   	pop    %ebx
    2237:	5e                   	pop    %esi
    2238:	5f                   	pop    %edi
    2239:	5d                   	pop    %ebp
    223a:	e9 61 1e 00 00       	jmp    40a0 <window_damage>
    223f:	90                   	nop

00002240 <grid_add>:
    2240:	55                   	push   %ebp
    2241:	89 e5                	mov    %esp,%ebp
    2243:	57                   	push   %edi
    2244:	56                   	push   %esi
    2245:	53                   	push   %ebx
    2246:	83 ec 1c             	sub    $0x1c,%esp
    2249:	8b 45 1c             	mov    0x1c(%ebp),%eax
    224c:	8b 5d 08             	mov    0x8(%ebp),%ebx
    224f:	8b 75 10             	mov    0x10(%ebp),%esi
    2252:	85 c0                	test   %eax,%eax
    2254:	0f 84 1e 01 00 00    	je     2378 <grid_add+0x138>
    225a:	8b 7d 18             	mov    0x18(%ebp),%edi
    225d:	85 ff                	test   %edi,%edi
    225f:	0f 84 13 01 00 00    	je     2378 <grid_add+0x138>
    2265:	8b 43 5c             	mov    0x5c(%ebx),%eax
    2268:	8b 7d 18             	mov    0x18(%ebp),%edi
    226b:	89 45 ec             	mov    %eax,-0x14(%ebp)
    226e:	01 f7                	add    %esi,%edi
    2270:	31 c0                	xor    %eax,%eax
    2272:	3b 7d ec             	cmp    -0x14(%ebp),%edi
    2275:	0f 87 ef 00 00 00    	ja     236a <grid_add+0x12a>
    227b:	8b 55 1c             	mov    0x1c(%ebp),%edx
    227e:	8b 4d 14             	mov    0x14(%ebp),%ecx
    2281:	01 ca                	add    %ecx,%edx
    2283:	89 55 e4             	mov    %edx,-0x1c(%ebp)
    2286:	8b 53 60             	mov    0x60(%ebx),%edx
    2289:	89 55 e0             	mov    %edx,-0x20(%ebp)
    228c:	39 55 e4             	cmp    %edx,-0x1c(%ebp)
    228f:	0f 87 d5 00 00 00    	ja     236a <grid_add+0x12a>
    2295:	3b 75 ec             	cmp    -0x14(%ebp),%esi
    2298:	0f 83 cc 00 00 00    	jae    236a <grid_add+0x12a>
    229e:	39 55 14             	cmp    %edx,0x14(%ebp)
    22a1:	0f 83 c3 00 00 00    	jae    236a <grid_add+0x12a>
    22a7:	8b 4d ec             	mov    -0x14(%ebp),%ecx
    22aa:	8b 55 14             	mov    0x14(%ebp),%edx
    22ad:	0f af d1             	imul   %ecx,%edx
    22b0:	01 f2                	add    %esi,%edx
    22b2:	8d 0c 52             	lea    (%edx,%edx,2),%ecx
    22b5:	8b 53 64             	mov    0x64(%ebx),%edx
    22b8:	8d 0c 8a             	lea    (%edx,%ecx,4),%ecx
    22bb:	85 c9                	test   %ecx,%ecx
    22bd:	0f 84 a7 00 00 00    	je     236a <grid_add+0x12a>
    22c3:	8b 11                	mov    (%ecx),%edx
    22c5:	85 d2                	test   %edx,%edx
    22c7:	0f 84 0d 01 00 00    	je     23da <grid_add+0x19a>
    22cd:	8b 45 0c             	mov    0xc(%ebp),%eax
    22d0:	8b 55 0c             	mov    0xc(%ebp),%edx
    22d3:	89 58 08             	mov    %ebx,0x8(%eax)
    22d6:	8d 43 0c             	lea    0xc(%ebx),%eax
    22d9:	89 42 04             	mov    %eax,0x4(%edx)
    22dc:	8b 43 0c             	mov    0xc(%ebx),%eax
    22df:	89 02                	mov    %eax,(%edx)
    22e1:	8b 43 0c             	mov    0xc(%ebx),%eax
    22e4:	89 53 0c             	mov    %edx,0xc(%ebx)
    22e7:	89 50 04             	mov    %edx,0x4(%eax)
    22ea:	8b 43 14             	mov    0x14(%ebx),%eax
    22ed:	8b 5d e4             	mov    -0x1c(%ebp),%ebx
    22f0:	89 42 14             	mov    %eax,0x14(%edx)
    22f3:	39 5d 14             	cmp    %ebx,0x14(%ebp)
    22f6:	73 70                	jae    2368 <grid_add+0x128>
    22f8:	8b 55 ec             	mov    -0x14(%ebp),%edx
    22fb:	8b 5d 14             	mov    0x14(%ebp),%ebx
    22fe:	89 4d e8             	mov    %ecx,-0x18(%ebp)
    2301:	89 5d f0             	mov    %ebx,-0x10(%ebp)
    2304:	8d 04 52             	lea    (%edx,%edx,2),%eax
    2307:	c1 e0 02             	shl    $0x2,%eax
    230a:	89 45 dc             	mov    %eax,-0x24(%ebp)
    230d:	8d 76 00             	lea    0x0(%esi),%esi
    2310:	39 fe                	cmp    %edi,%esi
    2312:	73 3a                	jae    234e <grid_add+0x10e>
    2314:	8b 5d f0             	mov    -0x10(%ebp),%ebx
    2317:	8b 45 f0             	mov    -0x10(%ebp),%eax
    231a:	39 5d 14             	cmp    %ebx,0x14(%ebp)
    231d:	0f 94 c3             	sete   %bl
    2320:	39 45 e0             	cmp    %eax,-0x20(%ebp)
    2323:	77 63                	ja     2388 <grid_add+0x148>
    2325:	8b 55 1c             	mov    0x1c(%ebp),%edx
    2328:	89 f0                	mov    %esi,%eax
    232a:	89 55 d8             	mov    %edx,-0x28(%ebp)
    232d:	8d 76 00             	lea    0x0(%esi),%esi
    2330:	39 c6                	cmp    %eax,%esi
    2332:	75 15                	jne    2349 <grid_add+0x109>
    2334:	84 db                	test   %bl,%bl
    2336:	74 11                	je     2349 <grid_add+0x109>
    2338:	8b 55 0c             	mov    0xc(%ebp),%edx
    233b:	89 11                	mov    %edx,(%ecx)
    233d:	8b 55 18             	mov    0x18(%ebp),%edx
    2340:	89 51 04             	mov    %edx,0x4(%ecx)
    2343:	8b 55 d8             	mov    -0x28(%ebp),%edx
    2346:	89 51 08             	mov    %edx,0x8(%ecx)
    2349:	40                   	inc    %eax
    234a:	39 f8                	cmp    %edi,%eax
    234c:	75 e2                	jne    2330 <grid_add+0xf0>
    234e:	8b 5d f0             	mov    -0x10(%ebp),%ebx
    2351:	8b 55 e8             	mov    -0x18(%ebp),%edx
    2354:	8b 45 dc             	mov    -0x24(%ebp),%eax
    2357:	43                   	inc    %ebx
    2358:	01 c2                	add    %eax,%edx
    235a:	89 5d f0             	mov    %ebx,-0x10(%ebp)
    235d:	89 55 e8             	mov    %edx,-0x18(%ebp)
    2360:	8b 55 e4             	mov    -0x1c(%ebp),%edx
    2363:	39 55 f0             	cmp    %edx,-0x10(%ebp)
    2366:	75 a8                	jne    2310 <grid_add+0xd0>
    2368:	b0 01                	mov    $0x1,%al
    236a:	83 c4 1c             	add    $0x1c,%esp
    236d:	5b                   	pop    %ebx
    236e:	5e                   	pop    %esi
    236f:	5f                   	pop    %edi
    2370:	5d                   	pop    %ebp
    2371:	c3                   	ret    
    2372:	8d b6 00 00 00 00    	lea    0x0(%esi),%esi
    2378:	83 c4 1c             	add    $0x1c,%esp
    237b:	31 c0                	xor    %eax,%eax
    237d:	5b                   	pop    %ebx
    237e:	5e                   	pop    %esi
    237f:	5f                   	pop    %edi
    2380:	5d                   	pop    %ebp
    2381:	c3                   	ret    
    2382:	8d b6 00 00 00 00    	lea    0x0(%esi),%esi
    2388:	8b 55 e8             	mov    -0x18(%ebp),%edx
    238b:	89 f0                	mov    %esi,%eax
    238d:	88 5d d8             	mov    %bl,-0x28(%ebp)
    2390:	eb 25                	jmp    23b7 <grid_add+0x177>
    2392:	8d b6 00 00 00 00    	lea    0x0(%esi),%esi
    2398:	80 7d d8 00          	cmpb   $0x0,-0x28(%ebp)
    239c:	74 1d                	je     23bb <grid_add+0x17b>
    239e:	8b 5d 0c             	mov    0xc(%ebp),%ebx
    23a1:	89 19                	mov    %ebx,(%ecx)
    23a3:	8b 5d 18             	mov    0x18(%ebp),%ebx
    23a6:	89 59 04             	mov    %ebx,0x4(%ecx)
    23a9:	8b 5d 1c             	mov    0x1c(%ebp),%ebx
    23ac:	89 59 08             	mov    %ebx,0x8(%ecx)
    23af:	40                   	inc    %eax
    23b0:	83 c2 0c             	add    $0xc,%edx
    23b3:	39 f8                	cmp    %edi,%eax
    23b5:	74 97                	je     234e <grid_add+0x10e>
    23b7:	39 c6                	cmp    %eax,%esi
    23b9:	74 dd                	je     2398 <grid_add+0x158>
    23bb:	39 45 ec             	cmp    %eax,-0x14(%ebp)
    23be:	76 ef                	jbe    23af <grid_add+0x16f>
    23c0:	85 d2                	test   %edx,%edx
    23c2:	74 eb                	je     23af <grid_add+0x16f>
    23c4:	c7 02 00 00 00 00    	movl   $0x0,(%edx)
    23ca:	c7 42 04 01 00 00 00 	movl   $0x1,0x4(%edx)
    23d1:	c7 42 08 01 00 00 00 	movl   $0x1,0x8(%edx)
    23d8:	eb d5                	jmp    23af <grid_add+0x16f>
    23da:	8b 51 04             	mov    0x4(%ecx),%edx
    23dd:	85 d2                	test   %edx,%edx
    23df:	0f 84 e8 fe ff ff    	je     22cd <grid_add+0x8d>
    23e5:	8b 51 08             	mov    0x8(%ecx),%edx
    23e8:	85 d2                	test   %edx,%edx
    23ea:	0f 84 dd fe ff ff    	je     22cd <grid_add+0x8d>
    23f0:	e9 75 ff ff ff       	jmp    236a <grid_add+0x12a>
    23f5:	8d 74 26 00          	lea    0x0(%esi,%eiz,1),%esi
    23f9:	8d bc 27 00 00 00 00 	lea    0x0(%edi,%eiz,1),%edi

00002400 <grid_destroy>:
    2400:	55                   	push   %ebp
    2401:	89 e5                	mov    %esp,%ebp
    2403:	53                   	push   %ebx
    2404:	83 ec 14             	sub    $0x14,%esp
    2407:	8b 5d 08             	mov    0x8(%ebp),%ebx
    240a:	89 1c 24             	mov    %ebx,(%esp)
    240d:	e8 5e 09 00 00       	call   2d70 <widget_deinit>
    2412:	8b 43 64             	mov    0x64(%ebx),%eax
    2415:	89 04 24             	mov    %eax,(%esp)
    2418:	e8 e3 54 01 00       	call   17900 <free>
    241d:	89 5d 08             	mov    %ebx,0x8(%ebp)
    2420:	83 c4 14             	add    $0x14,%esp
    2423:	5b                   	pop    %ebx
    2424:	5d                   	pop    %ebp
    2425:	e9 d6 54 01 00       	jmp    17900 <free>
    242a:	8d b6 00 00 00 00    	lea    0x0(%esi),%esi

00002430 <grid_rearrange>:
    2430:	55                   	push   %ebp
    2431:	89 e5                	mov    %esp,%ebp
    2433:	57                   	push   %edi
    2434:	56                   	push   %esi
    2435:	53                   	push   %ebx
    2436:	83 ec 7c             	sub    $0x7c,%esp
    2439:	8b 4d 08             	mov    0x8(%ebp),%ecx
    243c:	8b 75 0c             	mov    0xc(%ebp),%esi
    243f:	8b 7d 10             	mov    0x10(%ebp),%edi
    2442:	89 4d bc             	mov    %ecx,-0x44(%ebp)
    2445:	89 75 a4             	mov    %esi,-0x5c(%ebp)
    2448:	8b 4d 14             	mov    0x14(%ebp),%ecx
    244b:	8b 75 18             	mov    0x18(%ebp),%esi
    244e:	89 7d b4             	mov    %edi,-0x4c(%ebp)
    2451:	89 4d ac             	mov    %ecx,-0x54(%ebp)
    2454:	89 4c 24 0c          	mov    %ecx,0xc(%esp)
    2458:	89 7c 24 08          	mov    %edi,0x8(%esp)
    245c:	8b 4d bc             	mov    -0x44(%ebp),%ecx
    245f:	8b 7d a4             	mov    -0x5c(%ebp),%edi
    2462:	89 74 24 10          	mov    %esi,0x10(%esp)
    2466:	89 0c 24             	mov    %ecx,(%esp)
    2469:	89 7c 24 04          	mov    %edi,0x4(%esp)
    246d:	89 75 a0             	mov    %esi,-0x60(%ebp)
    2470:	e8 db 08 00 00       	call   2d50 <widget_modify>
    2475:	8b 75 bc             	mov    -0x44(%ebp),%esi
    2478:	8b 46 14             	mov    0x14(%esi),%eax
    247b:	89 04 24             	mov    %eax,(%esp)
    247e:	e8 cd 1c 00 00       	call   4150 <window_claim>
    2483:	89 c6                	mov    %eax,%esi
    2485:	85 c0                	test   %eax,%eax
    2487:	74 7f                	je     2508 <grid_rearrange+0xd8>
    2489:	8b 4d bc             	mov    -0x44(%ebp),%ecx
    248c:	89 cf                	mov    %ecx,%edi
    248e:	8b 59 1c             	mov    0x1c(%ecx),%ebx
    2491:	8b 49 24             	mov    0x24(%ecx),%ecx
    2494:	8d 04 19             	lea    (%ecx,%ebx,1),%eax
    2497:	39 c3                	cmp    %eax,%ebx
    2499:	73 6d                	jae    2508 <grid_rearrange+0xd8>
    249b:	8b 57 18             	mov    0x18(%edi),%edx
    249e:	8b 47 20             	mov    0x20(%edi),%eax
    24a1:	01 d0                	add    %edx,%eax
    24a3:	89 4d e0             	mov    %ecx,-0x20(%ebp)
    24a6:	89 5d d8             	mov    %ebx,-0x28(%ebp)
    24a9:	89 45 dc             	mov    %eax,-0x24(%ebp)
    24ac:	89 75 e4             	mov    %esi,-0x1c(%ebp)
    24af:	89 d9                	mov    %ebx,%ecx
    24b1:	8d b4 26 00 00 00 00 	lea    0x0(%esi,%eiz,1),%esi
    24b8:	39 d0                	cmp    %edx,%eax
    24ba:	76 42                	jbe    24fe <grid_rearrange+0xce>
    24bc:	89 f8                	mov    %edi,%eax
    24be:	89 d6                	mov    %edx,%esi
    24c0:	89 df                	mov    %ebx,%edi
    24c2:	89 c3                	mov    %eax,%ebx
    24c4:	8d 74 26 00          	lea    0x0(%esi,%eiz,1),%esi
    24c8:	8b 43 58             	mov    0x58(%ebx),%eax
    24cb:	89 74 24 04          	mov    %esi,0x4(%esp)
    24cf:	89 44 24 0c          	mov    %eax,0xc(%esp)
    24d3:	8b 45 e4             	mov    -0x1c(%ebp),%eax
    24d6:	89 04 24             	mov    %eax,(%esp)
    24d9:	89 7c 24 08          	mov    %edi,0x8(%esp)
    24dd:	e8 3e 32 00 00       	call   5720 <surface_put_pixel>
    24e2:	8b 53 18             	mov    0x18(%ebx),%edx
    24e5:	8b 43 20             	mov    0x20(%ebx),%eax
    24e8:	46                   	inc    %esi
    24e9:	01 d0                	add    %edx,%eax
    24eb:	39 c6                	cmp    %eax,%esi
    24ed:	72 d9                	jb     24c8 <grid_rearrange+0x98>
    24ef:	89 d9                	mov    %ebx,%ecx
    24f1:	89 fb                	mov    %edi,%ebx
    24f3:	89 cf                	mov    %ecx,%edi
    24f5:	8b 49 1c             	mov    0x1c(%ecx),%ecx
    24f8:	8b 77 24             	mov    0x24(%edi),%esi
    24fb:	89 75 e0             	mov    %esi,-0x20(%ebp)
    24fe:	8b 75 e0             	mov    -0x20(%ebp),%esi
    2501:	43                   	inc    %ebx
    2502:	01 ce                	add    %ecx,%esi
    2504:	39 f3                	cmp    %esi,%ebx
    2506:	72 b0                	jb     24b8 <grid_rearrange+0x88>
    2508:	8b 7d bc             	mov    -0x44(%ebp),%edi
    250b:	8b 47 14             	mov    0x14(%edi),%eax
    250e:	89 04 24             	mov    %eax,(%esp)
    2511:	e8 6a 1c 00 00       	call   4180 <window_yield>
    2516:	8b 4d bc             	mov    -0x44(%ebp),%ecx
    2519:	c7 44 24 04 0c 00 00 	movl   $0xc,0x4(%esp)
    2520:	00 
    2521:	8b 41 5c             	mov    0x5c(%ecx),%eax
    2524:	89 04 24             	mov    %eax,(%esp)
    2527:	e8 64 52 01 00       	call   17790 <calloc>
    252c:	89 45 b0             	mov    %eax,-0x50(%ebp)
    252f:	85 c0                	test   %eax,%eax
    2531:	0f 84 68 05 00 00    	je     2a9f <grid_rearrange+0x66f>
    2537:	8b 7d bc             	mov    -0x44(%ebp),%edi
    253a:	8b 7f 5c             	mov    0x5c(%edi),%edi
    253d:	89 7d c4             	mov    %edi,-0x3c(%ebp)
    2540:	85 ff                	test   %edi,%edi
    2542:	0f 84 77 05 00 00    	je     2abf <grid_rearrange+0x68f>
    2548:	8b 45 b0             	mov    -0x50(%ebp),%eax
    254b:	8b 4d bc             	mov    -0x44(%ebp),%ecx
    254e:	89 45 a8             	mov    %eax,-0x58(%ebp)
    2551:	8d 04 7f             	lea    (%edi,%edi,2),%eax
    2554:	c1 e0 02             	shl    $0x2,%eax
    2557:	8b 49 60             	mov    0x60(%ecx),%ecx
    255a:	89 45 c0             	mov    %eax,-0x40(%ebp)
    255d:	8b 45 b0             	mov    -0x50(%ebp),%eax
    2560:	89 4d cc             	mov    %ecx,-0x34(%ebp)
    2563:	89 45 b8             	mov    %eax,-0x48(%ebp)
    2566:	c7 45 c8 00 00 00 00 	movl   $0x0,-0x38(%ebp)
    256d:	8d 76 00             	lea    0x0(%esi),%esi
    2570:	8b 4d b8             	mov    -0x48(%ebp),%ecx
    2573:	8b 45 cc             	mov    -0x34(%ebp),%eax
    2576:	85 c0                	test   %eax,%eax
    2578:	c7 01 00 00 00 00    	movl   $0x0,(%ecx)
    257e:	0f 84 c2 00 00 00    	je     2646 <grid_rearrange+0x216>
    2584:	8b 7d b0             	mov    -0x50(%ebp),%edi
    2587:	c7 45 dc 00 00 00 00 	movl   $0x0,-0x24(%ebp)
    258e:	29 f9                	sub    %edi,%ecx
    2590:	89 4d d8             	mov    %ecx,-0x28(%ebp)
    2593:	90                   	nop
    2594:	8d 74 26 00          	lea    0x0(%esi,%eiz,1),%esi
    2598:	8b 75 c4             	mov    -0x3c(%ebp),%esi
    259b:	39 75 c8             	cmp    %esi,-0x38(%ebp)
    259e:	0f 83 84 00 00 00    	jae    2628 <grid_rearrange+0x1f8>
    25a4:	8b 7d cc             	mov    -0x34(%ebp),%edi
    25a7:	39 7d dc             	cmp    %edi,-0x24(%ebp)
    25aa:	73 7c                	jae    2628 <grid_rearrange+0x1f8>
    25ac:	8b 4d bc             	mov    -0x44(%ebp),%ecx
    25af:	8b 55 d8             	mov    -0x28(%ebp),%edx
    25b2:	03 51 64             	add    0x64(%ecx),%edx
    25b5:	74 71                	je     2628 <grid_rearrange+0x1f8>
    25b7:	8b 02                	mov    (%edx),%eax
    25b9:	85 c0                	test   %eax,%eax
    25bb:	74 6b                	je     2628 <grid_rearrange+0x1f8>
    25bd:	8b 5a 04             	mov    0x4(%edx),%ebx
    25c0:	8b 48 38             	mov    0x38(%eax),%ecx
    25c3:	85 db                	test   %ebx,%ebx
    25c5:	8b 40 28             	mov    0x28(%eax),%eax
    25c8:	0f 84 01 05 00 00    	je     2acf <grid_rearrange+0x69f>
    25ce:	31 d2                	xor    %edx,%edx
    25d0:	8d 7b ff             	lea    -0x1(%ebx),%edi
    25d3:	f7 f3                	div    %ebx
    25d5:	89 d6                	mov    %edx,%esi
    25d7:	89 45 e4             	mov    %eax,-0x1c(%ebp)
    25da:	31 d2                	xor    %edx,%edx
    25dc:	89 c8                	mov    %ecx,%eax
    25de:	f7 f3                	div    %ebx
    25e0:	03 75 e4             	add    -0x1c(%ebp),%esi
    25e3:	89 45 e0             	mov    %eax,-0x20(%ebp)
    25e6:	89 d1                	mov    %edx,%ecx
    25e8:	89 75 d4             	mov    %esi,-0x2c(%ebp)
    25eb:	8b 75 e0             	mov    -0x20(%ebp),%esi
    25ee:	8b 45 b8             	mov    -0x48(%ebp),%eax
    25f1:	01 f1                	add    %esi,%ecx
    25f3:	31 d2                	xor    %edx,%edx
    25f5:	89 4d d0             	mov    %ecx,-0x30(%ebp)
    25f8:	eb 22                	jmp    261c <grid_rearrange+0x1ec>
    25fa:	8d b6 00 00 00 00    	lea    0x0(%esi),%esi
    2600:	8b 4d e0             	mov    -0x20(%ebp),%ecx
    2603:	8b 75 e4             	mov    -0x1c(%ebp),%esi
    2606:	39 30                	cmp    %esi,(%eax)
    2608:	73 02                	jae    260c <grid_rearrange+0x1dc>
    260a:	89 30                	mov    %esi,(%eax)
    260c:	39 48 04             	cmp    %ecx,0x4(%eax)
    260f:	73 03                	jae    2614 <grid_rearrange+0x1e4>
    2611:	89 48 04             	mov    %ecx,0x4(%eax)
    2614:	42                   	inc    %edx
    2615:	83 c0 0c             	add    $0xc,%eax
    2618:	39 da                	cmp    %ebx,%edx
    261a:	74 0c                	je     2628 <grid_rearrange+0x1f8>
    261c:	39 fa                	cmp    %edi,%edx
    261e:	75 e0                	jne    2600 <grid_rearrange+0x1d0>
    2620:	8b 75 d4             	mov    -0x2c(%ebp),%esi
    2623:	8b 4d d0             	mov    -0x30(%ebp),%ecx
    2626:	eb de                	jmp    2606 <grid_rearrange+0x1d6>
    2628:	8b 45 dc             	mov    -0x24(%ebp),%eax
    262b:	8b 4d c0             	mov    -0x40(%ebp),%ecx
    262e:	40                   	inc    %eax
    262f:	8b 75 cc             	mov    -0x34(%ebp),%esi
    2632:	89 45 dc             	mov    %eax,-0x24(%ebp)
    2635:	8b 45 d8             	mov    -0x28(%ebp),%eax
    2638:	01 c8                	add    %ecx,%eax
    263a:	39 75 dc             	cmp    %esi,-0x24(%ebp)
    263d:	89 45 d8             	mov    %eax,-0x28(%ebp)
    2640:	0f 85 52 ff ff ff    	jne    2598 <grid_rearrange+0x168>
    2646:	8b 45 c8             	mov    -0x38(%ebp),%eax
    2649:	8b 7d c4             	mov    -0x3c(%ebp),%edi
    264c:	40                   	inc    %eax
    264d:	89 45 c8             	mov    %eax,-0x38(%ebp)
    2650:	8b 45 b8             	mov    -0x48(%ebp),%eax
    2653:	83 c0 0c             	add    $0xc,%eax
    2656:	39 7d c8             	cmp    %edi,-0x38(%ebp)
    2659:	89 45 b8             	mov    %eax,-0x48(%ebp)
    265c:	0f 85 0e ff ff ff    	jne    2570 <grid_rearrange+0x140>
    2662:	8b 45 c0             	mov    -0x40(%ebp),%eax
    2665:	8b 4d b0             	mov    -0x50(%ebp),%ecx
    2668:	01 c1                	add    %eax,%ecx
    266a:	31 d2                	xor    %edx,%edx
    266c:	8b 45 a8             	mov    -0x58(%ebp),%eax
    266f:	90                   	nop
    2670:	8b 18                	mov    (%eax),%ebx
    2672:	89 58 08             	mov    %ebx,0x8(%eax)
    2675:	83 c0 0c             	add    $0xc,%eax
    2678:	01 da                	add    %ebx,%edx
    267a:	39 c8                	cmp    %ecx,%eax
    267c:	75 f2                	jne    2670 <grid_rearrange+0x240>
    267e:	39 55 ac             	cmp    %edx,-0x54(%ebp)
    2681:	76 6f                	jbe    26f2 <grid_rearrange+0x2c2>
    2683:	8b 45 ac             	mov    -0x54(%ebp),%eax
    2686:	29 d0                	sub    %edx,%eax
    2688:	31 d2                	xor    %edx,%edx
    268a:	f7 75 c4             	divl   -0x3c(%ebp)
    268d:	89 c6                	mov    %eax,%esi
    268f:	85 c0                	test   %eax,%eax
    2691:	74 5f                	je     26f2 <grid_rearrange+0x2c2>
    2693:	8b 7d c4             	mov    -0x3c(%ebp),%edi
    2696:	8b 55 b0             	mov    -0x50(%ebp),%edx
    2699:	8b 4d c4             	mov    -0x3c(%ebp),%ecx
    269c:	8b 5d ac             	mov    -0x54(%ebp),%ebx
    269f:	8d 04 7f             	lea    (%edi,%edi,2),%eax
    26a2:	8d 3c 82             	lea    (%edx,%eax,4),%edi
    26a5:	89 f0                	mov    %esi,%eax
    26a7:	89 7d e0             	mov    %edi,-0x20(%ebp)
    26aa:	eb 14                	jmp    26c0 <grid_rearrange+0x290>
    26ac:	8d 74 26 00          	lea    0x0(%esi,%eiz,1),%esi
    26b0:	39 d3                	cmp    %edx,%ebx
    26b2:	76 3e                	jbe    26f2 <grid_rearrange+0x2c2>
    26b4:	89 d8                	mov    %ebx,%eax
    26b6:	29 d0                	sub    %edx,%eax
    26b8:	31 d2                	xor    %edx,%edx
    26ba:	f7 f1                	div    %ecx
    26bc:	85 c0                	test   %eax,%eax
    26be:	74 32                	je     26f2 <grid_rearrange+0x2c2>
    26c0:	31 d2                	xor    %edx,%edx
    26c2:	85 c9                	test   %ecx,%ecx
    26c4:	74 ea                	je     26b0 <grid_rearrange+0x280>
    26c6:	8b 7d b0             	mov    -0x50(%ebp),%edi
    26c9:	89 c6                	mov    %eax,%esi
    26cb:	89 4d dc             	mov    %ecx,-0x24(%ebp)
    26ce:	8b 47 08             	mov    0x8(%edi),%eax
    26d1:	8d 0c 30             	lea    (%eax,%esi,1),%ecx
    26d4:	89 4d e4             	mov    %ecx,-0x1c(%ebp)
    26d7:	3b 4f 04             	cmp    0x4(%edi),%ecx
    26da:	73 05                	jae    26e1 <grid_rearrange+0x2b1>
    26dc:	89 4f 08             	mov    %ecx,0x8(%edi)
    26df:	89 c8                	mov    %ecx,%eax
    26e1:	83 c7 0c             	add    $0xc,%edi
    26e4:	01 c2                	add    %eax,%edx
    26e6:	3b 7d e0             	cmp    -0x20(%ebp),%edi
    26e9:	75 e3                	jne    26ce <grid_rearrange+0x29e>
    26eb:	8b 4d dc             	mov    -0x24(%ebp),%ecx
    26ee:	39 d3                	cmp    %edx,%ebx
    26f0:	77 c2                	ja     26b4 <grid_rearrange+0x284>
    26f2:	8b 4d cc             	mov    -0x34(%ebp),%ecx
    26f5:	c7 44 24 04 0c 00 00 	movl   $0xc,0x4(%esp)
    26fc:	00 
    26fd:	89 0c 24             	mov    %ecx,(%esp)
    2700:	e8 8b 50 01 00       	call   17790 <calloc>
    2705:	89 45 a8             	mov    %eax,-0x58(%ebp)
    2708:	85 c0                	test   %eax,%eax
    270a:	0f 84 9d 03 00 00    	je     2aad <grid_rearrange+0x67d>
    2710:	8b 75 bc             	mov    -0x44(%ebp),%esi
    2713:	8b 76 60             	mov    0x60(%esi),%esi
    2716:	89 75 c8             	mov    %esi,-0x38(%ebp)
    2719:	85 f6                	test   %esi,%esi
    271b:	0f 84 97 03 00 00    	je     2ab8 <grid_rearrange+0x688>
    2721:	8b 7d bc             	mov    -0x44(%ebp),%edi
    2724:	89 45 9c             	mov    %eax,-0x64(%ebp)
    2727:	c7 45 b8 00 00 00 00 	movl   $0x0,-0x48(%ebp)
    272e:	c7 45 c0 00 00 00 00 	movl   $0x0,-0x40(%ebp)
    2735:	8b 7f 5c             	mov    0x5c(%edi),%edi
    2738:	89 7d cc             	mov    %edi,-0x34(%ebp)
    273b:	8d 04 7f             	lea    (%edi,%edi,2),%eax
    273e:	c1 e0 02             	shl    $0x2,%eax
    2741:	89 45 ac             	mov    %eax,-0x54(%ebp)
    2744:	8b 45 a8             	mov    -0x58(%ebp),%eax
    2747:	89 45 c4             	mov    %eax,-0x3c(%ebp)
    274a:	8d b6 00 00 00 00    	lea    0x0(%esi),%esi
    2750:	8b 4d c4             	mov    -0x3c(%ebp),%ecx
    2753:	8b 7d cc             	mov    -0x34(%ebp),%edi
    2756:	85 ff                	test   %edi,%edi
    2758:	c7 01 00 00 00 00    	movl   $0x0,(%ecx)
    275e:	0f 84 c0 00 00 00    	je     2824 <grid_rearrange+0x3f4>
    2764:	8b 75 b8             	mov    -0x48(%ebp),%esi
    2767:	c7 45 dc 00 00 00 00 	movl   $0x0,-0x24(%ebp)
    276e:	89 75 d8             	mov    %esi,-0x28(%ebp)
    2771:	8d b4 26 00 00 00 00 	lea    0x0(%esi,%eiz,1),%esi
    2778:	8b 7d cc             	mov    -0x34(%ebp),%edi
    277b:	39 7d dc             	cmp    %edi,-0x24(%ebp)
    277e:	0f 83 84 00 00 00    	jae    2808 <grid_rearrange+0x3d8>
    2784:	8b 4d c8             	mov    -0x38(%ebp),%ecx
    2787:	39 4d c0             	cmp    %ecx,-0x40(%ebp)
    278a:	73 7c                	jae    2808 <grid_rearrange+0x3d8>
    278c:	8b 75 bc             	mov    -0x44(%ebp),%esi
    278f:	8b 55 d8             	mov    -0x28(%ebp),%edx
    2792:	03 56 64             	add    0x64(%esi),%edx
    2795:	74 71                	je     2808 <grid_rearrange+0x3d8>
    2797:	8b 02                	mov    (%edx),%eax
    2799:	85 c0                	test   %eax,%eax
    279b:	74 6b                	je     2808 <grid_rearrange+0x3d8>
    279d:	8b 5a 08             	mov    0x8(%edx),%ebx
    27a0:	8b 48 3c             	mov    0x3c(%eax),%ecx
    27a3:	85 db                	test   %ebx,%ebx
    27a5:	8b 40 2c             	mov    0x2c(%eax),%eax
    27a8:	0f 84 21 03 00 00    	je     2acf <grid_rearrange+0x69f>
    27ae:	31 d2                	xor    %edx,%edx
    27b0:	8d 7b ff             	lea    -0x1(%ebx),%edi
    27b3:	f7 f3                	div    %ebx
    27b5:	89 d6                	mov    %edx,%esi
    27b7:	89 45 e4             	mov    %eax,-0x1c(%ebp)
    27ba:	31 d2                	xor    %edx,%edx
    27bc:	89 c8                	mov    %ecx,%eax
    27be:	f7 f3                	div    %ebx
    27c0:	03 75 e4             	add    -0x1c(%ebp),%esi
    27c3:	89 45 e0             	mov    %eax,-0x20(%ebp)
    27c6:	89 d1                	mov    %edx,%ecx
    27c8:	89 75 d4             	mov    %esi,-0x2c(%ebp)
    27cb:	8b 75 e0             	mov    -0x20(%ebp),%esi
    27ce:	8b 45 c4             	mov    -0x3c(%ebp),%eax
    27d1:	01 f1                	add    %esi,%ecx
    27d3:	31 d2                	xor    %edx,%edx
    27d5:	89 4d d0             	mov    %ecx,-0x30(%ebp)
    27d8:	eb 22                	jmp    27fc <grid_rearrange+0x3cc>
    27da:	8d b6 00 00 00 00    	lea    0x0(%esi),%esi
    27e0:	8b 4d e0             	mov    -0x20(%ebp),%ecx
    27e3:	8b 75 e4             	mov    -0x1c(%ebp),%esi
    27e6:	39 30                	cmp    %esi,(%eax)
    27e8:	73 02                	jae    27ec <grid_rearrange+0x3bc>
    27ea:	89 30                	mov    %esi,(%eax)
    27ec:	39 48 04             	cmp    %ecx,0x4(%eax)
    27ef:	73 03                	jae    27f4 <grid_rearrange+0x3c4>
    27f1:	89 48 04             	mov    %ecx,0x4(%eax)
    27f4:	42                   	inc    %edx
    27f5:	83 c0 0c             	add    $0xc,%eax
    27f8:	39 da                	cmp    %ebx,%edx
    27fa:	74 0c                	je     2808 <grid_rearrange+0x3d8>
    27fc:	39 fa                	cmp    %edi,%edx
    27fe:	75 e0                	jne    27e0 <grid_rearrange+0x3b0>
    2800:	8b 75 d4             	mov    -0x2c(%ebp),%esi
    2803:	8b 4d d0             	mov    -0x30(%ebp),%ecx
    2806:	eb de                	jmp    27e6 <grid_rearrange+0x3b6>
    2808:	8b 45 dc             	mov    -0x24(%ebp),%eax
    280b:	8b 4d cc             	mov    -0x34(%ebp),%ecx
    280e:	40                   	inc    %eax
    280f:	89 45 dc             	mov    %eax,-0x24(%ebp)
    2812:	8b 45 d8             	mov    -0x28(%ebp),%eax
    2815:	83 c0 0c             	add    $0xc,%eax
    2818:	39 4d dc             	cmp    %ecx,-0x24(%ebp)
    281b:	89 45 d8             	mov    %eax,-0x28(%ebp)
    281e:	0f 85 54 ff ff ff    	jne    2778 <grid_rearrange+0x348>
    2824:	8b 45 c4             	mov    -0x3c(%ebp),%eax
    2827:	8b 7d c0             	mov    -0x40(%ebp),%edi
    282a:	83 c0 0c             	add    $0xc,%eax
    282d:	47                   	inc    %edi
    282e:	89 45 c4             	mov    %eax,-0x3c(%ebp)
    2831:	8b 75 ac             	mov    -0x54(%ebp),%esi
    2834:	8b 45 b8             	mov    -0x48(%ebp),%eax
    2837:	89 7d c0             	mov    %edi,-0x40(%ebp)
    283a:	01 f0                	add    %esi,%eax
    283c:	8b 7d c8             	mov    -0x38(%ebp),%edi
    283f:	89 45 b8             	mov    %eax,-0x48(%ebp)
    2842:	39 7d c0             	cmp    %edi,-0x40(%ebp)
    2845:	0f 85 05 ff ff ff    	jne    2750 <grid_rearrange+0x320>
    284b:	8d 04 7f             	lea    (%edi,%edi,2),%eax
    284e:	8b 55 a8             	mov    -0x58(%ebp),%edx
    2851:	8d 0c 82             	lea    (%edx,%eax,4),%ecx
    2854:	31 d2                	xor    %edx,%edx
    2856:	8b 45 9c             	mov    -0x64(%ebp),%eax
    2859:	8d b4 26 00 00 00 00 	lea    0x0(%esi,%eiz,1),%esi
    2860:	8b 18                	mov    (%eax),%ebx
    2862:	89 58 08             	mov    %ebx,0x8(%eax)
    2865:	83 c0 0c             	add    $0xc,%eax
    2868:	01 da                	add    %ebx,%edx
    286a:	39 c8                	cmp    %ecx,%eax
    286c:	75 f2                	jne    2860 <grid_rearrange+0x430>
    286e:	39 55 a0             	cmp    %edx,-0x60(%ebp)
    2871:	76 68                	jbe    28db <grid_rearrange+0x4ab>
    2873:	8b 45 a0             	mov    -0x60(%ebp),%eax
    2876:	29 d0                	sub    %edx,%eax
    2878:	31 d2                	xor    %edx,%edx
    287a:	f7 75 c8             	divl   -0x38(%ebp)
    287d:	85 c0                	test   %eax,%eax
    287f:	74 5a                	je     28db <grid_rearrange+0x4ab>
    2881:	8b 4d c8             	mov    -0x38(%ebp),%ecx
    2884:	8b 75 a8             	mov    -0x58(%ebp),%esi
    2887:	8b 5d a0             	mov    -0x60(%ebp),%ebx
    288a:	8d 14 49             	lea    (%ecx,%ecx,2),%edx
    288d:	8d 3c 96             	lea    (%esi,%edx,4),%edi
    2890:	89 7d e0             	mov    %edi,-0x20(%ebp)
    2893:	eb 13                	jmp    28a8 <grid_rearrange+0x478>
    2895:	8d 76 00             	lea    0x0(%esi),%esi
    2898:	39 d3                	cmp    %edx,%ebx
    289a:	76 3f                	jbe    28db <grid_rearrange+0x4ab>
    289c:	89 d8                	mov    %ebx,%eax
    289e:	29 d0                	sub    %edx,%eax
    28a0:	31 d2                	xor    %edx,%edx
    28a2:	f7 f1                	div    %ecx
    28a4:	85 c0                	test   %eax,%eax
    28a6:	74 33                	je     28db <grid_rearrange+0x4ab>
    28a8:	31 d2                	xor    %edx,%edx
    28aa:	85 c9                	test   %ecx,%ecx
    28ac:	74 ea                	je     2898 <grid_rearrange+0x468>
    28ae:	8b 7d a8             	mov    -0x58(%ebp),%edi
    28b1:	89 ce                	mov    %ecx,%esi
    28b3:	89 45 dc             	mov    %eax,-0x24(%ebp)
    28b6:	8b 4f 08             	mov    0x8(%edi),%ecx
    28b9:	8b 45 dc             	mov    -0x24(%ebp),%eax
    28bc:	01 c8                	add    %ecx,%eax
    28be:	89 45 e4             	mov    %eax,-0x1c(%ebp)
    28c1:	3b 47 04             	cmp    0x4(%edi),%eax
    28c4:	73 05                	jae    28cb <grid_rearrange+0x49b>
    28c6:	89 47 08             	mov    %eax,0x8(%edi)
    28c9:	89 c1                	mov    %eax,%ecx
    28cb:	83 c7 0c             	add    $0xc,%edi
    28ce:	01 ca                	add    %ecx,%edx
    28d0:	3b 7d e0             	cmp    -0x20(%ebp),%edi
    28d3:	75 e1                	jne    28b6 <grid_rearrange+0x486>
    28d5:	89 f1                	mov    %esi,%ecx
    28d7:	39 d3                	cmp    %edx,%ebx
    28d9:	77 c1                	ja     289c <grid_rearrange+0x46c>
    28db:	8b 75 b0             	mov    -0x50(%ebp),%esi
    28de:	85 f6                	test   %esi,%esi
    28e0:	0f 84 97 01 00 00    	je     2a7d <grid_rearrange+0x64d>
    28e6:	8b 5d c8             	mov    -0x38(%ebp),%ebx
    28e9:	85 db                	test   %ebx,%ebx
    28eb:	0f 84 7b 01 00 00    	je     2a6c <grid_rearrange+0x63c>
    28f1:	8b 45 a8             	mov    -0x58(%ebp),%eax
    28f4:	8b 7d bc             	mov    -0x44(%ebp),%edi
    28f7:	89 45 d4             	mov    %eax,-0x2c(%ebp)
    28fa:	83 c0 08             	add    $0x8,%eax
    28fd:	89 45 d0             	mov    %eax,-0x30(%ebp)
    2900:	8b 45 b0             	mov    -0x50(%ebp),%eax
    2903:	8b 7f 5c             	mov    0x5c(%edi),%edi
    2906:	83 c0 08             	add    $0x8,%eax
    2909:	89 7d e0             	mov    %edi,-0x20(%ebp)
    290c:	c7 45 d8 00 00 00 00 	movl   $0x0,-0x28(%ebp)
    2913:	89 45 cc             	mov    %eax,-0x34(%ebp)
    2916:	8b 45 e0             	mov    -0x20(%ebp),%eax
    2919:	85 c0                	test   %eax,%eax
    291b:	0f 84 21 01 00 00    	je     2a42 <grid_rearrange+0x612>
    2921:	8b 7d a4             	mov    -0x5c(%ebp),%edi
    2924:	8b 5d b0             	mov    -0x50(%ebp),%ebx
    2927:	89 7d dc             	mov    %edi,-0x24(%ebp)
    292a:	c7 45 e4 00 00 00 00 	movl   $0x0,-0x1c(%ebp)
    2931:	8d b4 26 00 00 00 00 	lea    0x0(%esi,%eiz,1),%esi
    2938:	8b 55 e4             	mov    -0x1c(%ebp),%edx
    293b:	39 55 e0             	cmp    %edx,-0x20(%ebp)
    293e:	0f 86 e8 00 00 00    	jbe    2a2c <grid_rearrange+0x5fc>
    2944:	8b 4d d8             	mov    -0x28(%ebp),%ecx
    2947:	39 4d c8             	cmp    %ecx,-0x38(%ebp)
    294a:	0f 86 dc 00 00 00    	jbe    2a2c <grid_rearrange+0x5fc>
    2950:	8b 45 e0             	mov    -0x20(%ebp),%eax
    2953:	8b 75 bc             	mov    -0x44(%ebp),%esi
    2956:	0f af c1             	imul   %ecx,%eax
    2959:	01 d0                	add    %edx,%eax
    295b:	8d 14 40             	lea    (%eax,%eax,2),%edx
    295e:	8b 46 64             	mov    0x64(%esi),%eax
    2961:	8d 3c 90             	lea    (%eax,%edx,4),%edi
    2964:	85 ff                	test   %edi,%edi
    2966:	0f 84 c0 00 00 00    	je     2a2c <grid_rearrange+0x5fc>
    296c:	8b 37                	mov    (%edi),%esi
    296e:	85 f6                	test   %esi,%esi
    2970:	0f 84 ab 00 00 00    	je     2a21 <grid_rearrange+0x5f1>
    2976:	8b 57 04             	mov    0x4(%edi),%edx
    2979:	85 d2                	test   %edx,%edx
    297b:	0f 84 17 01 00 00    	je     2a98 <grid_rearrange+0x668>
    2981:	8b 4d e4             	mov    -0x1c(%ebp),%ecx
    2984:	8d 43 08             	lea    0x8(%ebx),%eax
    2987:	01 ca                	add    %ecx,%edx
    2989:	8b 4d cc             	mov    -0x34(%ebp),%ecx
    298c:	8d 14 52             	lea    (%edx,%edx,2),%edx
    298f:	8d 14 91             	lea    (%ecx,%edx,4),%edx
    2992:	31 c9                	xor    %ecx,%ecx
    2994:	8d 74 26 00          	lea    0x0(%esi,%eiz,1),%esi
    2998:	03 08                	add    (%eax),%ecx
    299a:	83 c0 0c             	add    $0xc,%eax
    299d:	39 d0                	cmp    %edx,%eax
    299f:	75 f7                	jne    2998 <grid_rearrange+0x568>
    29a1:	8b 57 08             	mov    0x8(%edi),%edx
    29a4:	85 d2                	test   %edx,%edx
    29a6:	74 79                	je     2a21 <grid_rearrange+0x5f1>
    29a8:	8b 45 d8             	mov    -0x28(%ebp),%eax
    29ab:	8b 7d d4             	mov    -0x2c(%ebp),%edi
    29ae:	01 c2                	add    %eax,%edx
    29b0:	83 c7 08             	add    $0x8,%edi
    29b3:	8b 45 d0             	mov    -0x30(%ebp),%eax
    29b6:	89 7d c4             	mov    %edi,-0x3c(%ebp)
    29b9:	8d 14 52             	lea    (%edx,%edx,2),%edx
    29bc:	8d 3c 90             	lea    (%eax,%edx,4),%edi
    29bf:	31 d2                	xor    %edx,%edx
    29c1:	8b 45 c4             	mov    -0x3c(%ebp),%eax
    29c4:	8d 74 26 00          	lea    0x0(%esi,%eiz,1),%esi
    29c8:	03 10                	add    (%eax),%edx
    29ca:	83 c0 0c             	add    $0xc,%eax
    29cd:	39 f8                	cmp    %edi,%eax
    29cf:	75 f7                	jne    29c8 <grid_rearrange+0x598>
    29d1:	85 d2                	test   %edx,%edx
    29d3:	74 4c                	je     2a21 <grid_rearrange+0x5f1>
    29d5:	85 c9                	test   %ecx,%ecx
    29d7:	74 48                	je     2a21 <grid_rearrange+0x5f1>
    29d9:	8b 46 38             	mov    0x38(%esi),%eax
    29dc:	85 c0                	test   %eax,%eax
    29de:	74 06                	je     29e6 <grid_rearrange+0x5b6>
    29e0:	39 c1                	cmp    %eax,%ecx
    29e2:	76 02                	jbe    29e6 <grid_rearrange+0x5b6>
    29e4:	89 c1                	mov    %eax,%ecx
    29e6:	8b 46 3c             	mov    0x3c(%esi),%eax
    29e9:	85 c0                	test   %eax,%eax
    29eb:	74 06                	je     29f3 <grid_rearrange+0x5c3>
    29ed:	39 c2                	cmp    %eax,%edx
    29ef:	76 02                	jbe    29f3 <grid_rearrange+0x5c3>
    29f1:	89 c2                	mov    %eax,%edx
    29f3:	89 54 24 10          	mov    %edx,0x10(%esp)
    29f7:	89 4c 24 0c          	mov    %ecx,0xc(%esp)
    29fb:	8b 55 b4             	mov    -0x4c(%ebp),%edx
    29fe:	8b 4d dc             	mov    -0x24(%ebp),%ecx
    2a01:	89 34 24             	mov    %esi,(%esp)
    2a04:	89 54 24 08          	mov    %edx,0x8(%esp)
    2a08:	89 4c 24 04          	mov    %ecx,0x4(%esp)
    2a0c:	ff 56 48             	call   *0x48(%esi)
    2a0f:	8b 75 bc             	mov    -0x44(%ebp),%esi
    2a12:	8b 7d bc             	mov    -0x44(%ebp),%edi
    2a15:	8b 76 60             	mov    0x60(%esi),%esi
    2a18:	89 75 c8             	mov    %esi,-0x38(%ebp)
    2a1b:	8b 7f 5c             	mov    0x5c(%edi),%edi
    2a1e:	89 7d e0             	mov    %edi,-0x20(%ebp)
    2a21:	8b 4d dc             	mov    -0x24(%ebp),%ecx
    2a24:	8b 43 08             	mov    0x8(%ebx),%eax
    2a27:	01 c1                	add    %eax,%ecx
    2a29:	89 4d dc             	mov    %ecx,-0x24(%ebp)
    2a2c:	8b 55 e4             	mov    -0x1c(%ebp),%edx
    2a2f:	83 c3 0c             	add    $0xc,%ebx
    2a32:	42                   	inc    %edx
    2a33:	89 55 e4             	mov    %edx,-0x1c(%ebp)
    2a36:	8b 55 e0             	mov    -0x20(%ebp),%edx
    2a39:	39 55 e4             	cmp    %edx,-0x1c(%ebp)
    2a3c:	0f 82 f6 fe ff ff    	jb     2938 <grid_rearrange+0x508>
    2a42:	8b 4d d4             	mov    -0x2c(%ebp),%ecx
    2a45:	8b 45 b4             	mov    -0x4c(%ebp),%eax
    2a48:	8b 75 c8             	mov    -0x38(%ebp),%esi
    2a4b:	8b 49 08             	mov    0x8(%ecx),%ecx
    2a4e:	01 c8                	add    %ecx,%eax
    2a50:	89 45 b4             	mov    %eax,-0x4c(%ebp)
    2a53:	8b 45 d8             	mov    -0x28(%ebp),%eax
    2a56:	40                   	inc    %eax
    2a57:	89 45 d8             	mov    %eax,-0x28(%ebp)
    2a5a:	8b 45 d4             	mov    -0x2c(%ebp),%eax
    2a5d:	83 c0 0c             	add    $0xc,%eax
    2a60:	39 75 d8             	cmp    %esi,-0x28(%ebp)
    2a63:	89 45 d4             	mov    %eax,-0x2c(%ebp)
    2a66:	0f 82 aa fe ff ff    	jb     2916 <grid_rearrange+0x4e6>
    2a6c:	b3 01                	mov    $0x1,%bl
    2a6e:	8b 45 b0             	mov    -0x50(%ebp),%eax
    2a71:	89 04 24             	mov    %eax,(%esp)
    2a74:	e8 87 4e 01 00       	call   17900 <free>
    2a79:	84 db                	test   %bl,%bl
    2a7b:	74 12                	je     2a8f <grid_rearrange+0x65f>
    2a7d:	8b 45 a8             	mov    -0x58(%ebp),%eax
    2a80:	89 45 08             	mov    %eax,0x8(%ebp)
    2a83:	83 c4 7c             	add    $0x7c,%esp
    2a86:	5b                   	pop    %ebx
    2a87:	5e                   	pop    %esi
    2a88:	5f                   	pop    %edi
    2a89:	5d                   	pop    %ebp
    2a8a:	e9 71 4e 01 00       	jmp    17900 <free>
    2a8f:	83 c4 7c             	add    $0x7c,%esp
    2a92:	5b                   	pop    %ebx
    2a93:	5e                   	pop    %esi
    2a94:	5f                   	pop    %edi
    2a95:	5d                   	pop    %ebp
    2a96:	c3                   	ret    
    2a97:	90                   	nop
    2a98:	31 c9                	xor    %ecx,%ecx
    2a9a:	e9 02 ff ff ff       	jmp    29a1 <grid_rearrange+0x571>
    2a9f:	8b 75 bc             	mov    -0x44(%ebp),%esi
    2aa2:	8b 76 60             	mov    0x60(%esi),%esi
    2aa5:	89 75 cc             	mov    %esi,-0x34(%ebp)
    2aa8:	e9 45 fc ff ff       	jmp    26f2 <grid_rearrange+0x2c2>
    2aad:	8b 45 b0             	mov    -0x50(%ebp),%eax
    2ab0:	85 c0                	test   %eax,%eax
    2ab2:	74 db                	je     2a8f <grid_rearrange+0x65f>
    2ab4:	31 db                	xor    %ebx,%ebx
    2ab6:	eb b6                	jmp    2a6e <grid_rearrange+0x63e>
    2ab8:	31 d2                	xor    %edx,%edx
    2aba:	e9 af fd ff ff       	jmp    286e <grid_rearrange+0x43e>
    2abf:	8b 75 bc             	mov    -0x44(%ebp),%esi
    2ac2:	31 d2                	xor    %edx,%edx
    2ac4:	8b 76 60             	mov    0x60(%esi),%esi
    2ac7:	89 75 cc             	mov    %esi,-0x34(%ebp)
    2aca:	e9 af fb ff ff       	jmp    267e <grid_rearrange+0x24e>
    2acf:	c7 44 24 08 77 00 00 	movl   $0x77,0x8(%esp)
    2ad6:	00 
    2ad7:	c7 44 24 04 46 44 02 	movl   $0x24446,0x4(%esp)
    2ade:	00 
    2adf:	c7 04 24 4d 44 02 00 	movl   $0x2444d,(%esp)
    2ae6:	e8 e5 f5 01 00       	call   220d0 <assert_abort>
    2aeb:	90                   	nop
    2aec:	8d 74 26 00          	lea    0x0(%esi,%eiz,1),%esi

00002af0 <deinit_grid>:
    2af0:	55                   	push   %ebp
    2af1:	89 e5                	mov    %esp,%ebp
    2af3:	53                   	push   %ebx
    2af4:	83 ec 14             	sub    $0x14,%esp
    2af7:	8b 5d 08             	mov    0x8(%ebp),%ebx
    2afa:	89 1c 24             	mov    %ebx,(%esp)
    2afd:	e8 6e 02 00 00       	call   2d70 <widget_deinit>
    2b02:	8b 43 64             	mov    0x64(%ebx),%eax
    2b05:	89 45 08             	mov    %eax,0x8(%ebp)
    2b08:	83 c4 14             	add    $0x14,%esp
    2b0b:	5b                   	pop    %ebx
    2b0c:	5d                   	pop    %ebp
    2b0d:	e9 ee 4d 01 00       	jmp    17900 <free>
    2b12:	8d b4 26 00 00 00 00 	lea    0x0(%esi,%eiz,1),%esi
    2b19:	8d bc 27 00 00 00 00 	lea    0x0(%edi,%eiz,1),%edi

00002b20 <init_grid>:
    2b20:	55                   	push   %ebp
    2b21:	89 e5                	mov    %esp,%ebp
    2b23:	57                   	push   %edi
    2b24:	56                   	push   %esi
    2b25:	53                   	push   %ebx
    2b26:	83 ec 1c             	sub    $0x1c,%esp
    2b29:	8b 75 14             	mov    0x14(%ebp),%esi
    2b2c:	8b 5d 08             	mov    0x8(%ebp),%ebx
    2b2f:	85 f6                	test   %esi,%esi
    2b31:	75 0d                	jne    2b40 <init_grid+0x20>
    2b33:	83 c4 1c             	add    $0x1c,%esp
    2b36:	31 c0                	xor    %eax,%eax
    2b38:	5b                   	pop    %ebx
    2b39:	5e                   	pop    %esi
    2b3a:	5f                   	pop    %edi
    2b3b:	5d                   	pop    %ebp
    2b3c:	c3                   	ret    
    2b3d:	8d 76 00             	lea    0x0(%esi),%esi
    2b40:	8b 45 10             	mov    0x10(%ebp),%eax
    2b43:	85 c0                	test   %eax,%eax
    2b45:	74 ec                	je     2b33 <init_grid+0x13>
    2b47:	8b 7d 10             	mov    0x10(%ebp),%edi
    2b4a:	c7 44 24 04 0c 00 00 	movl   $0xc,0x4(%esp)
    2b51:	00 
    2b52:	0f af fe             	imul   %esi,%edi
    2b55:	89 3c 24             	mov    %edi,(%esp)
    2b58:	e8 33 4c 01 00       	call   17790 <calloc>
    2b5d:	89 43 64             	mov    %eax,0x64(%ebx)
    2b60:	85 c0                	test   %eax,%eax
    2b62:	74 cf                	je     2b33 <init_grid+0x13>
    2b64:	8d 14 7f             	lea    (%edi,%edi,2),%edx
    2b67:	c7 44 24 04 00 00 00 	movl   $0x0,0x4(%esp)
    2b6e:	00 
    2b6f:	c1 e2 02             	shl    $0x2,%edx
    2b72:	89 04 24             	mov    %eax,(%esp)
    2b75:	89 54 24 08          	mov    %edx,0x8(%esp)
    2b79:	e8 42 78 00 00       	call   a3c0 <memset>
    2b7e:	8b 45 0c             	mov    0xc(%ebp),%eax
    2b81:	89 44 24 04          	mov    %eax,0x4(%esp)
    2b85:	89 1c 24             	mov    %ebx,(%esp)
    2b88:	e8 23 01 00 00       	call   2cb0 <widget_init>
    2b8d:	8b 45 18             	mov    0x18(%ebp),%eax
    2b90:	89 43 58             	mov    %eax,0x58(%ebx)
    2b93:	8b 45 10             	mov    0x10(%ebp),%eax
    2b96:	89 43 5c             	mov    %eax,0x5c(%ebx)
    2b99:	c7 43 40 00 24 00 00 	movl   $0x2400,0x40(%ebx)
    2ba0:	c7 43 44 90 20 00 00 	movl   $0x2090,0x44(%ebx)
    2ba7:	c7 43 48 30 24 00 00 	movl   $0x2430,0x48(%ebx)
    2bae:	c7 43 4c 90 21 00 00 	movl   $0x2190,0x4c(%ebx)
    2bb5:	c7 43 50 a0 20 00 00 	movl   $0x20a0,0x50(%ebx)
    2bbc:	c7 43 54 b0 20 00 00 	movl   $0x20b0,0x54(%ebx)
    2bc3:	c7 43 68 40 22 00 00 	movl   $0x2240,0x68(%ebx)
    2bca:	89 73 60             	mov    %esi,0x60(%ebx)
    2bcd:	83 c4 1c             	add    $0x1c,%esp
    2bd0:	b0 01                	mov    $0x1,%al
    2bd2:	5b                   	pop    %ebx
    2bd3:	5e                   	pop    %esi
    2bd4:	5f                   	pop    %edi
    2bd5:	5d                   	pop    %ebp
    2bd6:	c3                   	ret    
    2bd7:	89 f6                	mov    %esi,%esi
    2bd9:	8d bc 27 00 00 00 00 	lea    0x0(%edi,%eiz,1),%edi

00002be0 <create_grid>:
    2be0:	55                   	push   %ebp
    2be1:	89 e5                	mov    %esp,%ebp
    2be3:	57                   	push   %edi
    2be4:	56                   	push   %esi
    2be5:	53                   	push   %ebx
    2be6:	83 ec 1c             	sub    $0x1c,%esp
    2be9:	8b 75 10             	mov    0x10(%ebp),%esi
    2bec:	c7 04 24 6c 00 00 00 	movl   $0x6c,(%esp)
    2bf3:	e8 f8 4b 01 00       	call   177f0 <malloc>
    2bf8:	89 c3                	mov    %eax,%ebx
    2bfa:	85 c0                	test   %eax,%eax
    2bfc:	74 0e                	je     2c0c <create_grid+0x2c>
    2bfe:	85 f6                	test   %esi,%esi
    2c00:	75 16                	jne    2c18 <create_grid+0x38>
    2c02:	89 1c 24             	mov    %ebx,(%esp)
    2c05:	31 db                	xor    %ebx,%ebx
    2c07:	e8 f4 4c 01 00       	call   17900 <free>
    2c0c:	83 c4 1c             	add    $0x1c,%esp
    2c0f:	89 d8                	mov    %ebx,%eax
    2c11:	5b                   	pop    %ebx
    2c12:	5e                   	pop    %esi
    2c13:	5f                   	pop    %edi
    2c14:	5d                   	pop    %ebp
    2c15:	c3                   	ret    
    2c16:	66 90                	xchg   %ax,%ax
    2c18:	8b 45 0c             	mov    0xc(%ebp),%eax
    2c1b:	85 c0                	test   %eax,%eax
    2c1d:	74 e3                	je     2c02 <create_grid+0x22>
    2c1f:	8b 7d 0c             	mov    0xc(%ebp),%edi
    2c22:	c7 44 24 04 0c 00 00 	movl   $0xc,0x4(%esp)
    2c29:	00 
    2c2a:	0f af fe             	imul   %esi,%edi
    2c2d:	89 3c 24             	mov    %edi,(%esp)
    2c30:	e8 5b 4b 01 00       	call   17790 <calloc>
    2c35:	89 43 64             	mov    %eax,0x64(%ebx)
    2c38:	85 c0                	test   %eax,%eax
    2c3a:	74 c6                	je     2c02 <create_grid+0x22>
    2c3c:	8d 14 7f             	lea    (%edi,%edi,2),%edx
    2c3f:	c7 44 24 04 00 00 00 	movl   $0x0,0x4(%esp)
    2c46:	00 
    2c47:	c1 e2 02             	shl    $0x2,%edx
    2c4a:	89 04 24             	mov    %eax,(%esp)
    2c4d:	89 54 24 08          	mov    %edx,0x8(%esp)
    2c51:	e8 6a 77 00 00       	call   a3c0 <memset>
    2c56:	8b 45 08             	mov    0x8(%ebp),%eax
    2c59:	89 44 24 04          	mov    %eax,0x4(%esp)
    2c5d:	89 1c 24             	mov    %ebx,(%esp)
    2c60:	e8 4b 00 00 00       	call   2cb0 <widget_init>
    2c65:	8b 45 14             	mov    0x14(%ebp),%eax
    2c68:	89 43 58             	mov    %eax,0x58(%ebx)
    2c6b:	8b 45 0c             	mov    0xc(%ebp),%eax
    2c6e:	89 43 5c             	mov    %eax,0x5c(%ebx)
    2c71:	c7 43 40 00 24 00 00 	movl   $0x2400,0x40(%ebx)
    2c78:	c7 43 44 90 20 00 00 	movl   $0x2090,0x44(%ebx)
    2c7f:	c7 43 48 30 24 00 00 	movl   $0x2430,0x48(%ebx)
    2c86:	c7 43 4c 90 21 00 00 	movl   $0x2190,0x4c(%ebx)
    2c8d:	c7 43 50 a0 20 00 00 	movl   $0x20a0,0x50(%ebx)
    2c94:	c7 43 54 b0 20 00 00 	movl   $0x20b0,0x54(%ebx)
    2c9b:	c7 43 68 40 22 00 00 	movl   $0x2240,0x68(%ebx)
    2ca2:	89 73 60             	mov    %esi,0x60(%ebx)
    2ca5:	83 c4 1c             	add    $0x1c,%esp
    2ca8:	89 d8                	mov    %ebx,%eax
    2caa:	5b                   	pop    %ebx
    2cab:	5e                   	pop    %esi
    2cac:	5f                   	pop    %edi
    2cad:	5d                   	pop    %ebp
    2cae:	c3                   	ret    
    2caf:	90                   	nop

00002cb0 <widget_init>:
    2cb0:	55                   	push   %ebp
    2cb1:	89 e5                	mov    %esp,%ebp
    2cb3:	8b 45 08             	mov    0x8(%ebp),%eax
    2cb6:	8b 55 0c             	mov    0xc(%ebp),%edx
    2cb9:	85 d2                	test   %edx,%edx
    2cbb:	8d 48 0c             	lea    0xc(%eax),%ecx
    2cbe:	c7 00 00 00 00 00    	movl   $0x0,(%eax)
    2cc4:	c7 40 04 00 00 00 00 	movl   $0x0,0x4(%eax)
    2ccb:	89 48 0c             	mov    %ecx,0xc(%eax)
    2cce:	89 48 10             	mov    %ecx,0x10(%eax)
    2cd1:	74 65                	je     2d38 <widget_init+0x88>
    2cd3:	8d 4a 0c             	lea    0xc(%edx),%ecx
    2cd6:	89 50 08             	mov    %edx,0x8(%eax)
    2cd9:	89 48 04             	mov    %ecx,0x4(%eax)
    2cdc:	8b 4a 0c             	mov    0xc(%edx),%ecx
    2cdf:	89 08                	mov    %ecx,(%eax)
    2ce1:	8b 4a 0c             	mov    0xc(%edx),%ecx
    2ce4:	89 42 0c             	mov    %eax,0xc(%edx)
    2ce7:	8b 52 14             	mov    0x14(%edx),%edx
    2cea:	89 41 04             	mov    %eax,0x4(%ecx)
    2ced:	89 50 14             	mov    %edx,0x14(%eax)
    2cf0:	c7 40 18 00 00 00 00 	movl   $0x0,0x18(%eax)
    2cf7:	c7 40 1c 00 00 00 00 	movl   $0x0,0x1c(%eax)
    2cfe:	c7 40 20 00 00 00 00 	movl   $0x0,0x20(%eax)
    2d05:	c7 40 24 00 00 00 00 	movl   $0x0,0x24(%eax)
    2d0c:	c7 40 28 00 00 00 00 	movl   $0x0,0x28(%eax)
    2d13:	c7 40 2c 00 00 00 00 	movl   $0x0,0x2c(%eax)
    2d1a:	c7 40 30 00 00 00 00 	movl   $0x0,0x30(%eax)
    2d21:	c7 40 34 00 00 00 00 	movl   $0x0,0x34(%eax)
    2d28:	c7 40 38 ff ff ff ff 	movl   $0xffffffff,0x38(%eax)
    2d2f:	c7 40 3c ff ff ff ff 	movl   $0xffffffff,0x3c(%eax)
    2d36:	5d                   	pop    %ebp
    2d37:	c3                   	ret    
    2d38:	c7 40 08 00 00 00 00 	movl   $0x0,0x8(%eax)
    2d3f:	c7 40 14 00 00 00 00 	movl   $0x0,0x14(%eax)
    2d46:	eb a8                	jmp    2cf0 <widget_init+0x40>
    2d48:	90                   	nop
    2d49:	8d b4 26 00 00 00 00 	lea    0x0(%esi,%eiz,1),%esi

00002d50 <widget_modify>:
    2d50:	55                   	push   %ebp
    2d51:	89 e5                	mov    %esp,%ebp
    2d53:	8b 45 08             	mov    0x8(%ebp),%eax
    2d56:	8b 55 0c             	mov    0xc(%ebp),%edx
    2d59:	89 50 18             	mov    %edx,0x18(%eax)
    2d5c:	8b 55 10             	mov    0x10(%ebp),%edx
    2d5f:	89 50 1c             	mov    %edx,0x1c(%eax)
    2d62:	8b 55 14             	mov    0x14(%ebp),%edx
    2d65:	89 50 20             	mov    %edx,0x20(%eax)
    2d68:	8b 55 18             	mov    0x18(%ebp),%edx
    2d6b:	89 50 24             	mov    %edx,0x24(%eax)
    2d6e:	5d                   	pop    %ebp
    2d6f:	c3                   	ret    

00002d70 <widget_deinit>:
    2d70:	55                   	push   %ebp
    2d71:	89 e5                	mov    %esp,%ebp
    2d73:	8b 45 08             	mov    0x8(%ebp),%eax
    2d76:	8b 50 08             	mov    0x8(%eax),%edx
    2d79:	85 d2                	test   %edx,%edx
    2d7b:	74 21                	je     2d9e <widget_deinit+0x2e>
    2d7d:	8b 08                	mov    (%eax),%ecx
    2d7f:	85 c9                	test   %ecx,%ecx
    2d81:	74 0e                	je     2d91 <widget_deinit+0x21>
    2d83:	8b 50 04             	mov    0x4(%eax),%edx
    2d86:	85 d2                	test   %edx,%edx
    2d88:	74 07                	je     2d91 <widget_deinit+0x21>
    2d8a:	89 0a                	mov    %ecx,(%edx)
    2d8c:	8b 08                	mov    (%eax),%ecx
    2d8e:	89 51 04             	mov    %edx,0x4(%ecx)
    2d91:	c7 00 00 00 00 00    	movl   $0x0,(%eax)
    2d97:	c7 40 04 00 00 00 00 	movl   $0x0,0x4(%eax)
    2d9e:	5d                   	pop    %ebp
    2d9f:	c3                   	ret    

00002da0 <root_handle_keyboard_event>:
    2da0:	55                   	push   %ebp
    2da1:	89 e5                	mov    %esp,%ebp
    2da3:	57                   	push   %edi
    2da4:	56                   	push   %esi
    2da5:	8b 55 08             	mov    0x8(%ebp),%edx
    2da8:	8b 42 10             	mov    0x10(%edx),%eax
    2dab:	83 c2 0c             	add    $0xc,%edx
    2dae:	39 d0                	cmp    %edx,%eax
    2db0:	74 1e                	je     2dd0 <root_handle_keyboard_event+0x30>
    2db2:	8d 7d 0c             	lea    0xc(%ebp),%edi
    2db5:	b9 06 00 00 00       	mov    $0x6,%ecx
    2dba:	89 fe                	mov    %edi,%esi
    2dbc:	f3 a5                	rep movsl %ds:(%esi),%es:(%edi)
    2dbe:	89 45 08             	mov    %eax,0x8(%ebp)
    2dc1:	5e                   	pop    %esi
    2dc2:	8b 40 50             	mov    0x50(%eax),%eax
    2dc5:	5f                   	pop    %edi
    2dc6:	5d                   	pop    %ebp
    2dc7:	ff e0                	jmp    *%eax
    2dc9:	8d b4 26 00 00 00 00 	lea    0x0(%esi,%eiz,1),%esi
    2dd0:	5e                   	pop    %esi
    2dd1:	5f                   	pop    %edi
    2dd2:	5d                   	pop    %ebp
    2dd3:	c3                   	ret    
    2dd4:	8d b6 00 00 00 00    	lea    0x0(%esi),%esi
    2dda:	8d bf 00 00 00 00    	lea    0x0(%edi),%edi

00002de0 <fetch_input>:
    2de0:	55                   	push   %ebp
    2de1:	89 e5                	mov    %esp,%ebp
    2de3:	57                   	push   %edi
    2de4:	56                   	push   %esi
    2de5:	53                   	push   %ebx
    2de6:	83 ec 2c             	sub    $0x2c,%esp
    2de9:	8b 5d 08             	mov    0x8(%ebp),%ebx
    2dec:	8d 43 10             	lea    0x10(%ebx),%eax
    2def:	89 45 e4             	mov    %eax,-0x1c(%ebp)
    2df2:	c7 04 24 24 00 00 00 	movl   $0x24,(%esp)
    2df9:	e8 f2 49 01 00       	call   177f0 <malloc>
    2dfe:	89 c7                	mov    %eax,%edi
    2e00:	85 c0                	test   %eax,%eax
    2e02:	74 44                	je     2e48 <fetch_input+0x68>
    2e04:	89 44 24 04          	mov    %eax,0x4(%esp)
    2e08:	8b 43 08             	mov    0x8(%ebx),%eax
    2e0b:	89 04 24             	mov    %eax,(%esp)
    2e0e:	e8 2d 24 01 00       	call   15240 <win_get_event>
    2e13:	85 c0                	test   %eax,%eax
    2e15:	75 29                	jne    2e40 <fetch_input+0x60>
    2e17:	8b 45 e4             	mov    -0x1c(%ebp),%eax
    2e1a:	8b 77 08             	mov    0x8(%edi),%esi
    2e1d:	89 7c 24 04          	mov    %edi,0x4(%esp)
    2e21:	89 04 24             	mov    %eax,(%esp)
    2e24:	c7 07 00 00 00 00    	movl   $0x0,(%edi)
    2e2a:	c7 47 04 00 00 00 00 	movl   $0x0,0x4(%edi)
    2e31:	e8 4a b1 01 00       	call   1df80 <prodcons_produce>
    2e36:	83 fe 08             	cmp    $0x8,%esi
    2e39:	75 b7                	jne    2df2 <fetch_input+0x12>
    2e3b:	eb 0b                	jmp    2e48 <fetch_input+0x68>
    2e3d:	8d 76 00             	lea    0x0(%esi),%esi
    2e40:	89 3c 24             	mov    %edi,(%esp)
    2e43:	e8 b8 4a 01 00       	call   17900 <free>
    2e48:	83 c4 2c             	add    $0x2c,%esp
    2e4b:	31 c0                	xor    %eax,%eax
    2e4d:	5b                   	pop    %ebx
    2e4e:	5e                   	pop    %esi
    2e4f:	5f                   	pop    %edi
    2e50:	5d                   	pop    %ebp
    2e51:	c3                   	ret    
    2e52:	8d b4 26 00 00 00 00 	lea    0x0(%esi,%eiz,1),%esi
    2e59:	8d bc 27 00 00 00 00 	lea    0x0(%edi,%eiz,1),%edi

00002e60 <root_handle_position_event>:
    2e60:	55                   	push   %ebp
    2e61:	89 e5                	mov    %esp,%ebp
    2e63:	57                   	push   %edi
    2e64:	56                   	push   %esi
    2e65:	53                   	push   %ebx
    2e66:	83 ec 4c             	sub    $0x4c,%esp
    2e69:	8b 45 08             	mov    0x8(%ebp),%eax
    2e6c:	8b 55 0c             	mov    0xc(%ebp),%edx
    2e6f:	8b 5d 10             	mov    0x10(%ebp),%ebx
    2e72:	89 55 e4             	mov    %edx,-0x1c(%ebp)
    2e75:	8b 48 14             	mov    0x14(%eax),%ecx
    2e78:	89 5d e0             	mov    %ebx,-0x20(%ebp)
    2e7b:	8b 55 14             	mov    0x14(%ebp),%edx
    2e7e:	8b 75 18             	mov    0x18(%ebp),%esi
    2e81:	8b 7d 1c             	mov    0x1c(%ebp),%edi
    2e84:	80 79 01 00          	cmpb   $0x0,0x1(%ecx)
    2e88:	0f 84 aa 00 00 00    	je     2f38 <root_handle_position_event+0xd8>
    2e8e:	8b 58 20             	mov    0x20(%eax),%ebx
    2e91:	83 fa 01             	cmp    $0x1,%edx
    2e94:	89 5d d4             	mov    %ebx,-0x2c(%ebp)
    2e97:	8b 58 24             	mov    0x24(%eax),%ebx
    2e9a:	89 5d c8             	mov    %ebx,-0x38(%ebp)
    2e9d:	0f 84 c5 01 00 00    	je     3068 <root_handle_position_event+0x208>
    2ea3:	83 fa 02             	cmp    $0x2,%edx
    2ea6:	0f 84 2c 02 00 00    	je     30d8 <root_handle_position_event+0x278>
    2eac:	c6 45 dc 00          	movb   $0x0,-0x24(%ebp)
    2eb0:	c6 45 d2 00          	movb   $0x0,-0x2e(%ebp)
    2eb4:	8b 5d d4             	mov    -0x2c(%ebp),%ebx
    2eb7:	83 fe 04             	cmp    $0x4,%esi
    2eba:	0f 96 45 d1          	setbe  -0x2f(%ebp)
    2ebe:	83 eb 05             	sub    $0x5,%ebx
    2ec1:	39 f3                	cmp    %esi,%ebx
    2ec3:	89 5d d8             	mov    %ebx,-0x28(%ebp)
    2ec6:	8b 5d c8             	mov    -0x38(%ebp),%ebx
    2ec9:	0f 96 45 d0          	setbe  -0x30(%ebp)
    2ecd:	83 ff 04             	cmp    $0x4,%edi
    2ed0:	0f 96 45 d3          	setbe  -0x2d(%ebp)
    2ed4:	83 eb 05             	sub    $0x5,%ebx
    2ed7:	39 fb                	cmp    %edi,%ebx
    2ed9:	0f 96 45 c8          	setbe  -0x38(%ebp)
    2edd:	83 fe 04             	cmp    $0x4,%esi
    2ee0:	76 09                	jbe    2eeb <root_handle_position_event+0x8b>
    2ee2:	39 75 d8             	cmp    %esi,-0x28(%ebp)
    2ee5:	0f 87 95 01 00 00    	ja     3080 <root_handle_position_event+0x220>
    2eeb:	c6 45 d8 00          	movb   $0x0,-0x28(%ebp)
    2eef:	c6 45 d4 00          	movb   $0x0,-0x2c(%ebp)
    2ef3:	80 7d d3 00          	cmpb   $0x0,-0x2d(%ebp)
    2ef7:	0f 84 9b 00 00 00    	je     2f98 <root_handle_position_event+0x138>
    2efd:	80 7d d1 00          	cmpb   $0x0,-0x2f(%ebp)
    2f01:	0f 84 91 00 00 00    	je     2f98 <root_handle_position_event+0x138>
    2f07:	80 7d dc 00          	cmpb   $0x0,-0x24(%ebp)
    2f0b:	0f 84 21 02 00 00    	je     3132 <root_handle_position_event+0x2d2>
    2f11:	80 7d d2 01          	cmpb   $0x1,-0x2e(%ebp)
    2f15:	19 c0                	sbb    %eax,%eax
    2f17:	83 e0 24             	and    $0x24,%eax
    2f1a:	83 c0 0f             	add    $0xf,%eax
    2f1d:	89 45 10             	mov    %eax,0x10(%ebp)
    2f20:	8b 45 e4             	mov    -0x1c(%ebp),%eax
    2f23:	89 45 0c             	mov    %eax,0xc(%ebp)
    2f26:	8b 41 0c             	mov    0xc(%ecx),%eax
    2f29:	89 45 08             	mov    %eax,0x8(%ebp)
    2f2c:	83 c4 4c             	add    $0x4c,%esp
    2f2f:	5b                   	pop    %ebx
    2f30:	5e                   	pop    %esi
    2f31:	5f                   	pop    %edi
    2f32:	5d                   	pop    %ebp
    2f33:	e9 28 24 01 00       	jmp    15360 <win_grab>
    2f38:	8b 58 10             	mov    0x10(%eax),%ebx
    2f3b:	83 c0 0c             	add    $0xc,%eax
    2f3e:	89 45 dc             	mov    %eax,-0x24(%ebp)
    2f41:	39 d8                	cmp    %ebx,%eax
    2f43:	74 48                	je     2f8d <root_handle_position_event+0x12d>
    2f45:	8d 76 00             	lea    0x0(%esi),%esi
    2f48:	8b 45 e4             	mov    -0x1c(%ebp),%eax
    2f4b:	8b 4b 54             	mov    0x54(%ebx),%ecx
    2f4e:	89 45 0c             	mov    %eax,0xc(%ebp)
    2f51:	8b 45 e0             	mov    -0x20(%ebp),%eax
    2f54:	89 45 10             	mov    %eax,0x10(%ebp)
    2f57:	8b 45 e4             	mov    -0x1c(%ebp),%eax
    2f5a:	89 44 24 04          	mov    %eax,0x4(%esp)
    2f5e:	8b 45 e0             	mov    -0x20(%ebp),%eax
    2f61:	89 54 24 0c          	mov    %edx,0xc(%esp)
    2f65:	89 1c 24             	mov    %ebx,(%esp)
    2f68:	89 55 cc             	mov    %edx,-0x34(%ebp)
    2f6b:	89 44 24 08          	mov    %eax,0x8(%esp)
    2f6f:	89 74 24 10          	mov    %esi,0x10(%esp)
    2f73:	89 7c 24 14          	mov    %edi,0x14(%esp)
    2f77:	89 55 14             	mov    %edx,0x14(%ebp)
    2f7a:	89 75 18             	mov    %esi,0x18(%ebp)
    2f7d:	89 7d 1c             	mov    %edi,0x1c(%ebp)
    2f80:	ff d1                	call   *%ecx
    2f82:	8b 5b 04             	mov    0x4(%ebx),%ebx
    2f85:	8b 55 cc             	mov    -0x34(%ebp),%edx
    2f88:	39 5d dc             	cmp    %ebx,-0x24(%ebp)
    2f8b:	75 bb                	jne    2f48 <root_handle_position_event+0xe8>
    2f8d:	83 c4 4c             	add    $0x4c,%esp
    2f90:	5b                   	pop    %ebx
    2f91:	5e                   	pop    %esi
    2f92:	5f                   	pop    %edi
    2f93:	5d                   	pop    %ebp
    2f94:	c3                   	ret    
    2f95:	8d 76 00             	lea    0x0(%esi),%esi
    2f98:	80 7d c8 00          	cmpb   $0x0,-0x38(%ebp)
    2f9c:	75 3a                	jne    2fd8 <root_handle_position_event+0x178>
    2f9e:	80 7d d0 00          	cmpb   $0x0,-0x30(%ebp)
    2fa2:	74 0a                	je     2fae <root_handle_position_event+0x14e>
    2fa4:	80 7d d3 00          	cmpb   $0x0,-0x2d(%ebp)
    2fa8:	0f 85 42 01 00 00    	jne    30f0 <root_handle_position_event+0x290>
    2fae:	80 7d dc 00          	cmpb   $0x0,-0x24(%ebp)
    2fb2:	74 3e                	je     2ff2 <root_handle_position_event+0x192>
    2fb4:	80 7d d3 00          	cmpb   $0x0,-0x2d(%ebp)
    2fb8:	0f 84 ad 01 00 00    	je     316b <root_handle_position_event+0x30b>
    2fbe:	80 7d d2 01          	cmpb   $0x1,-0x2e(%ebp)
    2fc2:	19 c0                	sbb    %eax,%eax
    2fc4:	8b 55 e4             	mov    -0x1c(%ebp),%edx
    2fc7:	83 e0 18             	and    $0x18,%eax
    2fca:	89 55 0c             	mov    %edx,0xc(%ebp)
    2fcd:	83 c0 0a             	add    $0xa,%eax
    2fd0:	89 45 10             	mov    %eax,0x10(%ebp)
    2fd3:	e9 4e ff ff ff       	jmp    2f26 <root_handle_position_event+0xc6>
    2fd8:	80 7d d1 00          	cmpb   $0x0,-0x2f(%ebp)
    2fdc:	0f 85 ce 00 00 00    	jne    30b0 <root_handle_position_event+0x250>
    2fe2:	80 7d d0 00          	cmpb   $0x0,-0x30(%ebp)
    2fe6:	74 c6                	je     2fae <root_handle_position_event+0x14e>
    2fe8:	80 7d dc 00          	cmpb   $0x0,-0x24(%ebp)
    2fec:	0f 85 26 01 00 00    	jne    3118 <root_handle_position_event+0x2b8>
    2ff2:	80 7d d4 00          	cmpb   $0x0,-0x2c(%ebp)
    2ff6:	0f 85 4c 01 00 00    	jne    3148 <root_handle_position_event+0x2e8>
    2ffc:	80 7d d8 00          	cmpb   $0x0,-0x28(%ebp)
    3000:	0f 85 5c 01 00 00    	jne    3162 <root_handle_position_event+0x302>
    3006:	8b 58 10             	mov    0x10(%eax),%ebx
    3009:	83 c0 0c             	add    $0xc,%eax
    300c:	89 45 dc             	mov    %eax,-0x24(%ebp)
    300f:	39 d8                	cmp    %ebx,%eax
    3011:	0f 84 76 ff ff ff    	je     2f8d <root_handle_position_event+0x12d>
    3017:	90                   	nop
    3018:	8b 45 e4             	mov    -0x1c(%ebp),%eax
    301b:	8b 4b 54             	mov    0x54(%ebx),%ecx
    301e:	89 45 0c             	mov    %eax,0xc(%ebp)
    3021:	8b 45 e0             	mov    -0x20(%ebp),%eax
    3024:	89 45 10             	mov    %eax,0x10(%ebp)
    3027:	8b 45 e4             	mov    -0x1c(%ebp),%eax
    302a:	89 44 24 04          	mov    %eax,0x4(%esp)
    302e:	8b 45 e0             	mov    -0x20(%ebp),%eax
    3031:	89 54 24 0c          	mov    %edx,0xc(%esp)
    3035:	89 1c 24             	mov    %ebx,(%esp)
    3038:	89 55 cc             	mov    %edx,-0x34(%ebp)
    303b:	89 44 24 08          	mov    %eax,0x8(%esp)
    303f:	89 74 24 10          	mov    %esi,0x10(%esp)
    3043:	89 7c 24 14          	mov    %edi,0x14(%esp)
    3047:	89 55 14             	mov    %edx,0x14(%ebp)
    304a:	89 75 18             	mov    %esi,0x18(%ebp)
    304d:	89 7d 1c             	mov    %edi,0x1c(%ebp)
    3050:	ff d1                	call   *%ecx
    3052:	8b 5b 04             	mov    0x4(%ebx),%ebx
    3055:	8b 55 cc             	mov    -0x34(%ebp),%edx
    3058:	39 5d dc             	cmp    %ebx,-0x24(%ebp)
    305b:	75 bb                	jne    3018 <root_handle_position_event+0x1b8>
    305d:	e9 2b ff ff ff       	jmp    2f8d <root_handle_position_event+0x12d>
    3062:	8d b6 00 00 00 00    	lea    0x0(%esi),%esi
    3068:	83 7d e0 01          	cmpl   $0x1,-0x20(%ebp)
    306c:	0f 94 45 dc          	sete   -0x24(%ebp)
    3070:	8a 5d dc             	mov    -0x24(%ebp),%bl
    3073:	88 5d d2             	mov    %bl,-0x2e(%ebp)
    3076:	e9 39 fe ff ff       	jmp    2eb4 <root_handle_position_event+0x54>
    307b:	90                   	nop
    307c:	8d 74 26 00          	lea    0x0(%esi,%eiz,1),%esi
    3080:	83 ff 04             	cmp    $0x4,%edi
    3083:	0f 86 62 fe ff ff    	jbe    2eeb <root_handle_position_event+0x8b>
    3089:	83 ff 18             	cmp    $0x18,%edi
    308c:	0f 87 59 fe ff ff    	ja     2eeb <root_handle_position_event+0x8b>
    3092:	8b 5d d4             	mov    -0x2c(%ebp),%ebx
    3095:	83 eb 19             	sub    $0x19,%ebx
    3098:	39 f3                	cmp    %esi,%ebx
    309a:	8a 5d d2             	mov    -0x2e(%ebp),%bl
    309d:	88 5d d8             	mov    %bl,-0x28(%ebp)
    30a0:	0f 86 b4 00 00 00    	jbe    315a <root_handle_position_event+0x2fa>
    30a6:	c6 45 d4 00          	movb   $0x0,-0x2c(%ebp)
    30aa:	e9 44 fe ff ff       	jmp    2ef3 <root_handle_position_event+0x93>
    30af:	90                   	nop
    30b0:	80 7d dc 00          	cmpb   $0x0,-0x24(%ebp)
    30b4:	0f 84 38 ff ff ff    	je     2ff2 <root_handle_position_event+0x192>
    30ba:	80 7d d2 01          	cmpb   $0x1,-0x2e(%ebp)
    30be:	19 c0                	sbb    %eax,%eax
    30c0:	8b 55 e4             	mov    -0x1c(%ebp),%edx
    30c3:	83 e0 24             	and    $0x24,%eax
    30c6:	89 55 0c             	mov    %edx,0xc(%ebp)
    30c9:	83 c0 0d             	add    $0xd,%eax
    30cc:	89 45 10             	mov    %eax,0x10(%ebp)
    30cf:	e9 52 fe ff ff       	jmp    2f26 <root_handle_position_event+0xc6>
    30d4:	8d 74 26 00          	lea    0x0(%esi,%eiz,1),%esi
    30d8:	83 7d e0 01          	cmpl   $0x1,-0x20(%ebp)
    30dc:	0f 94 45 dc          	sete   -0x24(%ebp)
    30e0:	c6 45 d2 00          	movb   $0x0,-0x2e(%ebp)
    30e4:	e9 cb fd ff ff       	jmp    2eb4 <root_handle_position_event+0x54>
    30e9:	8d b4 26 00 00 00 00 	lea    0x0(%esi,%eiz,1),%esi
    30f0:	80 7d dc 00          	cmpb   $0x0,-0x24(%ebp)
    30f4:	0f 84 f8 fe ff ff    	je     2ff2 <root_handle_position_event+0x192>
    30fa:	80 7d d2 01          	cmpb   $0x1,-0x2e(%ebp)
    30fe:	19 c0                	sbb    %eax,%eax
    3100:	83 e0 24             	and    $0x24,%eax
    3103:	83 c0 0e             	add    $0xe,%eax
    3106:	89 45 10             	mov    %eax,0x10(%ebp)
    3109:	8b 45 e4             	mov    -0x1c(%ebp),%eax
    310c:	89 45 0c             	mov    %eax,0xc(%ebp)
    310f:	e9 12 fe ff ff       	jmp    2f26 <root_handle_position_event+0xc6>
    3114:	8d 74 26 00          	lea    0x0(%esi,%eiz,1),%esi
    3118:	80 7d d2 01          	cmpb   $0x1,-0x2e(%ebp)
    311c:	19 c0                	sbb    %eax,%eax
    311e:	83 e0 24             	and    $0x24,%eax
    3121:	83 c0 0c             	add    $0xc,%eax
    3124:	89 45 10             	mov    %eax,0x10(%ebp)
    3127:	8b 5d e4             	mov    -0x1c(%ebp),%ebx
    312a:	89 5d 0c             	mov    %ebx,0xc(%ebp)
    312d:	e9 f4 fd ff ff       	jmp    2f26 <root_handle_position_event+0xc6>
    3132:	80 7d c8 00          	cmpb   $0x0,-0x38(%ebp)
    3136:	0f 84 62 fe ff ff    	je     2f9e <root_handle_position_event+0x13e>
    313c:	e9 b1 fe ff ff       	jmp    2ff2 <root_handle_position_event+0x192>
    3141:	8d b4 26 00 00 00 00 	lea    0x0(%esi,%eiz,1),%esi
    3148:	8b 41 0c             	mov    0xc(%ecx),%eax
    314b:	89 45 08             	mov    %eax,0x8(%ebp)
    314e:	83 c4 4c             	add    $0x4c,%esp
    3151:	5b                   	pop    %ebx
    3152:	5e                   	pop    %esi
    3153:	5f                   	pop    %edi
    3154:	5d                   	pop    %ebp
    3155:	e9 a6 23 01 00       	jmp    15500 <win_close_request>
    315a:	88 5d d4             	mov    %bl,-0x2c(%ebp)
    315d:	e9 91 fd ff ff       	jmp    2ef3 <root_handle_position_event+0x93>
    3162:	c7 45 10 03 00 00 00 	movl   $0x3,0x10(%ebp)
    3169:	eb bc                	jmp    3127 <root_handle_position_event+0x2c7>
    316b:	80 7d d1 00          	cmpb   $0x0,-0x2f(%ebp)
    316f:	74 11                	je     3182 <root_handle_position_event+0x322>
    3171:	80 7d d2 01          	cmpb   $0x1,-0x2e(%ebp)
    3175:	19 c0                	sbb    %eax,%eax
    3177:	83 e0 0c             	and    $0xc,%eax
    317a:	83 c0 05             	add    $0x5,%eax
    317d:	89 45 10             	mov    %eax,0x10(%ebp)
    3180:	eb a5                	jmp    3127 <root_handle_position_event+0x2c7>
    3182:	80 7d c8 00          	cmpb   $0x0,-0x38(%ebp)
    3186:	75 24                	jne    31ac <root_handle_position_event+0x34c>
    3188:	80 7d d0 00          	cmpb   $0x0,-0x30(%ebp)
    318c:	0f 84 60 fe ff ff    	je     2ff2 <root_handle_position_event+0x192>
    3192:	80 7d d2 01          	cmpb   $0x1,-0x2e(%ebp)
    3196:	19 c0                	sbb    %eax,%eax
    3198:	8b 55 e4             	mov    -0x1c(%ebp),%edx
    319b:	83 e0 0c             	and    $0xc,%eax
    319e:	89 55 0c             	mov    %edx,0xc(%ebp)
    31a1:	83 c0 04             	add    $0x4,%eax
    31a4:	89 45 10             	mov    %eax,0x10(%ebp)
    31a7:	e9 7a fd ff ff       	jmp    2f26 <root_handle_position_event+0xc6>
    31ac:	80 7d d2 01          	cmpb   $0x1,-0x2e(%ebp)
    31b0:	19 c0                	sbb    %eax,%eax
    31b2:	83 e0 18             	and    $0x18,%eax
    31b5:	83 c0 08             	add    $0x8,%eax
    31b8:	89 45 10             	mov    %eax,0x10(%ebp)
    31bb:	8b 45 e4             	mov    -0x1c(%ebp),%eax
    31be:	89 45 0c             	mov    %eax,0xc(%ebp)
    31c1:	e9 60 fd ff ff       	jmp    2f26 <root_handle_position_event+0xc6>
    31c6:	8d 76 00             	lea    0x0(%esi),%esi
    31c9:	8d bc 27 00 00 00 00 	lea    0x0(%edi,%eiz,1),%edi

000031d0 <root_destroy>:
    31d0:	55                   	push   %ebp
    31d1:	89 e5                	mov    %esp,%ebp
    31d3:	5d                   	pop    %ebp
    31d4:	e9 97 fb ff ff       	jmp    2d70 <widget_deinit>
    31d9:	8d b4 26 00 00 00 00 	lea    0x0(%esi,%eiz,1),%esi

000031e0 <root_reconfigure>:
    31e0:	55                   	push   %ebp
    31e1:	89 e5                	mov    %esp,%ebp
    31e3:	57                   	push   %edi
    31e4:	56                   	push   %esi
    31e5:	53                   	push   %ebx
    31e6:	83 ec 2c             	sub    $0x2c,%esp
    31e9:	8b 5d 08             	mov    0x8(%ebp),%ebx
    31ec:	8b 43 14             	mov    0x14(%ebx),%eax
    31ef:	8b 73 10             	mov    0x10(%ebx),%esi
    31f2:	8d 7b 0c             	lea    0xc(%ebx),%edi
    31f5:	80 78 01 00          	cmpb   $0x0,0x1(%eax)
    31f9:	74 6a                	je     3265 <root_reconfigure+0x85>
    31fb:	39 fe                	cmp    %edi,%esi
    31fd:	74 36                	je     3235 <root_reconfigure+0x55>
    31ff:	90                   	nop
    3200:	8b 43 24             	mov    0x24(%ebx),%eax
    3203:	83 e8 1e             	sub    $0x1e,%eax
    3206:	89 44 24 10          	mov    %eax,0x10(%esp)
    320a:	8b 43 20             	mov    0x20(%ebx),%eax
    320d:	83 e8 0a             	sub    $0xa,%eax
    3210:	89 44 24 0c          	mov    %eax,0xc(%esp)
    3214:	8b 43 1c             	mov    0x1c(%ebx),%eax
    3217:	83 c0 19             	add    $0x19,%eax
    321a:	89 44 24 08          	mov    %eax,0x8(%esp)
    321e:	8b 43 18             	mov    0x18(%ebx),%eax
    3221:	89 34 24             	mov    %esi,(%esp)
    3224:	83 c0 05             	add    $0x5,%eax
    3227:	89 44 24 04          	mov    %eax,0x4(%esp)
    322b:	ff 56 48             	call   *0x48(%esi)
    322e:	8b 76 04             	mov    0x4(%esi),%esi
    3231:	39 f7                	cmp    %esi,%edi
    3233:	75 cb                	jne    3200 <root_reconfigure+0x20>
    3235:	83 c4 2c             	add    $0x2c,%esp
    3238:	5b                   	pop    %ebx
    3239:	5e                   	pop    %esi
    323a:	5f                   	pop    %edi
    323b:	5d                   	pop    %ebp
    323c:	c3                   	ret    
    323d:	8d 76 00             	lea    0x0(%esi),%esi
    3240:	8b 43 24             	mov    0x24(%ebx),%eax
    3243:	89 44 24 10          	mov    %eax,0x10(%esp)
    3247:	8b 43 20             	mov    0x20(%ebx),%eax
    324a:	89 44 24 0c          	mov    %eax,0xc(%esp)
    324e:	8b 43 1c             	mov    0x1c(%ebx),%eax
    3251:	89 44 24 08          	mov    %eax,0x8(%esp)
    3255:	8b 43 18             	mov    0x18(%ebx),%eax
    3258:	89 34 24             	mov    %esi,(%esp)
    325b:	89 44 24 04          	mov    %eax,0x4(%esp)
    325f:	ff 56 48             	call   *0x48(%esi)
    3262:	8b 76 04             	mov    0x4(%esi),%esi
    3265:	39 fe                	cmp    %edi,%esi
    3267:	75 d7                	jne    3240 <root_reconfigure+0x60>
    3269:	83 c4 2c             	add    $0x2c,%esp
    326c:	5b                   	pop    %ebx
    326d:	5e                   	pop    %esi
    326e:	5f                   	pop    %edi
    326f:	5d                   	pop    %ebp
    3270:	c3                   	ret    
    3271:	eb 0d                	jmp    3280 <paint_internal>
    3273:	90                   	nop
    3274:	90                   	nop
    3275:	90                   	nop
    3276:	90                   	nop
    3277:	90                   	nop
    3278:	90                   	nop
    3279:	90                   	nop
    327a:	90                   	nop
    327b:	90                   	nop
    327c:	90                   	nop
    327d:	90                   	nop
    327e:	90                   	nop
    327f:	90                   	nop

00003280 <paint_internal>:
    3280:	55                   	push   %ebp
    3281:	89 e5                	mov    %esp,%ebp
    3283:	57                   	push   %edi
    3284:	56                   	push   %esi
    3285:	53                   	push   %ebx
    3286:	81 ec fc 00 00 00    	sub    $0xfc,%esp
    328c:	89 c6                	mov    %eax,%esi
    328e:	8b 58 14             	mov    0x14(%eax),%ebx
    3291:	8d 93 90 00 00 00    	lea    0x90(%ebx),%edx
    3297:	89 14 24             	mov    %edx,(%esp)
    329a:	e8 81 b3 00 00       	call   e620 <fibril_mutex_lock>
    329f:	8b 9b a0 00 00 00    	mov    0xa0(%ebx),%ebx
    32a5:	85 db                	test   %ebx,%ebx
    32a7:	0f 84 ab 02 00 00    	je     3558 <paint_internal+0x2d8>
    32ad:	8d 7d 84             	lea    -0x7c(%ebp),%edi
    32b0:	89 3c 24             	mov    %edi,(%esp)
    32b3:	e8 c8 1d 00 00       	call   5080 <source_init>
    32b8:	8d 85 3c ff ff ff    	lea    -0xc4(%ebp),%eax
    32be:	89 04 24             	mov    %eax,(%esp)
    32c1:	c7 44 24 0c 10 00 00 	movl   $0x10,0xc(%esp)
    32c8:	00 
    32c9:	c7 44 24 08 00 00 00 	movl   $0x0,0x8(%esp)
    32d0:	00 
    32d1:	c7 44 24 04 00 00 00 	movl   $0x0,0x4(%esp)
    32d8:	00 
    32d9:	e8 62 19 00 00       	call   4c40 <font_init>
    32de:	89 5c 24 04          	mov    %ebx,0x4(%esp)
    32e2:	8d 9d 4c ff ff ff    	lea    -0xb4(%ebp),%ebx
    32e8:	89 1c 24             	mov    %ebx,(%esp)
    32eb:	e8 40 14 00 00       	call   4730 <drawctx_init>
    32f0:	89 7c 24 04          	mov    %edi,0x4(%esp)
    32f4:	89 1c 24             	mov    %ebx,(%esp)
    32f7:	e8 24 16 00 00       	call   4920 <drawctx_set_source>
    32fc:	8d 85 3c ff ff ff    	lea    -0xc4(%ebp),%eax
    3302:	89 44 24 04          	mov    %eax,0x4(%esp)
    3306:	89 1c 24             	mov    %ebx,(%esp)
    3309:	e8 22 16 00 00       	call   4930 <drawctx_set_font>
    330e:	89 3c 24             	mov    %edi,(%esp)
    3311:	c7 44 24 04 00 00 00 	movl   $0xff000000,0x4(%esp)
    3318:	ff 
    3319:	e8 f2 1d 00 00       	call   5110 <source_set_color>
    331e:	8b 56 24             	mov    0x24(%esi),%edx
    3321:	89 54 24 10          	mov    %edx,0x10(%esp)
    3325:	8b 56 1c             	mov    0x1c(%esi),%edx
    3328:	89 54 24 08          	mov    %edx,0x8(%esp)
    332c:	8b 56 18             	mov    0x18(%esi),%edx
    332f:	89 54 24 04          	mov    %edx,0x4(%esp)
    3333:	c7 44 24 0c 05 00 00 	movl   $0x5,0xc(%esp)
    333a:	00 
    333b:	89 1c 24             	mov    %ebx,(%esp)
    333e:	e8 fd 15 00 00       	call   4940 <drawctx_transfer>
    3343:	8b 56 24             	mov    0x24(%esi),%edx
    3346:	89 54 24 10          	mov    %edx,0x10(%esp)
    334a:	8b 56 1c             	mov    0x1c(%esi),%edx
    334d:	8b 46 20             	mov    0x20(%esi),%eax
    3350:	89 54 24 08          	mov    %edx,0x8(%esp)
    3354:	8b 56 18             	mov    0x18(%esi),%edx
    3357:	c7 44 24 0c 05 00 00 	movl   $0x5,0xc(%esp)
    335e:	00 
    335f:	01 c2                	add    %eax,%edx
    3361:	89 1c 24             	mov    %ebx,(%esp)
    3364:	83 ea 05             	sub    $0x5,%edx
    3367:	89 54 24 04          	mov    %edx,0x4(%esp)
    336b:	e8 d0 15 00 00       	call   4940 <drawctx_transfer>
    3370:	8b 56 20             	mov    0x20(%esi),%edx
    3373:	89 54 24 0c          	mov    %edx,0xc(%esp)
    3377:	8b 56 1c             	mov    0x1c(%esi),%edx
    337a:	89 54 24 08          	mov    %edx,0x8(%esp)
    337e:	8b 56 18             	mov    0x18(%esi),%edx
    3381:	89 54 24 04          	mov    %edx,0x4(%esp)
    3385:	c7 44 24 10 05 00 00 	movl   $0x5,0x10(%esp)
    338c:	00 
    338d:	89 1c 24             	mov    %ebx,(%esp)
    3390:	e8 ab 15 00 00       	call   4940 <drawctx_transfer>
    3395:	8b 56 20             	mov    0x20(%esi),%edx
    3398:	8b 46 24             	mov    0x24(%esi),%eax
    339b:	89 54 24 0c          	mov    %edx,0xc(%esp)
    339f:	8b 56 1c             	mov    0x1c(%esi),%edx
    33a2:	c7 44 24 10 05 00 00 	movl   $0x5,0x10(%esp)
    33a9:	00 
    33aa:	01 c2                	add    %eax,%edx
    33ac:	89 1c 24             	mov    %ebx,(%esp)
    33af:	83 ea 05             	sub    $0x5,%edx
    33b2:	89 54 24 08          	mov    %edx,0x8(%esp)
    33b6:	8b 56 18             	mov    0x18(%esi),%edx
    33b9:	89 54 24 04          	mov    %edx,0x4(%esp)
    33bd:	e8 7e 15 00 00       	call   4940 <drawctx_transfer>
    33c2:	8b 56 14             	mov    0x14(%esi),%edx
    33c5:	80 7a 02 01          	cmpb   $0x1,0x2(%edx)
    33c9:	19 d2                	sbb    %edx,%edx
    33cb:	89 3c 24             	mov    %edi,(%esp)
    33ce:	81 e2 44 69 2d 00    	and    $0x2d6944,%edx
    33d4:	81 ea 90 e6 e6 00    	sub    $0xe6e690,%edx
    33da:	89 54 24 04          	mov    %edx,0x4(%esp)
    33de:	e8 2d 1d 00 00       	call   5110 <source_set_color>
    33e3:	8b 56 20             	mov    0x20(%esi),%edx
    33e6:	83 ea 0a             	sub    $0xa,%edx
    33e9:	c7 44 24 10 14 00 00 	movl   $0x14,0x10(%esp)
    33f0:	00 
    33f1:	89 54 24 0c          	mov    %edx,0xc(%esp)
    33f5:	8b 56 1c             	mov    0x1c(%esi),%edx
    33f8:	83 c2 05             	add    $0x5,%edx
    33fb:	89 1c 24             	mov    %ebx,(%esp)
    33fe:	89 54 24 08          	mov    %edx,0x8(%esp)
    3402:	8b 56 18             	mov    0x18(%esi),%edx
    3405:	83 c2 05             	add    $0x5,%edx
    3408:	89 54 24 04          	mov    %edx,0x4(%esp)
    340c:	e8 2f 15 00 00       	call   4940 <drawctx_transfer>
    3411:	8d 95 30 ff ff ff    	lea    -0xd0(%ebp),%edx
    3417:	89 54 24 0c          	mov    %edx,0xc(%esp)
    341b:	8d 95 2c ff ff ff    	lea    -0xd4(%ebp),%edx
    3421:	89 54 24 08          	mov    %edx,0x8(%esp)
    3425:	8b 56 14             	mov    0x14(%esi),%edx
    3428:	8d 85 3c ff ff ff    	lea    -0xc4(%ebp),%eax
    342e:	8b 52 04             	mov    0x4(%edx),%edx
    3431:	89 04 24             	mov    %eax,(%esp)
    3434:	89 54 24 04          	mov    %edx,0x4(%esp)
    3438:	e8 33 19 00 00       	call   4d70 <font_get_box>
    343d:	8d 95 38 ff ff ff    	lea    -0xc8(%ebp),%edx
    3443:	8d 8d 2a ff ff ff    	lea    -0xd6(%ebp),%ecx
    3449:	8d 85 3c ff ff ff    	lea    -0xc4(%ebp),%eax
    344f:	89 54 24 0c          	mov    %edx,0xc(%esp)
    3453:	8d 95 34 ff ff ff    	lea    -0xcc(%ebp),%edx
    3459:	89 54 24 08          	mov    %edx,0x8(%esp)
    345d:	89 4c 24 04          	mov    %ecx,0x4(%esp)
    3461:	89 04 24             	mov    %eax,(%esp)
    3464:	89 8d 24 ff ff ff    	mov    %ecx,-0xdc(%ebp)
    346a:	66 c7 85 2a ff ff ff 	movw   $0x78,-0xd6(%ebp)
    3471:	78 00 
    3473:	e8 f8 18 00 00       	call   4d70 <font_get_box>
    3478:	89 3c 24             	mov    %edi,(%esp)
    347b:	c7 44 24 04 ff ff ff 	movl   $0xffffffff,0x4(%esp)
    3482:	ff 
    3483:	e8 88 1c 00 00       	call   5110 <source_set_color>
    3488:	b8 14 00 00 00       	mov    $0x14,%eax
    348d:	89 c2                	mov    %eax,%edx
    348f:	8b 8d 38 ff ff ff    	mov    -0xc8(%ebp),%ecx
    3495:	29 ca                	sub    %ecx,%edx
    3497:	8b 7e 1c             	mov    0x1c(%esi),%edi
    349a:	d1 ea                	shr    %edx
    349c:	8b 8d 34 ff ff ff    	mov    -0xcc(%ebp),%ecx
    34a2:	89 1c 24             	mov    %ebx,(%esp)
    34a5:	8d 54 17 05          	lea    0x5(%edi,%edx,1),%edx
    34a9:	8b 7e 18             	mov    0x18(%esi),%edi
    34ac:	89 54 24 0c          	mov    %edx,0xc(%esp)
    34b0:	8b 56 20             	mov    0x20(%esi),%edx
    34b3:	01 d7                	add    %edx,%edi
    34b5:	89 c2                	mov    %eax,%edx
    34b7:	29 ca                	sub    %ecx,%edx
    34b9:	8b 8d 24 ff ff ff    	mov    -0xdc(%ebp),%ecx
    34bf:	d1 ea                	shr    %edx
    34c1:	89 4c 24 04          	mov    %ecx,0x4(%esp)
    34c5:	89 85 24 ff ff ff    	mov    %eax,-0xdc(%ebp)
    34cb:	8d 54 17 e7          	lea    -0x19(%edi,%edx,1),%edx
    34cf:	89 54 24 08          	mov    %edx,0x8(%esp)
    34d3:	e8 18 17 00 00       	call   4bf0 <drawctx_print>
    34d8:	8b 95 2c ff ff ff    	mov    -0xd4(%ebp),%edx
    34de:	8b 4e 20             	mov    0x20(%esi),%ecx
    34e1:	8d 7a 1e             	lea    0x1e(%edx),%edi
    34e4:	39 f9                	cmp    %edi,%ecx
    34e6:	8b 85 24 ff ff ff    	mov    -0xdc(%ebp),%eax
    34ec:	72 3a                	jb     3528 <paint_internal+0x2a8>
    34ee:	29 d1                	sub    %edx,%ecx
    34f0:	89 c7                	mov    %eax,%edi
    34f2:	8b 85 30 ff ff ff    	mov    -0xd0(%ebp),%eax
    34f8:	8b 56 18             	mov    0x18(%esi),%edx
    34fb:	d1 e9                	shr    %ecx
    34fd:	29 c7                	sub    %eax,%edi
    34ff:	d1 ef                	shr    %edi
    3501:	01 d1                	add    %edx,%ecx
    3503:	8b 56 1c             	mov    0x1c(%esi),%edx
    3506:	8d 7c 3a 05          	lea    0x5(%edx,%edi,1),%edi
    350a:	8b 56 14             	mov    0x14(%esi),%edx
    350d:	8b 52 04             	mov    0x4(%edx),%edx
    3510:	85 d2                	test   %edx,%edx
    3512:	74 14                	je     3528 <paint_internal+0x2a8>
    3514:	89 7c 24 0c          	mov    %edi,0xc(%esp)
    3518:	89 4c 24 08          	mov    %ecx,0x8(%esp)
    351c:	89 54 24 04          	mov    %edx,0x4(%esp)
    3520:	89 1c 24             	mov    %ebx,(%esp)
    3523:	e8 c8 16 00 00       	call   4bf0 <drawctx_print>
    3528:	8d 85 3c ff ff ff    	lea    -0xc4(%ebp),%eax
    352e:	89 04 24             	mov    %eax,(%esp)
    3531:	e8 ca 17 00 00       	call   4d00 <font_release>
    3536:	8b 46 14             	mov    0x14(%esi),%eax
    3539:	05 90 00 00 00       	add    $0x90,%eax
    353e:	89 04 24             	mov    %eax,(%esp)
    3541:	e8 fa b1 00 00       	call   e740 <fibril_mutex_unlock>
    3546:	81 c4 fc 00 00 00    	add    $0xfc,%esp
    354c:	5b                   	pop    %ebx
    354d:	5e                   	pop    %esi
    354e:	5f                   	pop    %edi
    354f:	5d                   	pop    %ebp
    3550:	c3                   	ret    
    3551:	8d b4 26 00 00 00 00 	lea    0x0(%esi,%eiz,1),%esi
    3558:	8b 56 14             	mov    0x14(%esi),%edx
    355b:	81 c2 90 00 00 00    	add    $0x90,%edx
    3561:	89 14 24             	mov    %edx,(%esp)
    3564:	e8 d7 b1 00 00       	call   e740 <fibril_mutex_unlock>
    3569:	e9 3f fd ff ff       	jmp    32ad <paint_internal+0x2d>
    356e:	66 90                	xchg   %ax,%ax

00003570 <root_rearrange>:
    3570:	55                   	push   %ebp
    3571:	89 e5                	mov    %esp,%ebp
    3573:	57                   	push   %edi
    3574:	56                   	push   %esi
    3575:	53                   	push   %ebx
    3576:	83 ec 3c             	sub    $0x3c,%esp
    3579:	8b 45 10             	mov    0x10(%ebp),%eax
    357c:	8b 4d 08             	mov    0x8(%ebp),%ecx
    357f:	8b 75 14             	mov    0x14(%ebp),%esi
    3582:	8b 7d 18             	mov    0x18(%ebp),%edi
    3585:	89 44 24 08          	mov    %eax,0x8(%esp)
    3589:	8b 45 0c             	mov    0xc(%ebp),%eax
    358c:	89 44 24 04          	mov    %eax,0x4(%esp)
    3590:	89 0c 24             	mov    %ecx,(%esp)
    3593:	89 7c 24 10          	mov    %edi,0x10(%esp)
    3597:	89 74 24 0c          	mov    %esi,0xc(%esp)
    359b:	89 4d d8             	mov    %ecx,-0x28(%ebp)
    359e:	e8 ad f7 ff ff       	call   2d50 <widget_modify>
    35a3:	8b 4d d8             	mov    -0x28(%ebp),%ecx
    35a6:	8b 41 14             	mov    0x14(%ecx),%eax
    35a9:	80 78 01 00          	cmpb   $0x0,0x1(%eax)
    35ad:	75 41                	jne    35f0 <root_rearrange+0x80>
    35af:	8b 59 10             	mov    0x10(%ecx),%ebx
    35b2:	83 c1 0c             	add    $0xc,%ecx
    35b5:	89 4d dc             	mov    %ecx,-0x24(%ebp)
    35b8:	39 cb                	cmp    %ecx,%ebx
    35ba:	74 28                	je     35e4 <root_rearrange+0x74>
    35bc:	8d 74 26 00          	lea    0x0(%esi,%eiz,1),%esi
    35c0:	8b 45 10             	mov    0x10(%ebp),%eax
    35c3:	89 1c 24             	mov    %ebx,(%esp)
    35c6:	89 44 24 08          	mov    %eax,0x8(%esp)
    35ca:	8b 45 0c             	mov    0xc(%ebp),%eax
    35cd:	89 7c 24 10          	mov    %edi,0x10(%esp)
    35d1:	89 74 24 0c          	mov    %esi,0xc(%esp)
    35d5:	89 44 24 04          	mov    %eax,0x4(%esp)
    35d9:	ff 53 48             	call   *0x48(%ebx)
    35dc:	8b 5b 04             	mov    0x4(%ebx),%ebx
    35df:	3b 5d dc             	cmp    -0x24(%ebp),%ebx
    35e2:	75 dc                	jne    35c0 <root_rearrange+0x50>
    35e4:	83 c4 3c             	add    $0x3c,%esp
    35e7:	5b                   	pop    %ebx
    35e8:	5e                   	pop    %esi
    35e9:	5f                   	pop    %edi
    35ea:	5d                   	pop    %ebp
    35eb:	c3                   	ret    
    35ec:	8d 74 26 00          	lea    0x0(%esi,%eiz,1),%esi
    35f0:	89 c8                	mov    %ecx,%eax
    35f2:	e8 89 fc ff ff       	call   3280 <paint_internal>
    35f7:	8b 4d d8             	mov    -0x28(%ebp),%ecx
    35fa:	8b 59 10             	mov    0x10(%ecx),%ebx
    35fd:	83 c1 0c             	add    $0xc,%ecx
    3600:	89 4d dc             	mov    %ecx,-0x24(%ebp)
    3603:	39 cb                	cmp    %ecx,%ebx
    3605:	74 dd                	je     35e4 <root_rearrange+0x74>
    3607:	8b 45 10             	mov    0x10(%ebp),%eax
    360a:	83 ef 1e             	sub    $0x1e,%edi
    360d:	83 c0 19             	add    $0x19,%eax
    3610:	83 ee 0a             	sub    $0xa,%esi
    3613:	89 45 e0             	mov    %eax,-0x20(%ebp)
    3616:	8b 45 0c             	mov    0xc(%ebp),%eax
    3619:	83 c0 05             	add    $0x5,%eax
    361c:	89 45 e4             	mov    %eax,-0x1c(%ebp)
    361f:	90                   	nop
    3620:	8b 45 e0             	mov    -0x20(%ebp),%eax
    3623:	89 1c 24             	mov    %ebx,(%esp)
    3626:	89 44 24 08          	mov    %eax,0x8(%esp)
    362a:	8b 45 e4             	mov    -0x1c(%ebp),%eax
    362d:	89 7c 24 10          	mov    %edi,0x10(%esp)
    3631:	89 74 24 0c          	mov    %esi,0xc(%esp)
    3635:	89 44 24 04          	mov    %eax,0x4(%esp)
    3639:	ff 53 48             	call   *0x48(%ebx)
    363c:	8b 5b 04             	mov    0x4(%ebx),%ebx
    363f:	39 5d dc             	cmp    %ebx,-0x24(%ebp)
    3642:	75 dc                	jne    3620 <root_rearrange+0xb0>
    3644:	83 c4 3c             	add    $0x3c,%esp
    3647:	5b                   	pop    %ebx
    3648:	5e                   	pop    %esi
    3649:	5f                   	pop    %edi
    364a:	5d                   	pop    %ebp
    364b:	c3                   	ret    
    364c:	8d 74 26 00          	lea    0x0(%esi,%eiz,1),%esi

00003650 <destroy_children>:
    3650:	55                   	push   %ebp
    3651:	89 e5                	mov    %esp,%ebp
    3653:	57                   	push   %edi
    3654:	56                   	push   %esi
    3655:	53                   	push   %ebx
    3656:	83 ec 5c             	sub    $0x5c,%esp
    3659:	89 45 c0             	mov    %eax,-0x40(%ebp)
    365c:	8b 40 10             	mov    0x10(%eax),%eax
    365f:	89 45 d4             	mov    %eax,-0x2c(%ebp)
    3662:	8b 45 c0             	mov    -0x40(%ebp),%eax
    3665:	83 c0 0c             	add    $0xc,%eax
    3668:	89 45 bc             	mov    %eax,-0x44(%ebp)
    366b:	39 45 d4             	cmp    %eax,-0x2c(%ebp)
    366e:	0f 84 b7 01 00 00    	je     382b <destroy_children+0x1db>
    3674:	8b 45 d4             	mov    -0x2c(%ebp),%eax
    3677:	8b 40 10             	mov    0x10(%eax),%eax
    367a:	89 45 d0             	mov    %eax,-0x30(%ebp)
    367d:	8b 45 d4             	mov    -0x2c(%ebp),%eax
    3680:	83 c0 0c             	add    $0xc,%eax
    3683:	89 45 ac             	mov    %eax,-0x54(%ebp)
    3686:	39 45 d0             	cmp    %eax,-0x30(%ebp)
    3689:	0f 84 7e 01 00 00    	je     380d <destroy_children+0x1bd>
    368f:	8b 45 d0             	mov    -0x30(%ebp),%eax
    3692:	8b 40 10             	mov    0x10(%eax),%eax
    3695:	89 45 cc             	mov    %eax,-0x34(%ebp)
    3698:	8b 45 d0             	mov    -0x30(%ebp),%eax
    369b:	83 c0 0c             	add    $0xc,%eax
    369e:	89 45 b0             	mov    %eax,-0x50(%ebp)
    36a1:	39 45 cc             	cmp    %eax,-0x34(%ebp)
    36a4:	0f 84 45 01 00 00    	je     37ef <destroy_children+0x19f>
    36aa:	8b 45 cc             	mov    -0x34(%ebp),%eax
    36ad:	8b 40 10             	mov    0x10(%eax),%eax
    36b0:	89 45 c8             	mov    %eax,-0x38(%ebp)
    36b3:	8b 45 cc             	mov    -0x34(%ebp),%eax
    36b6:	83 c0 0c             	add    $0xc,%eax
    36b9:	89 45 b4             	mov    %eax,-0x4c(%ebp)
    36bc:	39 45 c8             	cmp    %eax,-0x38(%ebp)
    36bf:	0f 84 0c 01 00 00    	je     37d1 <destroy_children+0x181>
    36c5:	8b 45 c8             	mov    -0x38(%ebp),%eax
    36c8:	8b 40 10             	mov    0x10(%eax),%eax
    36cb:	89 45 c4             	mov    %eax,-0x3c(%ebp)
    36ce:	8b 45 c8             	mov    -0x38(%ebp),%eax
    36d1:	83 c0 0c             	add    $0xc,%eax
    36d4:	89 45 b8             	mov    %eax,-0x48(%ebp)
    36d7:	39 45 c4             	cmp    %eax,-0x3c(%ebp)
    36da:	0f 84 d3 00 00 00    	je     37b3 <destroy_children+0x163>
    36e0:	8b 45 c4             	mov    -0x3c(%ebp),%eax
    36e3:	8b 40 10             	mov    0x10(%eax),%eax
    36e6:	89 45 dc             	mov    %eax,-0x24(%ebp)
    36e9:	8b 45 c4             	mov    -0x3c(%ebp),%eax
    36ec:	83 c0 0c             	add    $0xc,%eax
    36ef:	89 45 a8             	mov    %eax,-0x58(%ebp)
    36f2:	39 45 dc             	cmp    %eax,-0x24(%ebp)
    36f5:	0f 84 9a 00 00 00    	je     3795 <destroy_children+0x145>
    36fb:	8b 45 dc             	mov    -0x24(%ebp),%eax
    36fe:	8b 40 10             	mov    0x10(%eax),%eax
    3701:	89 45 e4             	mov    %eax,-0x1c(%ebp)
    3704:	8b 45 dc             	mov    -0x24(%ebp),%eax
    3707:	83 c0 0c             	add    $0xc,%eax
    370a:	89 45 d8             	mov    %eax,-0x28(%ebp)
    370d:	39 45 e4             	cmp    %eax,-0x1c(%ebp)
    3710:	74 65                	je     3777 <destroy_children+0x127>
    3712:	8b 45 e4             	mov    -0x1c(%ebp),%eax
    3715:	8b 58 10             	mov    0x10(%eax),%ebx
    3718:	83 c0 0c             	add    $0xc,%eax
    371b:	89 45 e0             	mov    %eax,-0x20(%ebp)
    371e:	39 c3                	cmp    %eax,%ebx
    3720:	74 3b                	je     375d <destroy_children+0x10d>
    3722:	8d b6 00 00 00 00    	lea    0x0(%esi),%esi
    3728:	8b 7b 10             	mov    0x10(%ebx),%edi
    372b:	8d 73 0c             	lea    0xc(%ebx),%esi
    372e:	39 f7                	cmp    %esi,%edi
    3730:	74 1a                	je     374c <destroy_children+0xfc>
    3732:	8d b6 00 00 00 00    	lea    0x0(%esi),%esi
    3738:	89 f8                	mov    %edi,%eax
    373a:	e8 11 ff ff ff       	call   3650 <destroy_children>
    373f:	89 3c 24             	mov    %edi,(%esp)
    3742:	ff 57 40             	call   *0x40(%edi)
    3745:	8b 7b 10             	mov    0x10(%ebx),%edi
    3748:	39 f7                	cmp    %esi,%edi
    374a:	75 ec                	jne    3738 <destroy_children+0xe8>
    374c:	89 1c 24             	mov    %ebx,(%esp)
    374f:	ff 53 40             	call   *0x40(%ebx)
    3752:	8b 45 e4             	mov    -0x1c(%ebp),%eax
    3755:	8b 58 10             	mov    0x10(%eax),%ebx
    3758:	3b 5d e0             	cmp    -0x20(%ebp),%ebx
    375b:	75 cb                	jne    3728 <destroy_children+0xd8>
    375d:	8b 45 e4             	mov    -0x1c(%ebp),%eax
    3760:	89 04 24             	mov    %eax,(%esp)
    3763:	ff 50 40             	call   *0x40(%eax)
    3766:	8b 45 dc             	mov    -0x24(%ebp),%eax
    3769:	8b 40 10             	mov    0x10(%eax),%eax
    376c:	89 45 e4             	mov    %eax,-0x1c(%ebp)
    376f:	8b 45 d8             	mov    -0x28(%ebp),%eax
    3772:	39 45 e4             	cmp    %eax,-0x1c(%ebp)
    3775:	75 9b                	jne    3712 <destroy_children+0xc2>
    3777:	8b 45 dc             	mov    -0x24(%ebp),%eax
    377a:	89 04 24             	mov    %eax,(%esp)
    377d:	ff 50 40             	call   *0x40(%eax)
    3780:	8b 45 c4             	mov    -0x3c(%ebp),%eax
    3783:	8b 40 10             	mov    0x10(%eax),%eax
    3786:	89 45 dc             	mov    %eax,-0x24(%ebp)
    3789:	8b 45 a8             	mov    -0x58(%ebp),%eax
    378c:	39 45 dc             	cmp    %eax,-0x24(%ebp)
    378f:	0f 85 66 ff ff ff    	jne    36fb <destroy_children+0xab>
    3795:	8b 45 c4             	mov    -0x3c(%ebp),%eax
    3798:	89 04 24             	mov    %eax,(%esp)
    379b:	ff 50 40             	call   *0x40(%eax)
    379e:	8b 45 c8             	mov    -0x38(%ebp),%eax
    37a1:	8b 40 10             	mov    0x10(%eax),%eax
    37a4:	89 45 c4             	mov    %eax,-0x3c(%ebp)
    37a7:	8b 45 b8             	mov    -0x48(%ebp),%eax
    37aa:	39 45 c4             	cmp    %eax,-0x3c(%ebp)
    37ad:	0f 85 2d ff ff ff    	jne    36e0 <destroy_children+0x90>
    37b3:	8b 45 c8             	mov    -0x38(%ebp),%eax
    37b6:	89 04 24             	mov    %eax,(%esp)
    37b9:	ff 50 40             	call   *0x40(%eax)
    37bc:	8b 45 cc             	mov    -0x34(%ebp),%eax
    37bf:	8b 40 10             	mov    0x10(%eax),%eax
    37c2:	89 45 c8             	mov    %eax,-0x38(%ebp)
    37c5:	8b 45 b4             	mov    -0x4c(%ebp),%eax
    37c8:	39 45 c8             	cmp    %eax,-0x38(%ebp)
    37cb:	0f 85 f4 fe ff ff    	jne    36c5 <destroy_children+0x75>
    37d1:	8b 45 cc             	mov    -0x34(%ebp),%eax
    37d4:	89 04 24             	mov    %eax,(%esp)
    37d7:	ff 50 40             	call   *0x40(%eax)
    37da:	8b 45 d0             	mov    -0x30(%ebp),%eax
    37dd:	8b 40 10             	mov    0x10(%eax),%eax
    37e0:	89 45 cc             	mov    %eax,-0x34(%ebp)
    37e3:	8b 45 b0             	mov    -0x50(%ebp),%eax
    37e6:	39 45 cc             	cmp    %eax,-0x34(%ebp)
    37e9:	0f 85 bb fe ff ff    	jne    36aa <destroy_children+0x5a>
    37ef:	8b 45 d0             	mov    -0x30(%ebp),%eax
    37f2:	89 04 24             	mov    %eax,(%esp)
    37f5:	ff 50 40             	call   *0x40(%eax)
    37f8:	8b 45 d4             	mov    -0x2c(%ebp),%eax
    37fb:	8b 40 10             	mov    0x10(%eax),%eax
    37fe:	89 45 d0             	mov    %eax,-0x30(%ebp)
    3801:	8b 45 ac             	mov    -0x54(%ebp),%eax
    3804:	39 45 d0             	cmp    %eax,-0x30(%ebp)
    3807:	0f 85 82 fe ff ff    	jne    368f <destroy_children+0x3f>
    380d:	8b 45 d4             	mov    -0x2c(%ebp),%eax
    3810:	89 04 24             	mov    %eax,(%esp)
    3813:	ff 50 40             	call   *0x40(%eax)
    3816:	8b 45 c0             	mov    -0x40(%ebp),%eax
    3819:	8b 40 10             	mov    0x10(%eax),%eax
    381c:	89 45 d4             	mov    %eax,-0x2c(%ebp)
    381f:	8b 45 bc             	mov    -0x44(%ebp),%eax
    3822:	39 45 d4             	cmp    %eax,-0x2c(%ebp)
    3825:	0f 85 49 fe ff ff    	jne    3674 <destroy_children+0x24>
    382b:	83 c4 5c             	add    $0x5c,%esp
    382e:	5b                   	pop    %ebx
    382f:	5e                   	pop    %esi
    3830:	5f                   	pop    %edi
    3831:	5d                   	pop    %ebp
    3832:	c3                   	ret    
    3833:	8d b6 00 00 00 00    	lea    0x0(%esi),%esi
    3839:	8d bc 27 00 00 00 00 	lea    0x0(%edi,%eiz,1),%edi

00003840 <event_loop>:
    3840:	55                   	push   %ebp
    3841:	89 e5                	mov    %esp,%ebp
    3843:	57                   	push   %edi
    3844:	56                   	push   %esi
    3845:	53                   	push   %ebx
    3846:	81 ec 8c 00 00 00    	sub    $0x8c,%esp
    384c:	8b 55 08             	mov    0x8(%ebp),%edx
    384f:	83 c2 10             	add    $0x10,%edx
    3852:	89 55 a4             	mov    %edx,-0x5c(%ebp)
    3855:	8b 55 08             	mov    0x8(%ebp),%edx
    3858:	83 c2 30             	add    $0x30,%edx
    385b:	89 55 a0             	mov    %edx,-0x60(%ebp)
    385e:	8b 55 08             	mov    0x8(%ebp),%edx
    3861:	81 c2 90 00 00 00    	add    $0x90,%edx
    3867:	89 55 9c             	mov    %edx,-0x64(%ebp)
    386a:	8d b6 00 00 00 00    	lea    0x0(%esi),%esi
    3870:	8b 55 a4             	mov    -0x5c(%ebp),%edx
    3873:	89 14 24             	mov    %edx,(%esp)
    3876:	e8 55 a7 01 00       	call   1dfd0 <prodcons_consume>
    387b:	89 c3                	mov    %eax,%ebx
    387d:	83 78 08 08          	cmpl   $0x8,0x8(%eax)
    3881:	0f 87 a9 00 00 00    	ja     3930 <event_loop+0xf0>
    3887:	8b 40 08             	mov    0x8(%eax),%eax
    388a:	ff 24 85 58 44 02 00 	jmp    *0x24458(,%eax,4)
    3891:	8d b4 26 00 00 00 00 	lea    0x0(%esi,%eiz,1),%esi
    3898:	8b 55 9c             	mov    -0x64(%ebp),%edx
    389b:	89 14 24             	mov    %edx,(%esp)
    389e:	e8 7d ad 00 00       	call   e620 <fibril_mutex_lock>
    38a3:	8d 45 b4             	lea    -0x4c(%ebp),%eax
    38a6:	89 44 24 0c          	mov    %eax,0xc(%esp)
    38aa:	8d 45 b0             	lea    -0x50(%ebp),%eax
    38ad:	8d 4d b8             	lea    -0x48(%ebp),%ecx
    38b0:	89 44 24 08          	mov    %eax,0x8(%esp)
    38b4:	8b 55 08             	mov    0x8(%ebp),%edx
    38b7:	8d 45 ac             	lea    -0x54(%ebp),%eax
    38ba:	89 4c 24 10          	mov    %ecx,0x10(%esp)
    38be:	89 44 24 04          	mov    %eax,0x4(%esp)
    38c2:	8b 82 a0 00 00 00    	mov    0xa0(%edx),%eax
    38c8:	89 04 24             	mov    %eax,(%esp)
    38cb:	e8 e0 1c 00 00       	call   55b0 <surface_get_damaged_region>
    38d0:	8b 55 08             	mov    0x8(%ebp),%edx
    38d3:	8b 82 a0 00 00 00    	mov    0xa0(%edx),%eax
    38d9:	89 04 24             	mov    %eax,(%esp)
    38dc:	e8 0f 1e 00 00       	call   56f0 <surface_reset_damaged_region>
    38e1:	8b 55 9c             	mov    -0x64(%ebp),%edx
    38e4:	89 14 24             	mov    %edx,(%esp)
    38e7:	e8 54 ae 00 00       	call   e740 <fibril_mutex_unlock>
    38ec:	8b 45 b4             	mov    -0x4c(%ebp),%eax
    38ef:	85 c0                	test   %eax,%eax
    38f1:	74 3d                	je     3930 <event_loop+0xf0>
    38f3:	8b 55 b8             	mov    -0x48(%ebp),%edx
    38f6:	85 d2                	test   %edx,%edx
    38f8:	74 36                	je     3930 <event_loop+0xf0>
    38fa:	89 44 24 0c          	mov    %eax,0xc(%esp)
    38fe:	8b 45 b0             	mov    -0x50(%ebp),%eax
    3901:	89 54 24 10          	mov    %edx,0x10(%esp)
    3905:	89 44 24 08          	mov    %eax,0x8(%esp)
    3909:	8b 55 08             	mov    0x8(%ebp),%edx
    390c:	8b 45 ac             	mov    -0x54(%ebp),%eax
    390f:	89 44 24 04          	mov    %eax,0x4(%esp)
    3913:	8b 42 0c             	mov    0xc(%edx),%eax
    3916:	89 04 24             	mov    %eax,(%esp)
    3919:	e8 c2 19 01 00       	call   152e0 <win_damage>
    391e:	eb 10                	jmp    3930 <event_loop+0xf0>
    3920:	8b 55 a0             	mov    -0x60(%ebp),%edx
    3923:	89 14 24             	mov    %edx,(%esp)
    3926:	8b 55 08             	mov    0x8(%ebp),%edx
    3929:	ff 52 7c             	call   *0x7c(%edx)
    392c:	8d 74 26 00          	lea    0x0(%esi,%eiz,1),%esi
    3930:	89 1c 24             	mov    %ebx,(%esp)
    3933:	e8 c8 3f 01 00       	call   17900 <free>
    3938:	e9 33 ff ff ff       	jmp    3870 <event_loop+0x30>
    393d:	8d 76 00             	lea    0x0(%esi),%esi
    3940:	8b 73 0c             	mov    0xc(%ebx),%esi
    3943:	8b 7b 10             	mov    0x10(%ebx),%edi
    3946:	83 fe 31             	cmp    $0x31,%esi
    3949:	0f 86 91 03 00 00    	jbe    3ce0 <event_loop+0x4a0>
    394f:	83 ff 1d             	cmp    $0x1d,%edi
    3952:	0f 86 88 03 00 00    	jbe    3ce0 <event_loop+0x4a0>
    3958:	c7 44 24 0c 01 00 00 	movl   $0x1,0xc(%esp)
    395f:	00 
    3960:	c7 44 24 08 00 00 00 	movl   $0x0,0x8(%esp)
    3967:	00 
    3968:	89 7c 24 04          	mov    %edi,0x4(%esp)
    396c:	89 34 24             	mov    %esi,(%esp)
    396f:	e8 7c 1a 00 00       	call   53f0 <surface_create>
    3974:	85 c0                	test   %eax,%eax
    3976:	74 b8                	je     3930 <event_loop+0xf0>
    3978:	8b 55 9c             	mov    -0x64(%ebp),%edx
    397b:	89 45 94             	mov    %eax,-0x6c(%ebp)
    397e:	89 14 24             	mov    %edx,(%esp)
    3981:	e8 9a ac 00 00       	call   e620 <fibril_mutex_lock>
    3986:	8b 55 08             	mov    0x8(%ebp),%edx
    3989:	8b 92 a0 00 00 00    	mov    0xa0(%edx),%edx
    398f:	8b 45 94             	mov    -0x6c(%ebp),%eax
    3992:	89 55 98             	mov    %edx,-0x68(%ebp)
    3995:	8b 55 08             	mov    0x8(%ebp),%edx
    3998:	89 82 a0 00 00 00    	mov    %eax,0xa0(%edx)
    399e:	8b 55 9c             	mov    -0x64(%ebp),%edx
    39a1:	89 14 24             	mov    %edx,(%esp)
    39a4:	e8 97 ad 00 00       	call   e740 <fibril_mutex_unlock>
    39a9:	8b 55 a0             	mov    -0x60(%ebp),%edx
    39ac:	89 14 24             	mov    %edx,(%esp)
    39af:	8b 55 08             	mov    0x8(%ebp),%edx
    39b2:	89 7c 24 10          	mov    %edi,0x10(%esp)
    39b6:	89 74 24 0c          	mov    %esi,0xc(%esp)
    39ba:	c7 44 24 08 00 00 00 	movl   $0x0,0x8(%esp)
    39c1:	00 
    39c2:	c7 44 24 04 00 00 00 	movl   $0x0,0x4(%esp)
    39c9:	00 
    39ca:	ff 52 78             	call   *0x78(%edx)
    39cd:	8b 55 9c             	mov    -0x64(%ebp),%edx
    39d0:	89 14 24             	mov    %edx,(%esp)
    39d3:	e8 48 ac 00 00       	call   e620 <fibril_mutex_lock>
    39d8:	8b 55 08             	mov    0x8(%ebp),%edx
    39db:	8b 8a a0 00 00 00    	mov    0xa0(%edx),%ecx
    39e1:	89 0c 24             	mov    %ecx,(%esp)
    39e4:	e8 07 1d 00 00       	call   56f0 <surface_reset_damaged_region>
    39e9:	8b 55 9c             	mov    -0x64(%ebp),%edx
    39ec:	89 14 24             	mov    %edx,(%esp)
    39ef:	e8 4c ad 00 00       	call   e740 <fibril_mutex_unlock>
    39f4:	8b 45 94             	mov    -0x6c(%ebp),%eax
    39f7:	89 04 24             	mov    %eax,(%esp)
    39fa:	e8 31 1b 00 00       	call   5530 <surface_direct_access>
    39ff:	8b 55 08             	mov    0x8(%ebp),%edx
    3a02:	89 44 24 0c          	mov    %eax,0xc(%esp)
    3a06:	89 7c 24 08          	mov    %edi,0x8(%esp)
    3a0a:	89 74 24 04          	mov    %esi,0x4(%esp)
    3a0e:	8b 42 0c             	mov    0xc(%edx),%eax
    3a11:	89 04 24             	mov    %eax,(%esp)
    3a14:	e8 c7 19 01 00       	call   153e0 <win_resize>
    3a19:	85 c0                	test   %eax,%eax
    3a1b:	0f 84 0f 03 00 00    	je     3d30 <event_loop+0x4f0>
    3a21:	8b 45 98             	mov    -0x68(%ebp),%eax
    3a24:	c7 45 b4 00 00 00 00 	movl   $0x0,-0x4c(%ebp)
    3a2b:	c7 45 b8 00 00 00 00 	movl   $0x0,-0x48(%ebp)
    3a32:	85 c0                	test   %eax,%eax
    3a34:	74 19                	je     3a4f <event_loop+0x20f>
    3a36:	8d 4d b8             	lea    -0x48(%ebp),%ecx
    3a39:	8d 45 b4             	lea    -0x4c(%ebp),%eax
    3a3c:	8b 55 98             	mov    -0x68(%ebp),%edx
    3a3f:	89 4c 24 08          	mov    %ecx,0x8(%esp)
    3a43:	89 44 24 04          	mov    %eax,0x4(%esp)
    3a47:	89 14 24             	mov    %edx,(%esp)
    3a4a:	e8 01 1b 00 00       	call   5550 <surface_get_resolution>
    3a4f:	8b 55 9c             	mov    -0x64(%ebp),%edx
    3a52:	89 14 24             	mov    %edx,(%esp)
    3a55:	e8 c6 ab 00 00       	call   e620 <fibril_mutex_lock>
    3a5a:	8b 55 08             	mov    0x8(%ebp),%edx
    3a5d:	8b 4d 98             	mov    -0x68(%ebp),%ecx
    3a60:	8b b2 a0 00 00 00    	mov    0xa0(%edx),%esi
    3a66:	89 8a a0 00 00 00    	mov    %ecx,0xa0(%edx)
    3a6c:	8b 55 9c             	mov    -0x64(%ebp),%edx
    3a6f:	89 14 24             	mov    %edx,(%esp)
    3a72:	e8 c9 ac 00 00       	call   e740 <fibril_mutex_unlock>
    3a77:	8b 45 b8             	mov    -0x48(%ebp),%eax
    3a7a:	8b 55 a0             	mov    -0x60(%ebp),%edx
    3a7d:	89 44 24 10          	mov    %eax,0x10(%esp)
    3a81:	89 14 24             	mov    %edx,(%esp)
    3a84:	8b 45 b4             	mov    -0x4c(%ebp),%eax
    3a87:	8b 55 08             	mov    0x8(%ebp),%edx
    3a8a:	89 44 24 0c          	mov    %eax,0xc(%esp)
    3a8e:	c7 44 24 08 00 00 00 	movl   $0x0,0x8(%esp)
    3a95:	00 
    3a96:	c7 44 24 04 00 00 00 	movl   $0x0,0x4(%esp)
    3a9d:	00 
    3a9e:	ff 52 78             	call   *0x78(%edx)
    3aa1:	8b 55 08             	mov    0x8(%ebp),%edx
    3aa4:	8b ba a0 00 00 00    	mov    0xa0(%edx),%edi
    3aaa:	85 ff                	test   %edi,%edi
    3aac:	74 27                	je     3ad5 <event_loop+0x295>
    3aae:	8b 55 9c             	mov    -0x64(%ebp),%edx
    3ab1:	89 14 24             	mov    %edx,(%esp)
    3ab4:	e8 67 ab 00 00       	call   e620 <fibril_mutex_lock>
    3ab9:	8b 55 08             	mov    0x8(%ebp),%edx
    3abc:	8b 82 a0 00 00 00    	mov    0xa0(%edx),%eax
    3ac2:	89 04 24             	mov    %eax,(%esp)
    3ac5:	e8 26 1c 00 00       	call   56f0 <surface_reset_damaged_region>
    3aca:	8b 55 9c             	mov    -0x64(%ebp),%edx
    3acd:	89 14 24             	mov    %edx,(%esp)
    3ad0:	e8 6b ac 00 00       	call   e740 <fibril_mutex_unlock>
    3ad5:	89 34 24             	mov    %esi,(%esp)
    3ad8:	e8 03 1a 00 00       	call   54e0 <surface_destroy>
    3add:	e9 4e fe ff ff       	jmp    3930 <event_loop+0xf0>
    3ae2:	8d b6 00 00 00 00    	lea    0x0(%esi),%esi
    3ae8:	8b 55 08             	mov    0x8(%ebp),%edx
    3aeb:	80 7a 02 00          	cmpb   $0x0,0x2(%edx)
    3aef:	0f 84 3b fe ff ff    	je     3930 <event_loop+0xf0>
    3af5:	c6 42 02 00          	movb   $0x0,0x2(%edx)
    3af9:	8b 55 a0             	mov    -0x60(%ebp),%edx
    3afc:	89 14 24             	mov    %edx,(%esp)
    3aff:	8b 55 08             	mov    0x8(%ebp),%edx
    3b02:	ff 52 7c             	call   *0x7c(%edx)
    3b05:	e9 26 fe ff ff       	jmp    3930 <event_loop+0xf0>
    3b0a:	8d b6 00 00 00 00    	lea    0x0(%esi),%esi
    3b10:	8b 55 08             	mov    0x8(%ebp),%edx
    3b13:	80 7a 02 00          	cmpb   $0x0,0x2(%edx)
    3b17:	0f 85 13 fe ff ff    	jne    3930 <event_loop+0xf0>
    3b1d:	c6 42 02 01          	movb   $0x1,0x2(%edx)
    3b21:	8b 55 a0             	mov    -0x60(%ebp),%edx
    3b24:	89 14 24             	mov    %edx,(%esp)
    3b27:	8b 55 08             	mov    0x8(%ebp),%edx
    3b2a:	ff 52 7c             	call   *0x7c(%edx)
    3b2d:	e9 fe fd ff ff       	jmp    3930 <event_loop+0xf0>
    3b32:	8d b6 00 00 00 00    	lea    0x0(%esi),%esi
    3b38:	8b 73 14             	mov    0x14(%ebx),%esi
    3b3b:	89 74 24 04          	mov    %esi,0x4(%esp)
    3b3f:	8b 43 0c             	mov    0xc(%ebx),%eax
    3b42:	89 04 24             	mov    %eax,(%esp)
    3b45:	ff 53 10             	call   *0x10(%ebx)
    3b48:	89 34 24             	mov    %esi,(%esp)
    3b4b:	e8 b0 3d 01 00       	call   17900 <free>
    3b50:	e9 db fd ff ff       	jmp    3930 <event_loop+0xf0>
    3b55:	8d 76 00             	lea    0x0(%esi),%esi
    3b58:	8b 55 08             	mov    0x8(%ebp),%edx
    3b5b:	80 7a 02 00          	cmpb   $0x0,0x2(%edx)
    3b5f:	0f 84 b3 01 00 00    	je     3d18 <event_loop+0x4d8>
    3b65:	8b 4b 14             	mov    0x14(%ebx),%ecx
    3b68:	8b 43 18             	mov    0x18(%ebx),%eax
    3b6b:	89 4d 90             	mov    %ecx,-0x70(%ebp)
    3b6e:	89 4d c4             	mov    %ecx,-0x3c(%ebp)
    3b71:	8b 4d 08             	mov    0x8(%ebp),%ecx
    3b74:	8b 7b 0c             	mov    0xc(%ebx),%edi
    3b77:	8b 73 10             	mov    0x10(%ebx),%esi
    3b7a:	8b 53 1c             	mov    0x1c(%ebx),%edx
    3b7d:	89 45 98             	mov    %eax,-0x68(%ebp)
    3b80:	89 45 c8             	mov    %eax,-0x38(%ebp)
    3b83:	8b 81 88 00 00 00    	mov    0x88(%ecx),%eax
    3b89:	89 7d bc             	mov    %edi,-0x44(%ebp)
    3b8c:	89 75 c0             	mov    %esi,-0x40(%ebp)
    3b8f:	89 55 cc             	mov    %edx,-0x34(%ebp)
    3b92:	89 7c 24 04          	mov    %edi,0x4(%esp)
    3b96:	89 74 24 08          	mov    %esi,0x8(%esp)
    3b9a:	85 c0                	test   %eax,%eax
    3b9c:	0f 84 c6 01 00 00    	je     3d68 <event_loop+0x528>
    3ba2:	8b 4d 90             	mov    -0x70(%ebp),%ecx
    3ba5:	89 54 24 14          	mov    %edx,0x14(%esp)
    3ba9:	89 4c 24 0c          	mov    %ecx,0xc(%esp)
    3bad:	8b 4d 98             	mov    -0x68(%ebp),%ecx
    3bb0:	89 4c 24 10          	mov    %ecx,0x10(%esp)
    3bb4:	89 04 24             	mov    %eax,(%esp)
    3bb7:	ff 50 54             	call   *0x54(%eax)
    3bba:	e9 71 fd ff ff       	jmp    3930 <event_loop+0xf0>
    3bbf:	90                   	nop
    3bc0:	8b 55 08             	mov    0x8(%ebp),%edx
    3bc3:	8b 45 a0             	mov    -0x60(%ebp),%eax
    3bc6:	0f b6 3a             	movzbl (%edx),%edi
    3bc9:	e8 82 fa ff ff       	call   3650 <destroy_children>
    3bce:	8b 55 a0             	mov    -0x60(%ebp),%edx
    3bd1:	89 14 24             	mov    %edx,(%esp)
    3bd4:	8b 55 08             	mov    0x8(%ebp),%edx
    3bd7:	ff 52 70             	call   *0x70(%edx)
    3bda:	8b 55 08             	mov    0x8(%ebp),%edx
    3bdd:	8b 42 0c             	mov    0xc(%edx),%eax
    3be0:	c7 82 88 00 00 00 00 	movl   $0x0,0x88(%edx)
    3be7:	00 00 00 
    3bea:	c7 82 8c 00 00 00 00 	movl   $0x0,0x8c(%edx)
    3bf1:	00 00 00 
    3bf4:	89 04 24             	mov    %eax,(%esp)
    3bf7:	e8 84 18 01 00       	call   15480 <win_close>
    3bfc:	8b 55 08             	mov    0x8(%ebp),%edx
    3bff:	8b 42 08             	mov    0x8(%edx),%eax
    3c02:	89 04 24             	mov    %eax,(%esp)
    3c05:	e8 26 70 01 00       	call   1ac30 <async_hangup>
    3c0a:	8b 55 08             	mov    0x8(%ebp),%edx
    3c0d:	8b 42 0c             	mov    0xc(%edx),%eax
    3c10:	89 04 24             	mov    %eax,(%esp)
    3c13:	e8 18 70 01 00       	call   1ac30 <async_hangup>
    3c18:	8b 55 08             	mov    0x8(%ebp),%edx
    3c1b:	89 d6                	mov    %edx,%esi
    3c1d:	8b 42 2c             	mov    0x2c(%edx),%eax
    3c20:	83 c6 28             	add    $0x28,%esi
    3c23:	39 f0                	cmp    %esi,%eax
    3c25:	74 37                	je     3c5e <event_loop+0x41e>
    3c27:	89 5d a4             	mov    %ebx,-0x5c(%ebp)
    3c2a:	8b 5d 08             	mov    0x8(%ebp),%ebx
    3c2d:	8d 76 00             	lea    0x0(%esi),%esi
    3c30:	8b 08                	mov    (%eax),%ecx
    3c32:	85 c9                	test   %ecx,%ecx
    3c34:	74 0e                	je     3c44 <event_loop+0x404>
    3c36:	8b 50 04             	mov    0x4(%eax),%edx
    3c39:	85 d2                	test   %edx,%edx
    3c3b:	74 07                	je     3c44 <event_loop+0x404>
    3c3d:	89 0a                	mov    %ecx,(%edx)
    3c3f:	8b 08                	mov    (%eax),%ecx
    3c41:	89 51 04             	mov    %edx,0x4(%ecx)
    3c44:	c7 40 04 00 00 00 00 	movl   $0x0,0x4(%eax)
    3c4b:	c7 00 00 00 00 00    	movl   $0x0,(%eax)
    3c51:	8b 43 2c             	mov    0x2c(%ebx),%eax
    3c54:	39 f0                	cmp    %esi,%eax
    3c56:	75 d8                	jne    3c30 <event_loop+0x3f0>
    3c58:	8b 5d a4             	mov    -0x5c(%ebp),%ebx
    3c5b:	8b 55 08             	mov    0x8(%ebp),%edx
    3c5e:	8b 82 a0 00 00 00    	mov    0xa0(%edx),%eax
    3c64:	85 c0                	test   %eax,%eax
    3c66:	74 08                	je     3c70 <event_loop+0x430>
    3c68:	89 04 24             	mov    %eax,(%esp)
    3c6b:	e8 70 18 00 00       	call   54e0 <surface_destroy>
    3c70:	8b 55 08             	mov    0x8(%ebp),%edx
    3c73:	8b 42 04             	mov    0x4(%edx),%eax
    3c76:	89 04 24             	mov    %eax,(%esp)
    3c79:	e8 82 3c 01 00       	call   17900 <free>
    3c7e:	8b 55 08             	mov    0x8(%ebp),%edx
    3c81:	89 14 24             	mov    %edx,(%esp)
    3c84:	e8 77 3c 01 00       	call   17900 <free>
    3c89:	89 1c 24             	mov    %ebx,(%esp)
    3c8c:	e8 6f 3c 01 00       	call   17900 <free>
    3c91:	89 f9                	mov    %edi,%ecx
    3c93:	84 c9                	test   %cl,%cl
    3c95:	0f 85 f3 00 00 00    	jne    3d8e <event_loop+0x54e>
    3c9b:	81 c4 8c 00 00 00    	add    $0x8c,%esp
    3ca1:	31 c0                	xor    %eax,%eax
    3ca3:	5b                   	pop    %ebx
    3ca4:	5e                   	pop    %esi
    3ca5:	5f                   	pop    %edi
    3ca6:	5d                   	pop    %ebp
    3ca7:	c3                   	ret    
    3ca8:	8d 55 d0             	lea    -0x30(%ebp),%edx
    3cab:	8d 73 0c             	lea    0xc(%ebx),%esi
    3cae:	b9 06 00 00 00       	mov    $0x6,%ecx
    3cb3:	89 d7                	mov    %edx,%edi
    3cb5:	f3 a5                	rep movsl %ds:(%esi),%es:(%edi)
    3cb7:	8b 4d 08             	mov    0x8(%ebp),%ecx
    3cba:	8d 7c 24 04          	lea    0x4(%esp),%edi
    3cbe:	89 d6                	mov    %edx,%esi
    3cc0:	8b 81 8c 00 00 00    	mov    0x8c(%ecx),%eax
    3cc6:	b9 06 00 00 00       	mov    $0x6,%ecx
    3ccb:	f3 a5                	rep movsl %ds:(%esi),%es:(%edi)
    3ccd:	85 c0                	test   %eax,%eax
    3ccf:	74 7f                	je     3d50 <event_loop+0x510>
    3cd1:	89 04 24             	mov    %eax,(%esp)
    3cd4:	ff 50 50             	call   *0x50(%eax)
    3cd7:	e9 54 fc ff ff       	jmp    3930 <event_loop+0xf0>
    3cdc:	8d 74 26 00          	lea    0x0(%esi,%eiz,1),%esi
    3ce0:	8b 55 08             	mov    0x8(%ebp),%edx
    3ce3:	c7 44 24 10 00 00 00 	movl   $0x0,0x10(%esp)
    3cea:	00 
    3ceb:	c7 44 24 0c 00 00 00 	movl   $0x0,0xc(%esp)
    3cf2:	00 
    3cf3:	c7 44 24 08 00 00 00 	movl   $0x0,0x8(%esp)
    3cfa:	00 
    3cfb:	c7 44 24 04 00 00 00 	movl   $0x0,0x4(%esp)
    3d02:	00 
    3d03:	8b 42 0c             	mov    0xc(%edx),%eax
    3d06:	89 04 24             	mov    %eax,(%esp)
    3d09:	e8 d2 15 01 00       	call   152e0 <win_damage>
    3d0e:	e9 1d fc ff ff       	jmp    3930 <event_loop+0xf0>
    3d13:	90                   	nop
    3d14:	8d 74 26 00          	lea    0x0(%esi,%eiz,1),%esi
    3d18:	c6 42 02 01          	movb   $0x1,0x2(%edx)
    3d1c:	8b 55 a0             	mov    -0x60(%ebp),%edx
    3d1f:	89 14 24             	mov    %edx,(%esp)
    3d22:	8b 55 08             	mov    0x8(%ebp),%edx
    3d25:	ff 52 7c             	call   *0x7c(%edx)
    3d28:	e9 38 fe ff ff       	jmp    3b65 <event_loop+0x325>
    3d2d:	8d 76 00             	lea    0x0(%esi),%esi
    3d30:	8b 75 98             	mov    -0x68(%ebp),%esi
    3d33:	85 f6                	test   %esi,%esi
    3d35:	0f 84 f5 fb ff ff    	je     3930 <event_loop+0xf0>
    3d3b:	8b 4d 98             	mov    -0x68(%ebp),%ecx
    3d3e:	89 0c 24             	mov    %ecx,(%esp)
    3d41:	e8 9a 17 00 00       	call   54e0 <surface_destroy>
    3d46:	e9 e5 fb ff ff       	jmp    3930 <event_loop+0xf0>
    3d4b:	90                   	nop
    3d4c:	8d 74 26 00          	lea    0x0(%esi,%eiz,1),%esi
    3d50:	8b 55 a0             	mov    -0x60(%ebp),%edx
    3d53:	89 14 24             	mov    %edx,(%esp)
    3d56:	8b 55 08             	mov    0x8(%ebp),%edx
    3d59:	ff 92 80 00 00 00    	call   *0x80(%edx)
    3d5f:	e9 cc fb ff ff       	jmp    3930 <event_loop+0xf0>
    3d64:	8d 74 26 00          	lea    0x0(%esi,%eiz,1),%esi
    3d68:	89 54 24 14          	mov    %edx,0x14(%esp)
    3d6c:	8b 55 a0             	mov    -0x60(%ebp),%edx
    3d6f:	8b 45 90             	mov    -0x70(%ebp),%eax
    3d72:	8b 4d 98             	mov    -0x68(%ebp),%ecx
    3d75:	89 14 24             	mov    %edx,(%esp)
    3d78:	8b 55 08             	mov    0x8(%ebp),%edx
    3d7b:	89 44 24 0c          	mov    %eax,0xc(%esp)
    3d7f:	89 4c 24 10          	mov    %ecx,0x10(%esp)
    3d83:	ff 92 84 00 00 00    	call   *0x84(%edx)
    3d89:	e9 a2 fb ff ff       	jmp    3930 <event_loop+0xf0>
    3d8e:	c7 04 24 00 00 00 00 	movl   $0x0,(%esp)
    3d95:	e8 96 39 00 00       	call   7730 <exit>
    3d9a:	8d b6 00 00 00 00    	lea    0x0(%esi),%esi

00003da0 <root_repaint>:
    3da0:	55                   	push   %ebp
    3da1:	89 e5                	mov    %esp,%ebp
    3da3:	57                   	push   %edi
    3da4:	56                   	push   %esi
    3da5:	53                   	push   %ebx
    3da6:	83 ec 1c             	sub    $0x1c,%esp
    3da9:	8b 7d 08             	mov    0x8(%ebp),%edi
    3dac:	8b 47 14             	mov    0x14(%edi),%eax
    3daf:	80 78 01 00          	cmpb   $0x0,0x1(%eax)
    3db3:	75 6b                	jne    3e20 <root_repaint+0x80>
    3db5:	8b 5f 10             	mov    0x10(%edi),%ebx
    3db8:	8d 77 0c             	lea    0xc(%edi),%esi
    3dbb:	39 f3                	cmp    %esi,%ebx
    3dbd:	74 0e                	je     3dcd <root_repaint+0x2d>
    3dbf:	90                   	nop
    3dc0:	89 1c 24             	mov    %ebx,(%esp)
    3dc3:	ff 53 4c             	call   *0x4c(%ebx)
    3dc6:	8b 5b 04             	mov    0x4(%ebx),%ebx
    3dc9:	39 f3                	cmp    %esi,%ebx
    3dcb:	75 f3                	jne    3dc0 <root_repaint+0x20>
    3dcd:	8b 5f 14             	mov    0x14(%edi),%ebx
    3dd0:	80 7b 01 00          	cmpb   $0x0,0x1(%ebx)
    3dd4:	75 0a                	jne    3de0 <root_repaint+0x40>
    3dd6:	83 c4 1c             	add    $0x1c,%esp
    3dd9:	5b                   	pop    %ebx
    3dda:	5e                   	pop    %esi
    3ddb:	5f                   	pop    %edi
    3ddc:	5d                   	pop    %ebp
    3ddd:	c3                   	ret    
    3dde:	66 90                	xchg   %ax,%ax
    3de0:	c7 04 24 24 00 00 00 	movl   $0x24,(%esp)
    3de7:	e8 04 3a 01 00       	call   177f0 <malloc>
    3dec:	85 c0                	test   %eax,%eax
    3dee:	74 e6                	je     3dd6 <root_repaint+0x36>
    3df0:	83 c3 10             	add    $0x10,%ebx
    3df3:	c7 00 00 00 00 00    	movl   $0x0,(%eax)
    3df9:	c7 40 04 00 00 00 00 	movl   $0x0,0x4(%eax)
    3e00:	c7 40 08 07 00 00 00 	movl   $0x7,0x8(%eax)
    3e07:	89 1c 24             	mov    %ebx,(%esp)
    3e0a:	89 44 24 04          	mov    %eax,0x4(%esp)
    3e0e:	e8 6d a1 01 00       	call   1df80 <prodcons_produce>
    3e13:	83 c4 1c             	add    $0x1c,%esp
    3e16:	5b                   	pop    %ebx
    3e17:	5e                   	pop    %esi
    3e18:	5f                   	pop    %edi
    3e19:	5d                   	pop    %ebp
    3e1a:	c3                   	ret    
    3e1b:	90                   	nop
    3e1c:	8d 74 26 00          	lea    0x0(%esi,%eiz,1),%esi
    3e20:	89 f8                	mov    %edi,%eax
    3e22:	e8 59 f4 ff ff       	call   3280 <paint_internal>
    3e27:	eb 8c                	jmp    3db5 <root_repaint+0x15>
    3e29:	8d b4 26 00 00 00 00 	lea    0x0(%esi,%eiz,1),%esi

00003e30 <window_open>:
    3e30:	55                   	push   %ebp
    3e31:	89 e5                	mov    %esp,%ebp
    3e33:	57                   	push   %edi
    3e34:	56                   	push   %esi
    3e35:	53                   	push   %ebx
    3e36:	83 ec 3c             	sub    $0x3c,%esp
    3e39:	8b 7d 0c             	mov    0xc(%ebp),%edi
    3e3c:	8b 75 10             	mov    0x10(%ebp),%esi
    3e3f:	c7 04 24 a4 00 00 00 	movl   $0xa4,(%esp)
    3e46:	e8 a5 39 01 00       	call   177f0 <malloc>
    3e4b:	89 c3                	mov    %eax,%ebx
    3e4d:	85 c0                	test   %eax,%eax
    3e4f:	0f 84 60 01 00 00    	je     3fb5 <window_open+0x185>
    3e55:	89 f8                	mov    %edi,%eax
    3e57:	c6 43 02 01          	movb   $0x1,0x2(%ebx)
    3e5b:	88 03                	mov    %al,(%ebx)
    3e5d:	89 f0                	mov    %esi,%eax
    3e5f:	88 43 01             	mov    %al,0x1(%ebx)
    3e62:	8d 43 10             	lea    0x10(%ebx),%eax
    3e65:	89 04 24             	mov    %eax,(%esp)
    3e68:	e8 e3 a0 01 00       	call   1df50 <prodcons_initialize>
    3e6d:	8d 83 90 00 00 00    	lea    0x90(%ebx),%eax
    3e73:	89 04 24             	mov    %eax,(%esp)
    3e76:	e8 85 a7 00 00       	call   e600 <fibril_mutex_initialize>
    3e7b:	8d 43 30             	lea    0x30(%ebx),%eax
    3e7e:	89 04 24             	mov    %eax,(%esp)
    3e81:	c7 44 24 04 00 00 00 	movl   $0x0,0x4(%esp)
    3e88:	00 
    3e89:	e8 22 ee ff ff       	call   2cb0 <widget_init>
    3e8e:	8d 45 dc             	lea    -0x24(%ebp),%eax
    3e91:	89 5b 44             	mov    %ebx,0x44(%ebx)
    3e94:	c7 43 70 d0 31 00 00 	movl   $0x31d0,0x70(%ebx)
    3e9b:	c7 43 74 e0 31 00 00 	movl   $0x31e0,0x74(%ebx)
    3ea2:	c7 43 78 70 35 00 00 	movl   $0x3570,0x78(%ebx)
    3ea9:	c7 43 7c a0 3d 00 00 	movl   $0x3da0,0x7c(%ebx)
    3eb0:	c7 83 80 00 00 00 a0 	movl   $0x2da0,0x80(%ebx)
    3eb7:	2d 00 00 
    3eba:	c7 83 84 00 00 00 60 	movl   $0x2e60,0x84(%ebx)
    3ec1:	2e 00 00 
    3ec4:	c7 83 88 00 00 00 00 	movl   $0x0,0x88(%ebx)
    3ecb:	00 00 00 
    3ece:	c7 83 8c 00 00 00 00 	movl   $0x0,0x8c(%ebx)
    3ed5:	00 00 00 
    3ed8:	c7 83 a0 00 00 00 00 	movl   $0x0,0xa0(%ebx)
    3edf:	00 00 00 
    3ee2:	89 44 24 04          	mov    %eax,0x4(%esp)
    3ee6:	8b 45 08             	mov    0x8(%ebp),%eax
    3ee9:	c7 44 24 08 00 00 00 	movl   $0x0,0x8(%esp)
    3ef0:	00 
    3ef1:	89 04 24             	mov    %eax,(%esp)
    3ef4:	e8 87 4c 00 00       	call   8b80 <loc_service_get_id>
    3ef9:	85 c0                	test   %eax,%eax
    3efb:	0f 85 df 00 00 00    	jne    3fe0 <window_open+0x1b0>
    3f01:	8b 45 dc             	mov    -0x24(%ebp),%eax
    3f04:	c7 44 24 08 00 00 00 	movl   $0x0,0x8(%esp)
    3f0b:	00 
    3f0c:	89 44 24 04          	mov    %eax,0x4(%esp)
    3f10:	c7 04 24 02 00 00 00 	movl   $0x2,(%esp)
    3f17:	e8 54 55 00 00       	call   9470 <loc_service_connect>
    3f1c:	89 c6                	mov    %eax,%esi
    3f1e:	85 c0                	test   %eax,%eax
    3f20:	0f 84 ba 00 00 00    	je     3fe0 <window_open+0x1b0>
    3f26:	8b 45 1c             	mov    0x1c(%ebp),%eax
    3f29:	89 34 24             	mov    %esi,(%esp)
    3f2c:	89 44 24 10          	mov    %eax,0x10(%esp)
    3f30:	8b 45 18             	mov    0x18(%ebp),%eax
    3f33:	89 44 24 0c          	mov    %eax,0xc(%esp)
    3f37:	8d 45 e4             	lea    -0x1c(%ebp),%eax
    3f3a:	89 44 24 08          	mov    %eax,0x8(%esp)
    3f3e:	8d 45 e0             	lea    -0x20(%ebp),%eax
    3f41:	89 44 24 04          	mov    %eax,0x4(%esp)
    3f45:	e8 76 12 01 00       	call   151c0 <win_register>
    3f4a:	89 34 24             	mov    %esi,(%esp)
    3f4d:	89 c7                	mov    %eax,%edi
    3f4f:	e8 dc 6c 01 00       	call   1ac30 <async_hangup>
    3f54:	85 ff                	test   %edi,%edi
    3f56:	0f 85 84 00 00 00    	jne    3fe0 <window_open+0x1b0>
    3f5c:	8b 45 e4             	mov    -0x1c(%ebp),%eax
    3f5f:	c7 44 24 08 00 00 00 	movl   $0x0,0x8(%esp)
    3f66:	00 
    3f67:	89 44 24 04          	mov    %eax,0x4(%esp)
    3f6b:	c7 04 24 02 00 00 00 	movl   $0x2,(%esp)
    3f72:	e8 f9 54 00 00       	call   9470 <loc_service_connect>
    3f77:	89 43 0c             	mov    %eax,0xc(%ebx)
    3f7a:	85 c0                	test   %eax,%eax
    3f7c:	74 62                	je     3fe0 <window_open+0x1b0>
    3f7e:	8b 45 e0             	mov    -0x20(%ebp),%eax
    3f81:	c7 44 24 08 00 00 00 	movl   $0x0,0x8(%esp)
    3f88:	00 
    3f89:	89 44 24 04          	mov    %eax,0x4(%esp)
    3f8d:	c7 04 24 02 00 00 00 	movl   $0x2,(%esp)
    3f94:	e8 d7 54 00 00       	call   9470 <loc_service_connect>
    3f99:	89 43 08             	mov    %eax,0x8(%ebx)
    3f9c:	85 c0                	test   %eax,%eax
    3f9e:	74 31                	je     3fd1 <window_open+0x1a1>
    3fa0:	8b 45 14             	mov    0x14(%ebp),%eax
    3fa3:	85 c0                	test   %eax,%eax
    3fa5:	74 19                	je     3fc0 <window_open+0x190>
    3fa7:	8b 45 14             	mov    0x14(%ebp),%eax
    3faa:	89 04 24             	mov    %eax,(%esp)
    3fad:	e8 3e 93 00 00       	call   d2f0 <str_dup>
    3fb2:	89 43 04             	mov    %eax,0x4(%ebx)
    3fb5:	83 c4 3c             	add    $0x3c,%esp
    3fb8:	89 d8                	mov    %ebx,%eax
    3fba:	5b                   	pop    %ebx
    3fbb:	5e                   	pop    %esi
    3fbc:	5f                   	pop    %edi
    3fbd:	5d                   	pop    %ebp
    3fbe:	c3                   	ret    
    3fbf:	90                   	nop
    3fc0:	c7 43 04 00 00 00 00 	movl   $0x0,0x4(%ebx)
    3fc7:	83 c4 3c             	add    $0x3c,%esp
    3fca:	89 d8                	mov    %ebx,%eax
    3fcc:	5b                   	pop    %ebx
    3fcd:	5e                   	pop    %esi
    3fce:	5f                   	pop    %edi
    3fcf:	5d                   	pop    %ebp
    3fd0:	c3                   	ret    
    3fd1:	8b 43 0c             	mov    0xc(%ebx),%eax
    3fd4:	89 04 24             	mov    %eax,(%esp)
    3fd7:	e8 54 6c 01 00       	call   1ac30 <async_hangup>
    3fdc:	8d 74 26 00          	lea    0x0(%esi,%eiz,1),%esi
    3fe0:	89 1c 24             	mov    %ebx,(%esp)
    3fe3:	31 db                	xor    %ebx,%ebx
    3fe5:	e8 16 39 01 00       	call   17900 <free>
    3fea:	83 c4 3c             	add    $0x3c,%esp
    3fed:	89 d8                	mov    %ebx,%eax
    3fef:	5b                   	pop    %ebx
    3ff0:	5e                   	pop    %esi
    3ff1:	5f                   	pop    %edi
    3ff2:	5d                   	pop    %ebp
    3ff3:	c3                   	ret    
    3ff4:	8d b6 00 00 00 00    	lea    0x0(%esi),%esi
    3ffa:	8d bf 00 00 00 00    	lea    0x0(%edi),%edi

00004000 <window_resize>:
    4000:	55                   	push   %ebp
    4001:	89 e5                	mov    %esp,%ebp
    4003:	57                   	push   %edi
    4004:	56                   	push   %esi
    4005:	53                   	push   %ebx
    4006:	83 ec 1c             	sub    $0x1c,%esp
    4009:	8b 5d 08             	mov    0x8(%ebp),%ebx
    400c:	8b 7d 0c             	mov    0xc(%ebp),%edi
    400f:	c7 04 24 24 00 00 00 	movl   $0x24,(%esp)
    4016:	8b 75 10             	mov    0x10(%ebp),%esi
    4019:	e8 d2 37 01 00       	call   177f0 <malloc>
    401e:	85 c0                	test   %eax,%eax
    4020:	74 36                	je     4058 <window_resize+0x58>
    4022:	83 c3 10             	add    $0x10,%ebx
    4025:	c7 00 00 00 00 00    	movl   $0x0,(%eax)
    402b:	c7 40 04 00 00 00 00 	movl   $0x0,0x4(%eax)
    4032:	c7 40 08 05 00 00 00 	movl   $0x5,0x8(%eax)
    4039:	89 78 0c             	mov    %edi,0xc(%eax)
    403c:	89 70 10             	mov    %esi,0x10(%eax)
    403f:	89 5d 08             	mov    %ebx,0x8(%ebp)
    4042:	89 45 0c             	mov    %eax,0xc(%ebp)
    4045:	83 c4 1c             	add    $0x1c,%esp
    4048:	5b                   	pop    %ebx
    4049:	5e                   	pop    %esi
    404a:	5f                   	pop    %edi
    404b:	5d                   	pop    %ebp
    404c:	e9 2f 9f 01 00       	jmp    1df80 <prodcons_produce>
    4051:	8d b4 26 00 00 00 00 	lea    0x0(%esi,%eiz,1),%esi
    4058:	83 c4 1c             	add    $0x1c,%esp
    405b:	5b                   	pop    %ebx
    405c:	5e                   	pop    %esi
    405d:	5f                   	pop    %edi
    405e:	5d                   	pop    %ebp
    405f:	c3                   	ret    

00004060 <window_refresh>:
    4060:	55                   	push   %ebp
    4061:	89 e5                	mov    %esp,%ebp
    4063:	83 ec 18             	sub    $0x18,%esp
    4066:	c7 04 24 24 00 00 00 	movl   $0x24,(%esp)
    406d:	e8 7e 37 01 00       	call   177f0 <malloc>
    4072:	85 c0                	test   %eax,%eax
    4074:	74 26                	je     409c <window_refresh+0x3c>
    4076:	c7 00 00 00 00 00    	movl   $0x0,(%eax)
    407c:	c7 40 04 00 00 00 00 	movl   $0x0,0x4(%eax)
    4083:	c7 40 08 06 00 00 00 	movl   $0x6,0x8(%eax)
    408a:	89 44 24 04          	mov    %eax,0x4(%esp)
    408e:	8b 45 08             	mov    0x8(%ebp),%eax
    4091:	83 c0 10             	add    $0x10,%eax
    4094:	89 04 24             	mov    %eax,(%esp)
    4097:	e8 e4 9e 01 00       	call   1df80 <prodcons_produce>
    409c:	c9                   	leave  
    409d:	c3                   	ret    
    409e:	66 90                	xchg   %ax,%ax

000040a0 <window_damage>:
    40a0:	55                   	push   %ebp
    40a1:	89 e5                	mov    %esp,%ebp
    40a3:	83 ec 18             	sub    $0x18,%esp
    40a6:	c7 04 24 24 00 00 00 	movl   $0x24,(%esp)
    40ad:	e8 3e 37 01 00       	call   177f0 <malloc>
    40b2:	85 c0                	test   %eax,%eax
    40b4:	74 26                	je     40dc <window_damage+0x3c>
    40b6:	c7 00 00 00 00 00    	movl   $0x0,(%eax)
    40bc:	c7 40 04 00 00 00 00 	movl   $0x0,0x4(%eax)
    40c3:	c7 40 08 07 00 00 00 	movl   $0x7,0x8(%eax)
    40ca:	89 44 24 04          	mov    %eax,0x4(%esp)
    40ce:	8b 45 08             	mov    0x8(%ebp),%eax
    40d1:	83 c0 10             	add    $0x10,%eax
    40d4:	89 04 24             	mov    %eax,(%esp)
    40d7:	e8 a4 9e 01 00       	call   1df80 <prodcons_produce>
    40dc:	c9                   	leave  
    40dd:	c3                   	ret    
    40de:	66 90                	xchg   %ax,%ax

000040e0 <window_root>:
    40e0:	55                   	push   %ebp
    40e1:	89 e5                	mov    %esp,%ebp
    40e3:	8b 45 08             	mov    0x8(%ebp),%eax
    40e6:	5d                   	pop    %ebp
    40e7:	83 c0 30             	add    $0x30,%eax
    40ea:	c3                   	ret    
    40eb:	90                   	nop
    40ec:	8d 74 26 00          	lea    0x0(%esi,%eiz,1),%esi

000040f0 <window_exec>:
    40f0:	55                   	push   %ebp
    40f1:	89 e5                	mov    %esp,%ebp
    40f3:	56                   	push   %esi
    40f4:	53                   	push   %ebx
    40f5:	83 ec 20             	sub    $0x20,%esp
    40f8:	8b 5d 08             	mov    0x8(%ebp),%ebx
    40fb:	89 5c 24 04          	mov    %ebx,0x4(%esp)
    40ff:	c7 04 24 40 38 00 00 	movl   $0x3840,(%esp)
    4106:	e8 35 a0 00 00       	call   e140 <fibril_create>
    410b:	89 5c 24 04          	mov    %ebx,0x4(%esp)
    410f:	c7 04 24 e0 2d 00 00 	movl   $0x2de0,(%esp)
    4116:	89 c6                	mov    %eax,%esi
    4118:	e8 23 a0 00 00       	call   e140 <fibril_create>
    411d:	85 c0                	test   %eax,%eax
    411f:	75 07                	jne    4128 <window_exec+0x38>
    4121:	83 c4 20             	add    $0x20,%esp
    4124:	5b                   	pop    %ebx
    4125:	5e                   	pop    %esi
    4126:	5d                   	pop    %ebp
    4127:	c3                   	ret    
    4128:	85 f6                	test   %esi,%esi
    412a:	74 f5                	je     4121 <window_exec+0x31>
    412c:	89 34 24             	mov    %esi,(%esp)
    412f:	89 45 f4             	mov    %eax,-0xc(%ebp)
    4132:	e8 49 a1 00 00       	call   e280 <fibril_add_ready>
    4137:	8b 45 f4             	mov    -0xc(%ebp),%eax
    413a:	89 45 08             	mov    %eax,0x8(%ebp)
    413d:	83 c4 20             	add    $0x20,%esp
    4140:	5b                   	pop    %ebx
    4141:	5e                   	pop    %esi
    4142:	5d                   	pop    %ebp
    4143:	e9 38 a1 00 00       	jmp    e280 <fibril_add_ready>
    4148:	90                   	nop
    4149:	8d b4 26 00 00 00 00 	lea    0x0(%esi,%eiz,1),%esi

00004150 <window_claim>:
    4150:	55                   	push   %ebp
    4151:	89 e5                	mov    %esp,%ebp
    4153:	53                   	push   %ebx
    4154:	83 ec 14             	sub    $0x14,%esp
    4157:	8b 5d 08             	mov    0x8(%ebp),%ebx
    415a:	8d 83 90 00 00 00    	lea    0x90(%ebx),%eax
    4160:	89 04 24             	mov    %eax,(%esp)
    4163:	e8 b8 a4 00 00       	call   e620 <fibril_mutex_lock>
    4168:	8b 83 a0 00 00 00    	mov    0xa0(%ebx),%eax
    416e:	83 c4 14             	add    $0x14,%esp
    4171:	5b                   	pop    %ebx
    4172:	5d                   	pop    %ebp
    4173:	c3                   	ret    
    4174:	8d b6 00 00 00 00    	lea    0x0(%esi),%esi
    417a:	8d bf 00 00 00 00    	lea    0x0(%edi),%edi

00004180 <window_yield>:
    4180:	55                   	push   %ebp
    4181:	89 e5                	mov    %esp,%ebp
    4183:	8b 45 08             	mov    0x8(%ebp),%eax
    4186:	05 90 00 00 00       	add    $0x90,%eax
    418b:	89 45 08             	mov    %eax,0x8(%ebp)
    418e:	5d                   	pop    %ebp
    418f:	e9 ac a5 00 00       	jmp    e740 <fibril_mutex_unlock>
    4194:	8d b6 00 00 00 00    	lea    0x0(%esi),%esi
    419a:	8d bf 00 00 00 00    	lea    0x0(%edi),%edi

000041a0 <window_close>:
    41a0:	55                   	push   %ebp
    41a1:	89 e5                	mov    %esp,%ebp
    41a3:	8b 45 08             	mov    0x8(%ebp),%eax
    41a6:	8b 40 0c             	mov    0xc(%eax),%eax
    41a9:	89 45 08             	mov    %eax,0x8(%ebp)
    41ac:	5d                   	pop    %ebp
    41ad:	e9 4e 13 01 00       	jmp    15500 <win_close_request>
    41b2:	66 90                	xchg   %ax,%ax
    41b4:	66 90                	xchg   %ax,%ax
    41b6:	66 90                	xchg   %ax,%ax
    41b8:	66 90                	xchg   %ax,%ax
    41ba:	66 90                	xchg   %ax,%ax
    41bc:	66 90                	xchg   %ax,%ax
    41be:	66 90                	xchg   %ax,%ax

000041c0 <canvas_reconfigure>:
    41c0:	55                   	push   %ebp
    41c1:	89 e5                	mov    %esp,%ebp
    41c3:	5d                   	pop    %ebp
    41c4:	c3                   	ret    
    41c5:	8d 74 26 00          	lea    0x0(%esi,%eiz,1),%esi
    41c9:	8d bc 27 00 00 00 00 	lea    0x0(%edi,%eiz,1),%edi

000041d0 <canvas_handle_keyboard_event>:
    41d0:	55                   	push   %ebp
    41d1:	89 e5                	mov    %esp,%ebp
    41d3:	5d                   	pop    %ebp
    41d4:	c3                   	ret    
    41d5:	8d 74 26 00          	lea    0x0(%esi,%eiz,1),%esi
    41d9:	8d bc 27 00 00 00 00 	lea    0x0(%edi,%eiz,1),%edi

000041e0 <canvas_handle_position_event>:
    41e0:	55                   	push   %ebp
    41e1:	89 e5                	mov    %esp,%ebp
    41e3:	5d                   	pop    %ebp
    41e4:	c3                   	ret    
    41e5:	8d 74 26 00          	lea    0x0(%esi,%eiz,1),%esi
    41e9:	8d bc 27 00 00 00 00 	lea    0x0(%edi,%eiz,1),%edi

000041f0 <paint_internal>:
    41f0:	55                   	push   %ebp
    41f1:	89 e5                	mov    %esp,%ebp
    41f3:	57                   	push   %edi
    41f4:	56                   	push   %esi
    41f5:	53                   	push   %ebx
    41f6:	81 ec 5c 01 00 00    	sub    $0x15c,%esp
    41fc:	89 c3                	mov    %eax,%ebx
    41fe:	8b 40 14             	mov    0x14(%eax),%eax
    4201:	89 04 24             	mov    %eax,(%esp)
    4204:	e8 47 ff ff ff       	call   4150 <window_claim>
    4209:	89 85 ec fe ff ff    	mov    %eax,-0x114(%ebp)
    420f:	85 c0                	test   %eax,%eax
    4211:	0f 84 e9 00 00 00    	je     4300 <paint_internal+0x110>
    4217:	8d b5 3c ff ff ff    	lea    -0xc4(%ebp),%esi
    421d:	8d 7c 24 04          	lea    0x4(%esp),%edi
    4221:	89 34 24             	mov    %esi,(%esp)
    4224:	e8 c7 2e 00 00       	call   70f0 <transform_identity>
    4229:	8b 43 1c             	mov    0x1c(%ebx),%eax
    422c:	31 d2                	xor    %edx,%edx
    422e:	89 85 f0 fe ff ff    	mov    %eax,-0x110(%ebp)
    4234:	89 95 f4 fe ff ff    	mov    %edx,-0x10c(%ebp)
    423a:	8b 43 18             	mov    0x18(%ebx),%eax
    423d:	df ad f0 fe ff ff    	fildll -0x110(%ebp)
    4243:	31 d2                	xor    %edx,%edx
    4245:	89 85 f0 fe ff ff    	mov    %eax,-0x110(%ebp)
    424b:	dd 5c 24 0c          	fstpl  0xc(%esp)
    424f:	89 95 f4 fe ff ff    	mov    %edx,-0x10c(%ebp)
    4255:	89 34 24             	mov    %esi,(%esp)
    4258:	df ad f0 fe ff ff    	fildll -0x110(%ebp)
    425e:	dd 5c 24 04          	fstpl  0x4(%esp)
    4262:	e8 b9 2e 00 00       	call   7120 <transform_translate>
    4267:	8d 45 84             	lea    -0x7c(%ebp),%eax
    426a:	89 04 24             	mov    %eax,(%esp)
    426d:	e8 0e 0e 00 00       	call   5080 <source_init>
    4272:	b9 12 00 00 00       	mov    $0x12,%ecx
    4277:	f3 a5                	rep movsl %ds:(%esi),%es:(%edi)
    4279:	8d 45 84             	lea    -0x7c(%ebp),%eax
    427c:	8d b5 04 ff ff ff    	lea    -0xfc(%ebp),%esi
    4282:	89 04 24             	mov    %eax,(%esp)
    4285:	e8 46 0e 00 00       	call   50d0 <source_set_transform>
    428a:	8b 43 60             	mov    0x60(%ebx),%eax
    428d:	89 44 24 04          	mov    %eax,0x4(%esp)
    4291:	8d 45 84             	lea    -0x7c(%ebp),%eax
    4294:	89 04 24             	mov    %eax,(%esp)
    4297:	c7 44 24 08 00 00 00 	movl   $0x0,0x8(%esp)
    429e:	00 
    429f:	e8 7c 0e 00 00       	call   5120 <source_set_texture>
    42a4:	8b 85 ec fe ff ff    	mov    -0x114(%ebp),%eax
    42aa:	89 44 24 04          	mov    %eax,0x4(%esp)
    42ae:	89 34 24             	mov    %esi,(%esp)
    42b1:	e8 7a 04 00 00       	call   4730 <drawctx_init>
    42b6:	8d 45 84             	lea    -0x7c(%ebp),%eax
    42b9:	89 44 24 04          	mov    %eax,0x4(%esp)
    42bd:	89 34 24             	mov    %esi,(%esp)
    42c0:	e8 5b 06 00 00       	call   4920 <drawctx_set_source>
    42c5:	8b 43 24             	mov    0x24(%ebx),%eax
    42c8:	89 44 24 10          	mov    %eax,0x10(%esp)
    42cc:	8b 43 20             	mov    0x20(%ebx),%eax
    42cf:	89 44 24 0c          	mov    %eax,0xc(%esp)
    42d3:	8b 43 1c             	mov    0x1c(%ebx),%eax
    42d6:	89 44 24 08          	mov    %eax,0x8(%esp)
    42da:	8b 43 18             	mov    0x18(%ebx),%eax
    42dd:	89 44 24 04          	mov    %eax,0x4(%esp)
    42e1:	89 34 24             	mov    %esi,(%esp)
    42e4:	e8 57 06 00 00       	call   4940 <drawctx_transfer>
    42e9:	8b 43 14             	mov    0x14(%ebx),%eax
    42ec:	89 04 24             	mov    %eax,(%esp)
    42ef:	e8 8c fe ff ff       	call   4180 <window_yield>
    42f4:	81 c4 5c 01 00 00    	add    $0x15c,%esp
    42fa:	5b                   	pop    %ebx
    42fb:	5e                   	pop    %esi
    42fc:	5f                   	pop    %edi
    42fd:	5d                   	pop    %ebp
    42fe:	c3                   	ret    
    42ff:	90                   	nop
    4300:	8b 43 14             	mov    0x14(%ebx),%eax
    4303:	89 04 24             	mov    %eax,(%esp)
    4306:	e8 75 fe ff ff       	call   4180 <window_yield>
    430b:	e9 07 ff ff ff       	jmp    4217 <paint_internal+0x27>

00004310 <canvas_repaint>:
    4310:	55                   	push   %ebp
    4311:	89 e5                	mov    %esp,%ebp
    4313:	53                   	push   %ebx
    4314:	50                   	push   %eax
    4315:	8b 5d 08             	mov    0x8(%ebp),%ebx
    4318:	89 d8                	mov    %ebx,%eax
    431a:	e8 d1 fe ff ff       	call   41f0 <paint_internal>
    431f:	8b 43 14             	mov    0x14(%ebx),%eax
    4322:	89 45 08             	mov    %eax,0x8(%ebp)
    4325:	5a                   	pop    %edx
    4326:	5b                   	pop    %ebx
    4327:	5d                   	pop    %ebp
    4328:	e9 73 fd ff ff       	jmp    40a0 <window_damage>
    432d:	8d 76 00             	lea    0x0(%esi),%esi

00004330 <canvas_rearrange>:
    4330:	55                   	push   %ebp
    4331:	89 e5                	mov    %esp,%ebp
    4333:	53                   	push   %ebx
    4334:	83 ec 24             	sub    $0x24,%esp
    4337:	8b 5d 08             	mov    0x8(%ebp),%ebx
    433a:	8b 43 5c             	mov    0x5c(%ebx),%eax
    433d:	89 44 24 10          	mov    %eax,0x10(%esp)
    4341:	8b 43 58             	mov    0x58(%ebx),%eax
    4344:	89 1c 24             	mov    %ebx,(%esp)
    4347:	89 44 24 0c          	mov    %eax,0xc(%esp)
    434b:	8b 45 10             	mov    0x10(%ebp),%eax
    434e:	89 44 24 08          	mov    %eax,0x8(%esp)
    4352:	8b 45 0c             	mov    0xc(%ebp),%eax
    4355:	89 44 24 04          	mov    %eax,0x4(%esp)
    4359:	e8 f2 e9 ff ff       	call   2d50 <widget_modify>
    435e:	83 c4 24             	add    $0x24,%esp
    4361:	89 d8                	mov    %ebx,%eax
    4363:	5b                   	pop    %ebx
    4364:	5d                   	pop    %ebp
    4365:	e9 86 fe ff ff       	jmp    41f0 <paint_internal>
    436a:	8d b6 00 00 00 00    	lea    0x0(%esi),%esi

00004370 <canvas_destroy>:
    4370:	55                   	push   %ebp
    4371:	89 e5                	mov    %esp,%ebp
    4373:	53                   	push   %ebx
    4374:	83 ec 14             	sub    $0x14,%esp
    4377:	8b 5d 08             	mov    0x8(%ebp),%ebx
    437a:	89 1c 24             	mov    %ebx,(%esp)
    437d:	e8 ee e9 ff ff       	call   2d70 <widget_deinit>
    4382:	89 5d 08             	mov    %ebx,0x8(%ebp)
    4385:	83 c4 14             	add    $0x14,%esp
    4388:	5b                   	pop    %ebx
    4389:	5d                   	pop    %ebp
    438a:	e9 71 35 01 00       	jmp    17900 <free>
    438f:	90                   	nop

00004390 <deinit_canvas>:
    4390:	55                   	push   %ebp
    4391:	89 e5                	mov    %esp,%ebp
    4393:	5d                   	pop    %ebp
    4394:	e9 d7 e9 ff ff       	jmp    2d70 <widget_deinit>
    4399:	8d b4 26 00 00 00 00 	lea    0x0(%esi,%eiz,1),%esi

000043a0 <init_canvas>:
    43a0:	55                   	push   %ebp
    43a1:	89 e5                	mov    %esp,%ebp
    43a3:	57                   	push   %edi
    43a4:	56                   	push   %esi
    43a5:	53                   	push   %ebx
    43a6:	83 ec 1c             	sub    $0x1c,%esp
    43a9:	8b 5d 08             	mov    0x8(%ebp),%ebx
    43ac:	8b 45 0c             	mov    0xc(%ebp),%eax
    43af:	89 44 24 04          	mov    %eax,0x4(%esp)
    43b3:	89 1c 24             	mov    %ebx,(%esp)
    43b6:	8b 7d 10             	mov    0x10(%ebp),%edi
    43b9:	8b 75 14             	mov    0x14(%ebp),%esi
    43bc:	e8 ef e8 ff ff       	call   2cb0 <widget_init>
    43c1:	8b 45 18             	mov    0x18(%ebp),%eax
    43c4:	89 43 60             	mov    %eax,0x60(%ebx)
    43c7:	89 7b 20             	mov    %edi,0x20(%ebx)
    43ca:	89 73 24             	mov    %esi,0x24(%ebx)
    43cd:	89 7b 28             	mov    %edi,0x28(%ebx)
    43d0:	89 73 2c             	mov    %esi,0x2c(%ebx)
    43d3:	89 7b 30             	mov    %edi,0x30(%ebx)
    43d6:	89 73 34             	mov    %esi,0x34(%ebx)
    43d9:	89 7b 38             	mov    %edi,0x38(%ebx)
    43dc:	89 73 3c             	mov    %esi,0x3c(%ebx)
    43df:	c7 43 40 70 43 00 00 	movl   $0x4370,0x40(%ebx)
    43e6:	c7 43 44 c0 41 00 00 	movl   $0x41c0,0x44(%ebx)
    43ed:	c7 43 48 30 43 00 00 	movl   $0x4330,0x48(%ebx)
    43f4:	c7 43 4c 10 43 00 00 	movl   $0x4310,0x4c(%ebx)
    43fb:	c7 43 50 d0 41 00 00 	movl   $0x41d0,0x50(%ebx)
    4402:	c7 43 54 e0 41 00 00 	movl   $0x41e0,0x54(%ebx)
    4409:	89 7b 58             	mov    %edi,0x58(%ebx)
    440c:	89 73 5c             	mov    %esi,0x5c(%ebx)
    440f:	83 c4 1c             	add    $0x1c,%esp
    4412:	b0 01                	mov    $0x1,%al
    4414:	5b                   	pop    %ebx
    4415:	5e                   	pop    %esi
    4416:	5f                   	pop    %edi
    4417:	5d                   	pop    %ebp
    4418:	c3                   	ret    
    4419:	8d b4 26 00 00 00 00 	lea    0x0(%esi,%eiz,1),%esi

00004420 <create_canvas>:
    4420:	55                   	push   %ebp
    4421:	89 e5                	mov    %esp,%ebp
    4423:	56                   	push   %esi
    4424:	53                   	push   %ebx
    4425:	83 ec 20             	sub    $0x20,%esp
    4428:	8b 75 0c             	mov    0xc(%ebp),%esi
    442b:	8b 5d 10             	mov    0x10(%ebp),%ebx
    442e:	c7 04 24 64 00 00 00 	movl   $0x64,(%esp)
    4435:	e8 b6 33 01 00       	call   177f0 <malloc>
    443a:	85 c0                	test   %eax,%eax
    443c:	74 63                	je     44a1 <create_canvas+0x81>
    443e:	8b 55 08             	mov    0x8(%ebp),%edx
    4441:	89 04 24             	mov    %eax,(%esp)
    4444:	89 54 24 04          	mov    %edx,0x4(%esp)
    4448:	89 45 f4             	mov    %eax,-0xc(%ebp)
    444b:	e8 60 e8 ff ff       	call   2cb0 <widget_init>
    4450:	8b 45 f4             	mov    -0xc(%ebp),%eax
    4453:	8b 55 14             	mov    0x14(%ebp),%edx
    4456:	89 70 20             	mov    %esi,0x20(%eax)
    4459:	89 58 24             	mov    %ebx,0x24(%eax)
    445c:	89 70 28             	mov    %esi,0x28(%eax)
    445f:	89 58 2c             	mov    %ebx,0x2c(%eax)
    4462:	89 70 30             	mov    %esi,0x30(%eax)
    4465:	89 58 34             	mov    %ebx,0x34(%eax)
    4468:	89 70 38             	mov    %esi,0x38(%eax)
    446b:	89 58 3c             	mov    %ebx,0x3c(%eax)
    446e:	c7 40 40 70 43 00 00 	movl   $0x4370,0x40(%eax)
    4475:	c7 40 44 c0 41 00 00 	movl   $0x41c0,0x44(%eax)
    447c:	c7 40 48 30 43 00 00 	movl   $0x4330,0x48(%eax)
    4483:	c7 40 4c 10 43 00 00 	movl   $0x4310,0x4c(%eax)
    448a:	c7 40 50 d0 41 00 00 	movl   $0x41d0,0x50(%eax)
    4491:	c7 40 54 e0 41 00 00 	movl   $0x41e0,0x54(%eax)
    4498:	89 70 58             	mov    %esi,0x58(%eax)
    449b:	89 58 5c             	mov    %ebx,0x5c(%eax)
    449e:	89 50 60             	mov    %edx,0x60(%eax)
    44a1:	83 c4 20             	add    $0x20,%esp
    44a4:	5b                   	pop    %ebx
    44a5:	5e                   	pop    %esi
    44a6:	5d                   	pop    %ebp
    44a7:	c3                   	ret    
    44a8:	66 90                	xchg   %ax,%ax
    44aa:	66 90                	xchg   %ax,%ax
    44ac:	66 90                	xchg   %ax,%ax
    44ae:	66 90                	xchg   %ax,%ax

000044b0 <decode_tga>:
    44b0:	55                   	push   %ebp
    44b1:	89 e5                	mov    %esp,%ebp
    44b3:	57                   	push   %edi
    44b4:	56                   	push   %esi
    44b5:	53                   	push   %ebx
    44b6:	83 ec 3c             	sub    $0x3c,%esp
    44b9:	8b 45 08             	mov    0x8(%ebp),%eax
    44bc:	83 7d 0c 11          	cmpl   $0x11,0xc(%ebp)
    44c0:	0f 86 ca 01 00 00    	jbe    4690 <decode_tga+0x1e0>
    44c6:	31 d2                	xor    %edx,%edx
    44c8:	8a 10                	mov    (%eax),%dl
    44ca:	8d 4a 12             	lea    0x12(%edx),%ecx
    44cd:	39 4d 0c             	cmp    %ecx,0xc(%ebp)
    44d0:	0f 82 ba 01 00 00    	jb     4690 <decode_tga+0x1e0>
    44d6:	8a 48 01             	mov    0x1(%eax),%cl
    44d9:	8a 58 02             	mov    0x2(%eax),%bl
    44dc:	88 4d cc             	mov    %cl,-0x34(%ebp)
    44df:	88 5d e0             	mov    %bl,-0x20(%ebp)
    44e2:	66 8b 48 05          	mov    0x5(%eax),%cx
    44e6:	31 db                	xor    %ebx,%ebx
    44e8:	81 e1 ff ff 00 00    	and    $0xffff,%ecx
    44ee:	8a 58 07             	mov    0x7(%eax),%bl
    44f1:	0f af cb             	imul   %ebx,%ecx
    44f4:	83 c1 07             	add    $0x7,%ecx
    44f7:	c1 f9 03             	sar    $0x3,%ecx
    44fa:	89 4d e4             	mov    %ecx,-0x1c(%ebp)
    44fd:	01 d1                	add    %edx,%ecx
    44ff:	89 ce                	mov    %ecx,%esi
    4501:	89 4d d4             	mov    %ecx,-0x2c(%ebp)
    4504:	83 c6 12             	add    $0x12,%esi
    4507:	39 75 0c             	cmp    %esi,0xc(%ebp)
    450a:	0f 82 80 01 00 00    	jb     4690 <decode_tga+0x1e0>
    4510:	8a 48 10             	mov    0x10(%eax),%cl
    4513:	8d 54 10 12          	lea    0x12(%eax,%edx,1),%edx
    4517:	88 4d dc             	mov    %cl,-0x24(%ebp)
    451a:	8a 48 11             	mov    0x11(%eax),%cl
    451d:	83 e1 0f             	and    $0xf,%ecx
    4520:	66 8b 58 0c          	mov    0xc(%eax),%bx
    4524:	88 4d d8             	mov    %cl,-0x28(%ebp)
    4527:	8b 4d e4             	mov    -0x1c(%ebp),%ecx
    452a:	01 ca                	add    %ecx,%edx
    452c:	66 8b 70 08          	mov    0x8(%eax),%si
    4530:	66 8b 78 0a          	mov    0xa(%eax),%di
    4534:	89 55 d0             	mov    %edx,-0x30(%ebp)
    4537:	66 8b 40 0e          	mov    0xe(%eax),%ax
    453b:	89 da                	mov    %ebx,%edx
    453d:	81 e2 ff ff 00 00    	and    $0xffff,%edx
    4543:	89 c1                	mov    %eax,%ecx
    4545:	81 e1 ff ff 00 00    	and    $0xffff,%ecx
    454b:	89 d0                	mov    %edx,%eax
    454d:	0f af c1             	imul   %ecx,%eax
    4550:	89 55 e4             	mov    %edx,-0x1c(%ebp)
    4553:	8a 55 dc             	mov    -0x24(%ebp),%dl
    4556:	81 e2 ff 00 00 00    	and    $0xff,%edx
    455c:	0f af c2             	imul   %edx,%eax
    455f:	83 c0 07             	add    $0x7,%eax
    4562:	8b 55 d4             	mov    -0x2c(%ebp),%edx
    4565:	c1 f8 03             	sar    $0x3,%eax
    4568:	8d 44 02 12          	lea    0x12(%edx,%eax,1),%eax
    456c:	39 45 0c             	cmp    %eax,0xc(%ebp)
    456f:	0f 82 1b 01 00 00    	jb     4690 <decode_tga+0x1e0>
    4575:	80 7d cc 00          	cmpb   $0x0,-0x34(%ebp)
    4579:	0f 85 11 01 00 00    	jne    4690 <decode_tga+0x1e0>
    457f:	80 7d e0 02          	cmpb   $0x2,-0x20(%ebp)
    4583:	0f 84 f7 00 00 00    	je     4680 <decode_tga+0x1d0>
    4589:	80 7d e0 03          	cmpb   $0x3,-0x20(%ebp)
    458d:	0f 85 fd 00 00 00    	jne    4690 <decode_tga+0x1e0>
    4593:	80 7d dc 08          	cmpb   $0x8,-0x24(%ebp)
    4597:	0f 85 f3 00 00 00    	jne    4690 <decode_tga+0x1e0>
    459d:	80 7d d8 00          	cmpb   $0x0,-0x28(%ebp)
    45a1:	0f 85 e9 00 00 00    	jne    4690 <decode_tga+0x1e0>
    45a7:	81 e6 ff ff 00 00    	and    $0xffff,%esi
    45ad:	8b 55 e4             	mov    -0x1c(%ebp),%edx
    45b0:	01 f2                	add    %esi,%edx
    45b2:	89 75 d8             	mov    %esi,-0x28(%ebp)
    45b5:	89 fe                	mov    %edi,%esi
    45b7:	8b 45 10             	mov    0x10(%ebp),%eax
    45ba:	81 e6 ff ff 00 00    	and    $0xffff,%esi
    45c0:	89 44 24 0c          	mov    %eax,0xc(%esp)
    45c4:	01 f1                	add    %esi,%ecx
    45c6:	c7 44 24 08 00 00 00 	movl   $0x0,0x8(%esp)
    45cd:	00 
    45ce:	89 4c 24 04          	mov    %ecx,0x4(%esp)
    45d2:	89 14 24             	mov    %edx,(%esp)
    45d5:	89 55 e4             	mov    %edx,-0x1c(%ebp)
    45d8:	89 4d d4             	mov    %ecx,-0x2c(%ebp)
    45db:	e8 10 0e 00 00       	call   53f0 <surface_create>
    45e0:	89 c7                	mov    %eax,%edi
    45e2:	85 c0                	test   %eax,%eax
    45e4:	0f 84 a6 00 00 00    	je     4690 <decode_tga+0x1e0>
    45ea:	80 7d e0 02          	cmpb   $0x2,-0x20(%ebp)
    45ee:	0f 84 a8 00 00 00    	je     469c <decode_tga+0x1ec>
    45f4:	80 7d e0 03          	cmpb   $0x3,-0x20(%ebp)
    45f8:	0f 85 94 00 00 00    	jne    4692 <decode_tga+0x1e2>
    45fe:	89 75 dc             	mov    %esi,-0x24(%ebp)
    4601:	39 75 d4             	cmp    %esi,-0x2c(%ebp)
    4604:	0f 86 88 00 00 00    	jbe    4692 <decode_tga+0x1e2>
    460a:	81 e3 ff ff 00 00    	and    $0xffff,%ebx
    4610:	8b 45 d0             	mov    -0x30(%ebp),%eax
    4613:	8b 4d d8             	mov    -0x28(%ebp),%ecx
    4616:	89 5d cc             	mov    %ebx,-0x34(%ebp)
    4619:	29 c8                	sub    %ecx,%eax
    461b:	83 f6 ff             	xor    $0xffffffff,%esi
    461e:	8b 5d d4             	mov    -0x2c(%ebp),%ebx
    4621:	89 7d e0             	mov    %edi,-0x20(%ebp)
    4624:	01 de                	add    %ebx,%esi
    4626:	89 c7                	mov    %eax,%edi
    4628:	8b 5d d8             	mov    -0x28(%ebp),%ebx
    462b:	39 5d e4             	cmp    %ebx,-0x1c(%ebp)
    462e:	76 28                	jbe    4658 <decode_tga+0x1a8>
    4630:	8d 04 1f             	lea    (%edi,%ebx,1),%eax
    4633:	89 04 24             	mov    %eax,(%esp)
    4636:	e8 b5 28 00 00       	call   6ef0 <gray_8_2pixel>
    463b:	89 5c 24 04          	mov    %ebx,0x4(%esp)
    463f:	89 44 24 0c          	mov    %eax,0xc(%esp)
    4643:	8b 45 e0             	mov    -0x20(%ebp),%eax
    4646:	89 74 24 08          	mov    %esi,0x8(%esp)
    464a:	89 04 24             	mov    %eax,(%esp)
    464d:	43                   	inc    %ebx
    464e:	e8 cd 10 00 00       	call   5720 <surface_put_pixel>
    4653:	39 5d e4             	cmp    %ebx,-0x1c(%ebp)
    4656:	77 d8                	ja     4630 <decode_tga+0x180>
    4658:	8b 45 dc             	mov    -0x24(%ebp),%eax
    465b:	8b 55 cc             	mov    -0x34(%ebp),%edx
    465e:	40                   	inc    %eax
    465f:	01 d7                	add    %edx,%edi
    4661:	89 45 dc             	mov    %eax,-0x24(%ebp)
    4664:	4e                   	dec    %esi
    4665:	8b 55 dc             	mov    -0x24(%ebp),%edx
    4668:	39 55 d4             	cmp    %edx,-0x2c(%ebp)
    466b:	77 bb                	ja     4628 <decode_tga+0x178>
    466d:	8b 7d e0             	mov    -0x20(%ebp),%edi
    4670:	83 c4 3c             	add    $0x3c,%esp
    4673:	89 f8                	mov    %edi,%eax
    4675:	5b                   	pop    %ebx
    4676:	5e                   	pop    %esi
    4677:	5f                   	pop    %edi
    4678:	5d                   	pop    %ebp
    4679:	c3                   	ret    
    467a:	8d b6 00 00 00 00    	lea    0x0(%esi),%esi
    4680:	80 7d dc 18          	cmpb   $0x18,-0x24(%ebp)
    4684:	0f 84 13 ff ff ff    	je     459d <decode_tga+0xed>
    468a:	8d b6 00 00 00 00    	lea    0x0(%esi),%esi
    4690:	31 ff                	xor    %edi,%edi
    4692:	83 c4 3c             	add    $0x3c,%esp
    4695:	89 f8                	mov    %edi,%eax
    4697:	5b                   	pop    %ebx
    4698:	5e                   	pop    %esi
    4699:	5f                   	pop    %edi
    469a:	5d                   	pop    %ebp
    469b:	c3                   	ret    
    469c:	89 75 dc             	mov    %esi,-0x24(%ebp)
    469f:	39 75 d4             	cmp    %esi,-0x2c(%ebp)
    46a2:	76 ee                	jbe    4692 <decode_tga+0x1e2>
    46a4:	89 d8                	mov    %ebx,%eax
    46a6:	83 f6 ff             	xor    $0xffffffff,%esi
    46a9:	25 ff ff 00 00       	and    $0xffff,%eax
    46ae:	89 7d e0             	mov    %edi,-0x20(%ebp)
    46b1:	8d 04 40             	lea    (%eax,%eax,2),%eax
    46b4:	89 45 cc             	mov    %eax,-0x34(%ebp)
    46b7:	8b 45 d4             	mov    -0x2c(%ebp),%eax
    46ba:	01 c6                	add    %eax,%esi
    46bc:	8d 74 26 00          	lea    0x0(%esi,%eiz,1),%esi
    46c0:	8b 5d d8             	mov    -0x28(%ebp),%ebx
    46c3:	8b 7d d0             	mov    -0x30(%ebp),%edi
    46c6:	39 5d e4             	cmp    %ebx,-0x1c(%ebp)
    46c9:	76 2d                	jbe    46f8 <decode_tga+0x248>
    46cb:	90                   	nop
    46cc:	8d 74 26 00          	lea    0x0(%esi,%eiz,1),%esi
    46d0:	89 3c 24             	mov    %edi,(%esp)
    46d3:	83 c7 03             	add    $0x3,%edi
    46d6:	e8 a5 26 00 00       	call   6d80 <bgr_888_2pixel>
    46db:	89 5c 24 04          	mov    %ebx,0x4(%esp)
    46df:	89 44 24 0c          	mov    %eax,0xc(%esp)
    46e3:	8b 45 e0             	mov    -0x20(%ebp),%eax
    46e6:	89 74 24 08          	mov    %esi,0x8(%esp)
    46ea:	89 04 24             	mov    %eax,(%esp)
    46ed:	43                   	inc    %ebx
    46ee:	e8 2d 10 00 00       	call   5720 <surface_put_pixel>
    46f3:	39 5d e4             	cmp    %ebx,-0x1c(%ebp)
    46f6:	77 d8                	ja     46d0 <decode_tga+0x220>
    46f8:	8b 7d dc             	mov    -0x24(%ebp),%edi
    46fb:	8b 45 d0             	mov    -0x30(%ebp),%eax
    46fe:	47                   	inc    %edi
    46ff:	8b 4d cc             	mov    -0x34(%ebp),%ecx
    4702:	89 7d dc             	mov    %edi,-0x24(%ebp)
    4705:	01 c8                	add    %ecx,%eax
    4707:	8b 5d dc             	mov    -0x24(%ebp),%ebx
    470a:	4e                   	dec    %esi
    470b:	89 45 d0             	mov    %eax,-0x30(%ebp)
    470e:	39 5d d4             	cmp    %ebx,-0x2c(%ebp)
    4711:	77 ad                	ja     46c0 <decode_tga+0x210>
    4713:	e9 55 ff ff ff       	jmp    466d <decode_tga+0x1bd>
    4718:	90                   	nop
    4719:	8d b4 26 00 00 00 00 	lea    0x0(%esi,%eiz,1),%esi

00004720 <encode_tga>:
    4720:	55                   	push   %ebp
    4721:	31 c0                	xor    %eax,%eax
    4723:	89 e5                	mov    %esp,%ebp
    4725:	5d                   	pop    %ebp
    4726:	c3                   	ret    
    4727:	66 90                	xchg   %ax,%ax
    4729:	66 90                	xchg   %ax,%ax
    472b:	66 90                	xchg   %ax,%ax
    472d:	66 90                	xchg   %ax,%ax
    472f:	90                   	nop

00004730 <drawctx_init>:
    4730:	55                   	push   %ebp
    4731:	89 e5                	mov    %esp,%ebp
    4733:	83 ec 18             	sub    $0x18,%esp
    4736:	8b 55 0c             	mov    0xc(%ebp),%edx
    4739:	8b 45 08             	mov    0x8(%ebp),%eax
    473c:	85 d2                	test   %edx,%edx
    473e:	74 4b                	je     478b <drawctx_init+0x5b>
    4740:	8d 48 08             	lea    0x8(%eax),%ecx
    4743:	89 50 10             	mov    %edx,0x10(%eax)
    4746:	89 48 08             	mov    %ecx,0x8(%eax)
    4749:	89 48 0c             	mov    %ecx,0xc(%eax)
    474c:	c7 40 14 e0 64 00 00 	movl   $0x64e0,0x14(%eax)
    4753:	c7 40 18 00 00 00 00 	movl   $0x0,0x18(%eax)
    475a:	c7 40 1c 00 00 00 00 	movl   $0x0,0x1c(%eax)
    4761:	c6 40 24 00          	movb   $0x0,0x24(%eax)
    4765:	c7 40 28 00 00 00 00 	movl   $0x0,0x28(%eax)
    476c:	c7 40 2c 00 00 00 00 	movl   $0x0,0x2c(%eax)
    4773:	8d 48 34             	lea    0x34(%eax),%ecx
    4776:	83 c0 30             	add    $0x30,%eax
    4779:	89 4c 24 08          	mov    %ecx,0x8(%esp)
    477d:	89 44 24 04          	mov    %eax,0x4(%esp)
    4781:	89 14 24             	mov    %edx,(%esp)
    4784:	e8 c7 0d 00 00       	call   5550 <surface_get_resolution>
    4789:	c9                   	leave  
    478a:	c3                   	ret    
    478b:	c7 44 24 08 2d 00 00 	movl   $0x2d,0x8(%esp)
    4792:	00 
    4793:	c7 44 24 04 7c 44 02 	movl   $0x2447c,0x4(%esp)
    479a:	00 
    479b:	c7 04 24 86 44 02 00 	movl   $0x24486,(%esp)
    47a2:	e8 29 d9 01 00       	call   220d0 <assert_abort>
    47a7:	89 f6                	mov    %esi,%esi
    47a9:	8d bc 27 00 00 00 00 	lea    0x0(%edi,%eiz,1),%edi

000047b0 <drawctx_save>:
    47b0:	55                   	push   %ebp
    47b1:	89 e5                	mov    %esp,%ebp
    47b3:	53                   	push   %ebx
    47b4:	83 ec 14             	sub    $0x14,%esp
    47b7:	8b 5d 08             	mov    0x8(%ebp),%ebx
    47ba:	c7 04 24 38 00 00 00 	movl   $0x38,(%esp)
    47c1:	e8 2a 30 01 00       	call   177f0 <malloc>
    47c6:	85 c0                	test   %eax,%eax
    47c8:	74 47                	je     4811 <drawctx_save+0x61>
    47ca:	8b 53 14             	mov    0x14(%ebx),%edx
    47cd:	c7 00 00 00 00 00    	movl   $0x0,(%eax)
    47d3:	89 50 14             	mov    %edx,0x14(%eax)
    47d6:	8b 53 18             	mov    0x18(%ebx),%edx
    47d9:	89 50 18             	mov    %edx,0x18(%eax)
    47dc:	8b 53 1c             	mov    0x1c(%ebx),%edx
    47df:	89 50 1c             	mov    %edx,0x1c(%eax)
    47e2:	8a 53 24             	mov    0x24(%ebx),%dl
    47e5:	88 50 24             	mov    %dl,0x24(%eax)
    47e8:	8b 53 28             	mov    0x28(%ebx),%edx
    47eb:	89 50 28             	mov    %edx,0x28(%eax)
    47ee:	8b 53 2c             	mov    0x2c(%ebx),%edx
    47f1:	89 50 2c             	mov    %edx,0x2c(%eax)
    47f4:	8b 53 30             	mov    0x30(%ebx),%edx
    47f7:	89 50 30             	mov    %edx,0x30(%eax)
    47fa:	8b 53 34             	mov    0x34(%ebx),%edx
    47fd:	89 50 34             	mov    %edx,0x34(%eax)
    4800:	8d 53 08             	lea    0x8(%ebx),%edx
    4803:	89 50 04             	mov    %edx,0x4(%eax)
    4806:	8b 53 08             	mov    0x8(%ebx),%edx
    4809:	89 10                	mov    %edx,(%eax)
    480b:	89 43 08             	mov    %eax,0x8(%ebx)
    480e:	89 42 04             	mov    %eax,0x4(%edx)
    4811:	83 c4 14             	add    $0x14,%esp
    4814:	5b                   	pop    %ebx
    4815:	5d                   	pop    %ebp
    4816:	c3                   	ret    
    4817:	89 f6                	mov    %esi,%esi
    4819:	8d bc 27 00 00 00 00 	lea    0x0(%edi,%eiz,1),%edi

00004820 <drawctx_restore>:
    4820:	55                   	push   %ebp
    4821:	89 e5                	mov    %esp,%ebp
    4823:	53                   	push   %ebx
    4824:	8b 55 08             	mov    0x8(%ebp),%edx
    4827:	8b 42 08             	mov    0x8(%edx),%eax
    482a:	8d 4a 08             	lea    0x8(%edx),%ecx
    482d:	39 c8                	cmp    %ecx,%eax
    482f:	74 5f                	je     4890 <drawctx_restore+0x70>
    4831:	85 c0                	test   %eax,%eax
    4833:	74 5b                	je     4890 <drawctx_restore+0x70>
    4835:	8b 18                	mov    (%eax),%ebx
    4837:	85 db                	test   %ebx,%ebx
    4839:	74 0e                	je     4849 <drawctx_restore+0x29>
    483b:	8b 48 04             	mov    0x4(%eax),%ecx
    483e:	85 c9                	test   %ecx,%ecx
    4840:	74 07                	je     4849 <drawctx_restore+0x29>
    4842:	89 19                	mov    %ebx,(%ecx)
    4844:	8b 18                	mov    (%eax),%ebx
    4846:	89 4b 04             	mov    %ecx,0x4(%ebx)
    4849:	8b 48 14             	mov    0x14(%eax),%ecx
    484c:	c7 00 00 00 00 00    	movl   $0x0,(%eax)
    4852:	c7 40 04 00 00 00 00 	movl   $0x0,0x4(%eax)
    4859:	89 4a 14             	mov    %ecx,0x14(%edx)
    485c:	8b 48 18             	mov    0x18(%eax),%ecx
    485f:	89 4a 18             	mov    %ecx,0x18(%edx)
    4862:	8b 48 1c             	mov    0x1c(%eax),%ecx
    4865:	89 4a 1c             	mov    %ecx,0x1c(%edx)
    4868:	8a 48 24             	mov    0x24(%eax),%cl
    486b:	88 4a 24             	mov    %cl,0x24(%edx)
    486e:	8b 48 28             	mov    0x28(%eax),%ecx
    4871:	89 4a 28             	mov    %ecx,0x28(%edx)
    4874:	8b 48 2c             	mov    0x2c(%eax),%ecx
    4877:	89 4a 2c             	mov    %ecx,0x2c(%edx)
    487a:	8b 48 30             	mov    0x30(%eax),%ecx
    487d:	89 4a 30             	mov    %ecx,0x30(%edx)
    4880:	8b 48 34             	mov    0x34(%eax),%ecx
    4883:	89 4a 34             	mov    %ecx,0x34(%edx)
    4886:	89 45 08             	mov    %eax,0x8(%ebp)
    4889:	5b                   	pop    %ebx
    488a:	5d                   	pop    %ebp
    488b:	e9 70 30 01 00       	jmp    17900 <free>
    4890:	5b                   	pop    %ebx
    4891:	5d                   	pop    %ebp
    4892:	c3                   	ret    
    4893:	8d b6 00 00 00 00    	lea    0x0(%esi),%esi
    4899:	8d bc 27 00 00 00 00 	lea    0x0(%edi,%eiz,1),%edi

000048a0 <drawctx_set_compose>:
    48a0:	55                   	push   %ebp
    48a1:	89 e5                	mov    %esp,%ebp
    48a3:	8b 45 08             	mov    0x8(%ebp),%eax
    48a6:	8b 55 0c             	mov    0xc(%ebp),%edx
    48a9:	89 50 14             	mov    %edx,0x14(%eax)
    48ac:	5d                   	pop    %ebp
    48ad:	c3                   	ret    
    48ae:	66 90                	xchg   %ax,%ax

000048b0 <drawctx_set_clip>:
    48b0:	55                   	push   %ebp
    48b1:	89 e5                	mov    %esp,%ebp
    48b3:	57                   	push   %edi
    48b4:	56                   	push   %esi
    48b5:	53                   	push   %ebx
    48b6:	83 ec 1c             	sub    $0x1c,%esp
    48b9:	8b 5d 08             	mov    0x8(%ebp),%ebx
    48bc:	8b 75 0c             	mov    0xc(%ebp),%esi
    48bf:	8b 7d 14             	mov    0x14(%ebp),%edi
    48c2:	8d 53 34             	lea    0x34(%ebx),%edx
    48c5:	89 54 24 08          	mov    %edx,0x8(%esp)
    48c9:	8d 53 30             	lea    0x30(%ebx),%edx
    48cc:	89 54 24 04          	mov    %edx,0x4(%esp)
    48d0:	8b 53 10             	mov    0x10(%ebx),%edx
    48d3:	89 14 24             	mov    %edx,(%esp)
    48d6:	e8 75 0c 00 00       	call   5550 <surface_get_resolution>
    48db:	8b 45 10             	mov    0x10(%ebp),%eax
    48de:	b2 01                	mov    $0x1,%dl
    48e0:	09 f0                	or     %esi,%eax
    48e2:	75 0e                	jne    48f2 <drawctx_set_clip+0x42>
    48e4:	39 7b 30             	cmp    %edi,0x30(%ebx)
    48e7:	77 09                	ja     48f2 <drawctx_set_clip+0x42>
    48e9:	8b 45 18             	mov    0x18(%ebp),%eax
    48ec:	39 43 34             	cmp    %eax,0x34(%ebx)
    48ef:	0f 97 c2             	seta   %dl
    48f2:	8b 45 10             	mov    0x10(%ebp),%eax
    48f5:	88 53 24             	mov    %dl,0x24(%ebx)
    48f8:	89 43 2c             	mov    %eax,0x2c(%ebx)
    48fb:	8b 45 18             	mov    0x18(%ebp),%eax
    48fe:	89 73 28             	mov    %esi,0x28(%ebx)
    4901:	89 7b 30             	mov    %edi,0x30(%ebx)
    4904:	89 43 34             	mov    %eax,0x34(%ebx)
    4907:	83 c4 1c             	add    $0x1c,%esp
    490a:	5b                   	pop    %ebx
    490b:	5e                   	pop    %esi
    490c:	5f                   	pop    %edi
    490d:	5d                   	pop    %ebp
    490e:	c3                   	ret    
    490f:	90                   	nop

00004910 <drawctx_set_mask>:
    4910:	55                   	push   %ebp
    4911:	89 e5                	mov    %esp,%ebp
    4913:	8b 45 08             	mov    0x8(%ebp),%eax
    4916:	8b 55 0c             	mov    0xc(%ebp),%edx
    4919:	89 50 18             	mov    %edx,0x18(%eax)
    491c:	5d                   	pop    %ebp
    491d:	c3                   	ret    
    491e:	66 90                	xchg   %ax,%ax

00004920 <drawctx_set_source>:
    4920:	55                   	push   %ebp
    4921:	89 e5                	mov    %esp,%ebp
    4923:	8b 45 08             	mov    0x8(%ebp),%eax
    4926:	8b 55 0c             	mov    0xc(%ebp),%edx
    4929:	89 50 1c             	mov    %edx,0x1c(%eax)
    492c:	5d                   	pop    %ebp
    492d:	c3                   	ret    
    492e:	66 90                	xchg   %ax,%ax

00004930 <drawctx_set_font>:
    4930:	55                   	push   %ebp
    4931:	89 e5                	mov    %esp,%ebp
    4933:	8b 45 08             	mov    0x8(%ebp),%eax
    4936:	8b 55 0c             	mov    0xc(%ebp),%edx
    4939:	89 50 20             	mov    %edx,0x20(%eax)
    493c:	5d                   	pop    %ebp
    493d:	c3                   	ret    
    493e:	66 90                	xchg   %ax,%ax

00004940 <drawctx_transfer>:
    4940:	55                   	push   %ebp
    4941:	89 e5                	mov    %esp,%ebp
    4943:	57                   	push   %edi
    4944:	56                   	push   %esi
    4945:	53                   	push   %ebx
    4946:	83 ec 6c             	sub    $0x6c,%esp
    4949:	8b 75 0c             	mov    0xc(%ebp),%esi
    494c:	8b 7d 08             	mov    0x8(%ebp),%edi
    494f:	89 75 c4             	mov    %esi,-0x3c(%ebp)
    4952:	8b 75 10             	mov    0x10(%ebp),%esi
    4955:	89 75 c8             	mov    %esi,-0x38(%ebp)
    4958:	8b 47 1c             	mov    0x1c(%edi),%eax
    495b:	8b 75 18             	mov    0x18(%ebp),%esi
    495e:	8b 5d 14             	mov    0x14(%ebp),%ebx
    4961:	89 75 c0             	mov    %esi,-0x40(%ebp)
    4964:	85 c0                	test   %eax,%eax
    4966:	0f 84 32 01 00 00    	je     4a9e <drawctx_transfer+0x15e>
    496c:	89 04 24             	mov    %eax,(%esp)
    496f:	e8 fc 07 00 00       	call   5170 <source_is_fast>
    4974:	84 c0                	test   %al,%al
    4976:	0f 85 2a 01 00 00    	jne    4aa6 <drawctx_transfer+0x166>
    497c:	8b 75 c0             	mov    -0x40(%ebp),%esi
    497f:	8b 45 c8             	mov    -0x38(%ebp),%eax
    4982:	01 c6                	add    %eax,%esi
    4984:	89 75 c0             	mov    %esi,-0x40(%ebp)
    4987:	39 75 c8             	cmp    %esi,-0x38(%ebp)
    498a:	0f 83 0e 01 00 00    	jae    4a9e <drawctx_transfer+0x15e>
    4990:	8b 4d c4             	mov    -0x3c(%ebp),%ecx
    4993:	8b 75 c8             	mov    -0x38(%ebp),%esi
    4996:	01 cb                	add    %ecx,%ebx
    4998:	c6 45 d0 00          	movb   $0x0,-0x30(%ebp)
    499c:	89 5d d8             	mov    %ebx,-0x28(%ebp)
    499f:	31 c9                	xor    %ecx,%ecx
    49a1:	8d b4 26 00 00 00 00 	lea    0x0(%esi,%eiz,1),%esi
    49a8:	8b 5d c4             	mov    -0x3c(%ebp),%ebx
    49ab:	89 75 c8             	mov    %esi,-0x38(%ebp)
    49ae:	c7 45 cc 00 00 00 00 	movl   $0x0,-0x34(%ebp)
    49b5:	39 5d d8             	cmp    %ebx,-0x28(%ebp)
    49b8:	77 10                	ja     49ca <drawctx_transfer+0x8a>
    49ba:	e9 d5 00 00 00       	jmp    4a94 <drawctx_transfer+0x154>
    49bf:	90                   	nop
    49c0:	43                   	inc    %ebx
    49c1:	39 5d d8             	cmp    %ebx,-0x28(%ebp)
    49c4:	0f 86 ca 00 00 00    	jbe    4a94 <drawctx_transfer+0x154>
    49ca:	80 7f 24 00          	cmpb   $0x0,0x24(%edi)
    49ce:	74 28                	je     49f8 <drawctx_transfer+0xb8>
    49d0:	39 5f 28             	cmp    %ebx,0x28(%edi)
    49d3:	0f 86 c7 01 00 00    	jbe    4ba0 <drawctx_transfer+0x260>
    49d9:	39 5f 30             	cmp    %ebx,0x30(%edi)
    49dc:	0f 87 be 01 00 00    	ja     4ba0 <drawctx_transfer+0x260>
    49e2:	39 77 2c             	cmp    %esi,0x2c(%edi)
    49e5:	0f 86 b5 01 00 00    	jbe    4ba0 <drawctx_transfer+0x260>
    49eb:	3b 77 34             	cmp    0x34(%edi),%esi
    49ee:	0f 93 45 d0          	setae  -0x30(%ebp)
    49f2:	8d b6 00 00 00 00    	lea    0x0(%esi),%esi
    49f8:	8a 45 d0             	mov    -0x30(%ebp),%al
    49fb:	83 f0 01             	xor    $0x1,%eax
    49fe:	88 45 df             	mov    %al,-0x21(%ebp)
    4a01:	8b 47 18             	mov    0x18(%edi),%eax
    4a04:	85 c0                	test   %eax,%eax
    4a06:	74 15                	je     4a1d <drawctx_transfer+0xdd>
    4a08:	89 74 24 08          	mov    %esi,0x8(%esp)
    4a0c:	89 5c 24 04          	mov    %ebx,0x4(%esp)
    4a10:	89 04 24             	mov    %eax,(%esp)
    4a13:	e8 78 0d 00 00       	call   5790 <surface_get_pixel>
    4a18:	85 c0                	test   %eax,%eax
    4a1a:	0f 94 c1             	sete   %cl
    4a1d:	84 c9                	test   %cl,%cl
    4a1f:	75 9f                	jne    49c0 <drawctx_transfer+0x80>
    4a21:	80 7d df 00          	cmpb   $0x0,-0x21(%ebp)
    4a25:	74 99                	je     49c0 <drawctx_transfer+0x80>
    4a27:	df 6d c8             	fildll -0x38(%ebp)
    4a2a:	31 d2                	xor    %edx,%edx
    4a2c:	89 5d e0             	mov    %ebx,-0x20(%ebp)
    4a2f:	dd 5c 24 0c          	fstpl  0xc(%esp)
    4a33:	89 55 e4             	mov    %edx,-0x1c(%ebp)
    4a36:	df 6d e0             	fildll -0x20(%ebp)
    4a39:	dd 5c 24 04          	fstpl  0x4(%esp)
    4a3d:	8b 47 1c             	mov    0x1c(%edi),%eax
    4a40:	88 4d bc             	mov    %cl,-0x44(%ebp)
    4a43:	89 04 24             	mov    %eax,(%esp)
    4a46:	e8 55 08 00 00       	call   52a0 <source_determine_pixel>
    4a4b:	89 5c 24 04          	mov    %ebx,0x4(%esp)
    4a4f:	89 74 24 08          	mov    %esi,0x8(%esp)
    4a53:	89 c2                	mov    %eax,%edx
    4a55:	8b 47 10             	mov    0x10(%edi),%eax
    4a58:	89 55 b8             	mov    %edx,-0x48(%ebp)
    4a5b:	89 04 24             	mov    %eax,(%esp)
    4a5e:	e8 2d 0d 00 00       	call   5790 <surface_get_pixel>
    4a63:	8b 55 b8             	mov    -0x48(%ebp),%edx
    4a66:	89 14 24             	mov    %edx,(%esp)
    4a69:	89 44 24 04          	mov    %eax,0x4(%esp)
    4a6d:	ff 57 14             	call   *0x14(%edi)
    4a70:	89 5c 24 04          	mov    %ebx,0x4(%esp)
    4a74:	89 44 24 0c          	mov    %eax,0xc(%esp)
    4a78:	89 74 24 08          	mov    %esi,0x8(%esp)
    4a7c:	8b 47 10             	mov    0x10(%edi),%eax
    4a7f:	43                   	inc    %ebx
    4a80:	89 04 24             	mov    %eax,(%esp)
    4a83:	e8 98 0c 00 00       	call   5720 <surface_put_pixel>
    4a88:	8a 4d bc             	mov    -0x44(%ebp),%cl
    4a8b:	39 5d d8             	cmp    %ebx,-0x28(%ebp)
    4a8e:	0f 87 36 ff ff ff    	ja     49ca <drawctx_transfer+0x8a>
    4a94:	46                   	inc    %esi
    4a95:	3b 75 c0             	cmp    -0x40(%ebp),%esi
    4a98:	0f 82 0a ff ff ff    	jb     49a8 <drawctx_transfer+0x68>
    4a9e:	83 c4 6c             	add    $0x6c,%esp
    4aa1:	5b                   	pop    %ebx
    4aa2:	5e                   	pop    %esi
    4aa3:	5f                   	pop    %edi
    4aa4:	5d                   	pop    %ebp
    4aa5:	c3                   	ret    
    4aa6:	80 7f 24 00          	cmpb   $0x0,0x24(%edi)
    4aaa:	0f 85 cc fe ff ff    	jne    497c <drawctx_transfer+0x3c>
    4ab0:	8b 57 18             	mov    0x18(%edi),%edx
    4ab3:	85 d2                	test   %edx,%edx
    4ab5:	0f 85 c1 fe ff ff    	jne    497c <drawctx_transfer+0x3c>
    4abb:	8b 47 14             	mov    0x14(%edi),%eax
    4abe:	3d e0 64 00 00       	cmp    $0x64e0,%eax
    4ac3:	74 0b                	je     4ad0 <drawctx_transfer+0x190>
    4ac5:	3d 00 65 00 00       	cmp    $0x6500,%eax
    4aca:	0f 85 ac fe ff ff    	jne    497c <drawctx_transfer+0x3c>
    4ad0:	8b 45 c8             	mov    -0x38(%ebp),%eax
    4ad3:	8b 75 c0             	mov    -0x40(%ebp),%esi
    4ad6:	01 c6                	add    %eax,%esi
    4ad8:	89 75 d8             	mov    %esi,-0x28(%ebp)
    4adb:	8b 75 c8             	mov    -0x38(%ebp),%esi
    4ade:	8b 45 d8             	mov    -0x28(%ebp),%eax
    4ae1:	39 c6                	cmp    %eax,%esi
    4ae3:	0f 83 8b 00 00 00    	jae    4b74 <drawctx_transfer+0x234>
    4ae9:	8b 45 c4             	mov    -0x3c(%ebp),%eax
    4aec:	31 d2                	xor    %edx,%edx
    4aee:	89 45 e0             	mov    %eax,-0x20(%ebp)
    4af1:	89 55 e4             	mov    %edx,-0x1c(%ebp)
    4af4:	df 6d e0             	fildll -0x20(%ebp)
    4af7:	dd 5d d0             	fstpl  -0x30(%ebp)
    4afa:	8d b6 00 00 00 00    	lea    0x0(%esi),%esi
    4b00:	31 d2                	xor    %edx,%edx
    4b02:	89 75 e0             	mov    %esi,-0x20(%ebp)
    4b05:	89 55 e4             	mov    %edx,-0x1c(%ebp)
    4b08:	df 6d e0             	fildll -0x20(%ebp)
    4b0b:	dd 5c 24 0c          	fstpl  0xc(%esp)
    4b0f:	dd 45 d0             	fldl   -0x30(%ebp)
    4b12:	dd 5c 24 04          	fstpl  0x4(%esp)
    4b16:	8b 47 1c             	mov    0x1c(%edi),%eax
    4b19:	89 04 24             	mov    %eax,(%esp)
    4b1c:	e8 8f 06 00 00       	call   51b0 <source_direct_access>
    4b21:	89 c1                	mov    %eax,%ecx
    4b23:	8b 47 10             	mov    0x10(%edi),%eax
    4b26:	89 04 24             	mov    %eax,(%esp)
    4b29:	89 4d bc             	mov    %ecx,-0x44(%ebp)
    4b2c:	e8 0f 0a 00 00       	call   5540 <surface_pixmap_access>
    4b31:	8b 4d bc             	mov    -0x44(%ebp),%ecx
    4b34:	8b 10                	mov    (%eax),%edx
    4b36:	39 55 c4             	cmp    %edx,-0x3c(%ebp)
    4b39:	73 33                	jae    4b6e <drawctx_transfer+0x22e>
    4b3b:	3b 70 04             	cmp    0x4(%eax),%esi
    4b3e:	73 2e                	jae    4b6e <drawctx_transfer+0x22e>
    4b40:	0f af d6             	imul   %esi,%edx
    4b43:	03 55 c4             	add    -0x3c(%ebp),%edx
    4b46:	8b 40 08             	mov    0x8(%eax),%eax
    4b49:	8d 04 90             	lea    (%eax,%edx,4),%eax
    4b4c:	85 c0                	test   %eax,%eax
    4b4e:	74 1e                	je     4b6e <drawctx_transfer+0x22e>
    4b50:	85 c9                	test   %ecx,%ecx
    4b52:	74 1a                	je     4b6e <drawctx_transfer+0x22e>
    4b54:	85 db                	test   %ebx,%ebx
    4b56:	74 16                	je     4b6e <drawctx_transfer+0x22e>
    4b58:	31 d2                	xor    %edx,%edx
    4b5a:	89 75 b4             	mov    %esi,-0x4c(%ebp)
    4b5d:	8d 76 00             	lea    0x0(%esi),%esi
    4b60:	8b 34 91             	mov    (%ecx,%edx,4),%esi
    4b63:	89 34 90             	mov    %esi,(%eax,%edx,4)
    4b66:	42                   	inc    %edx
    4b67:	39 da                	cmp    %ebx,%edx
    4b69:	75 f5                	jne    4b60 <drawctx_transfer+0x220>
    4b6b:	8b 75 b4             	mov    -0x4c(%ebp),%esi
    4b6e:	46                   	inc    %esi
    4b6f:	3b 75 d8             	cmp    -0x28(%ebp),%esi
