
fileexplorer:     file format elf32-i386


Disassembly of section .init:

00001094 <__entry>:
    1094:	66 8c d0             	mov    %ss,%ax
    1097:	8e d8                	mov    %eax,%ds
    1099:	8e c0                	mov    %eax,%es
    109b:	8e e0                	mov    %eax,%fs
    109d:	b8 01 00 00 00       	mov    $0x1,%eax
    10a2:	0f a2                	cpuid  
    10a4:	0f ba e2 0b          	bt     $0xb,%edx
    10a8:	73 0c                	jae    10b6 <__entry+0x22>
    10aa:	8d 05 14 2f 03 00    	lea    0x32f14,%eax
    10b0:	c7 00 f7 28 02 00    	movl   $0x228f7,(%eax)
    10b6:	6a 00                	push   $0x0
    10b8:	89 e5                	mov    %esp,%ebp
    10ba:	57                   	push   %edi
    10bb:	e8 e0 6e 00 00       	call   7fa0 <__main>

Disassembly of section .text:

000010c0 <backs>:
    10c0:	55                   	push   %ebp
    10c1:	a1 84 2f 03 00       	mov    0x32f84,%eax
    10c6:	89 e5                	mov    %esp,%ebp
    10c8:	89 45 08             	mov    %eax,0x8(%ebp)
    10cb:	5d                   	pop    %ebp
    10cc:	e9 4f 45 00 00       	jmp    5620 <window_close>
    10d1:	eb 0d                	jmp    10e0 <button29>
    10d3:	90                   	nop
    10d4:	90                   	nop
    10d5:	90                   	nop
    10d6:	90                   	nop
    10d7:	90                   	nop
    10d8:	90                   	nop
    10d9:	90                   	nop
    10da:	90                   	nop
    10db:	90                   	nop
    10dc:	90                   	nop
    10dd:	90                   	nop
    10de:	90                   	nop
    10df:	90                   	nop

000010e0 <button29>:
    10e0:	55                   	push   %ebp
    10e1:	89 e5                	mov    %esp,%ebp
    10e3:	83 ec 38             	sub    $0x38,%esp
    10e6:	a1 14 30 03 00       	mov    0x33014,%eax
    10eb:	89 44 24 0c          	mov    %eax,0xc(%esp)
    10ef:	8d 45 f0             	lea    -0x10(%ebp),%eax
    10f2:	c7 44 24 10 00 00 00 	movl   $0x0,0x10(%esp)
    10f9:	00 
    10fa:	c7 44 24 08 a2 4a 02 	movl   $0x24aa2,0x8(%esp)
    1101:	00 
    1102:	c7 44 24 04 a2 4a 02 	movl   $0x24aa2,0x4(%esp)
    1109:	00 
    110a:	89 04 24             	mov    %eax,(%esp)
    110d:	e8 0e f4 00 00       	call   10520 <task_spawnl>
    1112:	85 c0                	test   %eax,%eax
    1114:	75 5a                	jne    1170 <button29+0x90>
    1116:	8d 45 ec             	lea    -0x14(%ebp),%eax
    1119:	8b 55 f4             	mov    -0xc(%ebp),%edx
    111c:	89 44 24 0c          	mov    %eax,0xc(%esp)
    1120:	8d 45 e8             	lea    -0x18(%ebp),%eax
    1123:	89 44 24 08          	mov    %eax,0x8(%esp)
    1127:	8b 45 f0             	mov    -0x10(%ebp),%eax
    112a:	89 04 24             	mov    %eax,(%esp)
    112d:	89 54 24 04          	mov    %edx,0x4(%esp)
    1131:	e8 fa f4 00 00       	call   10630 <task_wait>
    1136:	85 c0                	test   %eax,%eax
    1138:	75 0e                	jne    1148 <button29+0x68>
    113a:	8b 55 e8             	mov    -0x18(%ebp),%edx
    113d:	85 d2                	test   %edx,%edx
    113f:	75 07                	jne    1148 <button29+0x68>
    1141:	c9                   	leave  
    1142:	c3                   	ret    
    1143:	90                   	nop
    1144:	8d 74 26 00          	lea    0x0(%esi,%eiz,1),%esi
    1148:	89 04 24             	mov    %eax,(%esp)
    114b:	e8 80 d2 00 00       	call   e3d0 <str_error>
    1150:	c7 44 24 04 a2 4a 02 	movl   $0x24aa2,0x4(%esp)
    1157:	00 
    1158:	89 44 24 08          	mov    %eax,0x8(%esp)
    115c:	c7 04 24 54 4b 02 00 	movl   $0x24b54,(%esp)
    1163:	e8 e8 1b 01 00       	call   12d50 <printf>
    1168:	c9                   	leave  
    1169:	c3                   	ret    
    116a:	8d b6 00 00 00 00    	lea    0x0(%esi),%esi
    1170:	89 04 24             	mov    %eax,(%esp)
    1173:	e8 58 d2 00 00       	call   e3d0 <str_error>
    1178:	c7 44 24 04 a2 4a 02 	movl   $0x24aa2,0x4(%esp)
    117f:	00 
    1180:	89 44 24 0c          	mov    %eax,0xc(%esp)
    1184:	a1 80 2f 03 00       	mov    0x32f80,%eax
    1189:	89 44 24 08          	mov    %eax,0x8(%esp)
    118d:	c7 04 24 b4 4a 02 00 	movl   $0x24ab4,(%esp)
    1194:	e8 b7 1b 01 00       	call   12d50 <printf>
    1199:	c9                   	leave  
    119a:	c3                   	ret    
    119b:	90                   	nop
    119c:	8d 74 26 00          	lea    0x0(%esi,%eiz,1),%esi

000011a0 <button0>:
    11a0:	55                   	push   %ebp
    11a1:	89 e5                	mov    %esp,%ebp
    11a3:	83 ec 38             	sub    $0x38,%esp
    11a6:	a1 a0 2f 03 00       	mov    0x32fa0,%eax
    11ab:	89 44 24 0c          	mov    %eax,0xc(%esp)
    11af:	8d 45 f0             	lea    -0x10(%ebp),%eax
    11b2:	c7 44 24 10 00 00 00 	movl   $0x0,0x10(%esp)
    11b9:	00 
    11ba:	c7 44 24 08 a2 4a 02 	movl   $0x24aa2,0x8(%esp)
    11c1:	00 
    11c2:	c7 44 24 04 a2 4a 02 	movl   $0x24aa2,0x4(%esp)
    11c9:	00 
    11ca:	89 04 24             	mov    %eax,(%esp)
    11cd:	e8 4e f3 00 00       	call   10520 <task_spawnl>
    11d2:	85 c0                	test   %eax,%eax
    11d4:	75 5a                	jne    1230 <button0+0x90>
    11d6:	8d 45 ec             	lea    -0x14(%ebp),%eax
    11d9:	8b 55 f4             	mov    -0xc(%ebp),%edx
    11dc:	89 44 24 0c          	mov    %eax,0xc(%esp)
    11e0:	8d 45 e8             	lea    -0x18(%ebp),%eax
    11e3:	89 44 24 08          	mov    %eax,0x8(%esp)
    11e7:	8b 45 f0             	mov    -0x10(%ebp),%eax
    11ea:	89 04 24             	mov    %eax,(%esp)
    11ed:	89 54 24 04          	mov    %edx,0x4(%esp)
    11f1:	e8 3a f4 00 00       	call   10630 <task_wait>
    11f6:	85 c0                	test   %eax,%eax
    11f8:	75 0e                	jne    1208 <button0+0x68>
    11fa:	8b 4d e8             	mov    -0x18(%ebp),%ecx
    11fd:	85 c9                	test   %ecx,%ecx
    11ff:	75 07                	jne    1208 <button0+0x68>
    1201:	c9                   	leave  
    1202:	c3                   	ret    
    1203:	90                   	nop
    1204:	8d 74 26 00          	lea    0x0(%esi,%eiz,1),%esi
    1208:	89 04 24             	mov    %eax,(%esp)
    120b:	e8 c0 d1 00 00       	call   e3d0 <str_error>
    1210:	c7 44 24 04 a2 4a 02 	movl   $0x24aa2,0x4(%esp)
    1217:	00 
    1218:	89 44 24 08          	mov    %eax,0x8(%esp)
    121c:	c7 04 24 54 4b 02 00 	movl   $0x24b54,(%esp)
    1223:	e8 28 1b 01 00       	call   12d50 <printf>
    1228:	c9                   	leave  
    1229:	c3                   	ret    
    122a:	8d b6 00 00 00 00    	lea    0x0(%esi),%esi
    1230:	89 04 24             	mov    %eax,(%esp)
    1233:	e8 98 d1 00 00       	call   e3d0 <str_error>
    1238:	c7 44 24 04 a2 4a 02 	movl   $0x24aa2,0x4(%esp)
    123f:	00 
    1240:	89 44 24 0c          	mov    %eax,0xc(%esp)
    1244:	a1 80 2f 03 00       	mov    0x32f80,%eax
    1249:	89 44 24 08          	mov    %eax,0x8(%esp)
    124d:	c7 04 24 b4 4a 02 00 	movl   $0x24ab4,(%esp)
    1254:	e8 f7 1a 01 00       	call   12d50 <printf>
    1259:	c9                   	leave  
    125a:	c3                   	ret    
    125b:	90                   	nop
    125c:	8d 74 26 00          	lea    0x0(%esi,%eiz,1),%esi

00001260 <button1>:
    1260:	55                   	push   %ebp
    1261:	89 e5                	mov    %esp,%ebp
    1263:	83 ec 38             	sub    $0x38,%esp
    1266:	a1 a4 2f 03 00       	mov    0x32fa4,%eax
    126b:	89 44 24 0c          	mov    %eax,0xc(%esp)
    126f:	8d 45 f0             	lea    -0x10(%ebp),%eax
    1272:	c7 44 24 10 00 00 00 	movl   $0x0,0x10(%esp)
    1279:	00 
    127a:	c7 44 24 08 a2 4a 02 	movl   $0x24aa2,0x8(%esp)
    1281:	00 
    1282:	c7 44 24 04 a2 4a 02 	movl   $0x24aa2,0x4(%esp)
    1289:	00 
    128a:	89 04 24             	mov    %eax,(%esp)
    128d:	e8 8e f2 00 00       	call   10520 <task_spawnl>
    1292:	85 c0                	test   %eax,%eax
    1294:	75 5a                	jne    12f0 <button1+0x90>
    1296:	8d 45 ec             	lea    -0x14(%ebp),%eax
    1299:	8b 55 f4             	mov    -0xc(%ebp),%edx
    129c:	89 44 24 0c          	mov    %eax,0xc(%esp)
    12a0:	8d 45 e8             	lea    -0x18(%ebp),%eax
    12a3:	89 44 24 08          	mov    %eax,0x8(%esp)
    12a7:	8b 45 f0             	mov    -0x10(%ebp),%eax
    12aa:	89 04 24             	mov    %eax,(%esp)
    12ad:	89 54 24 04          	mov    %edx,0x4(%esp)
    12b1:	e8 7a f3 00 00       	call   10630 <task_wait>
    12b6:	85 c0                	test   %eax,%eax
    12b8:	75 0e                	jne    12c8 <button1+0x68>
    12ba:	8b 55 e8             	mov    -0x18(%ebp),%edx
    12bd:	85 d2                	test   %edx,%edx
    12bf:	75 07                	jne    12c8 <button1+0x68>
    12c1:	c9                   	leave  
    12c2:	c3                   	ret    
    12c3:	90                   	nop
    12c4:	8d 74 26 00          	lea    0x0(%esi,%eiz,1),%esi
    12c8:	89 04 24             	mov    %eax,(%esp)
    12cb:	e8 00 d1 00 00       	call   e3d0 <str_error>
    12d0:	c7 44 24 04 a2 4a 02 	movl   $0x24aa2,0x4(%esp)
    12d7:	00 
    12d8:	89 44 24 08          	mov    %eax,0x8(%esp)
    12dc:	c7 04 24 54 4b 02 00 	movl   $0x24b54,(%esp)
    12e3:	e8 68 1a 01 00       	call   12d50 <printf>
    12e8:	c9                   	leave  
    12e9:	c3                   	ret    
    12ea:	8d b6 00 00 00 00    	lea    0x0(%esi),%esi
    12f0:	89 04 24             	mov    %eax,(%esp)
    12f3:	e8 d8 d0 00 00       	call   e3d0 <str_error>
    12f8:	c7 44 24 04 a2 4a 02 	movl   $0x24aa2,0x4(%esp)
    12ff:	00 
    1300:	89 44 24 0c          	mov    %eax,0xc(%esp)
    1304:	a1 80 2f 03 00       	mov    0x32f80,%eax
    1309:	89 44 24 08          	mov    %eax,0x8(%esp)
    130d:	c7 04 24 b4 4a 02 00 	movl   $0x24ab4,(%esp)
    1314:	e8 37 1a 01 00       	call   12d50 <printf>
    1319:	c9                   	leave  
    131a:	c3                   	ret    
    131b:	90                   	nop
    131c:	8d 74 26 00          	lea    0x0(%esi,%eiz,1),%esi

00001320 <button2>:
    1320:	55                   	push   %ebp
    1321:	89 e5                	mov    %esp,%ebp
    1323:	83 ec 38             	sub    $0x38,%esp
    1326:	a1 a8 2f 03 00       	mov    0x32fa8,%eax
    132b:	89 44 24 0c          	mov    %eax,0xc(%esp)
    132f:	8d 45 f0             	lea    -0x10(%ebp),%eax
    1332:	c7 44 24 10 00 00 00 	movl   $0x0,0x10(%esp)
    1339:	00 
    133a:	c7 44 24 08 a2 4a 02 	movl   $0x24aa2,0x8(%esp)
    1341:	00 
    1342:	c7 44 24 04 a2 4a 02 	movl   $0x24aa2,0x4(%esp)
    1349:	00 
    134a:	89 04 24             	mov    %eax,(%esp)
    134d:	e8 ce f1 00 00       	call   10520 <task_spawnl>
    1352:	85 c0                	test   %eax,%eax
    1354:	75 5a                	jne    13b0 <button2+0x90>
    1356:	8d 45 ec             	lea    -0x14(%ebp),%eax
    1359:	8b 55 f4             	mov    -0xc(%ebp),%edx
    135c:	89 44 24 0c          	mov    %eax,0xc(%esp)
    1360:	8d 45 e8             	lea    -0x18(%ebp),%eax
    1363:	89 44 24 08          	mov    %eax,0x8(%esp)
    1367:	8b 45 f0             	mov    -0x10(%ebp),%eax
    136a:	89 04 24             	mov    %eax,(%esp)
    136d:	89 54 24 04          	mov    %edx,0x4(%esp)
    1371:	e8 ba f2 00 00       	call   10630 <task_wait>
    1376:	85 c0                	test   %eax,%eax
    1378:	75 0e                	jne    1388 <button2+0x68>
    137a:	8b 4d e8             	mov    -0x18(%ebp),%ecx
    137d:	85 c9                	test   %ecx,%ecx
    137f:	75 07                	jne    1388 <button2+0x68>
    1381:	c9                   	leave  
    1382:	c3                   	ret    
    1383:	90                   	nop
    1384:	8d 74 26 00          	lea    0x0(%esi,%eiz,1),%esi
    1388:	89 04 24             	mov    %eax,(%esp)
    138b:	e8 40 d0 00 00       	call   e3d0 <str_error>
    1390:	c7 44 24 04 a2 4a 02 	movl   $0x24aa2,0x4(%esp)
    1397:	00 
    1398:	89 44 24 08          	mov    %eax,0x8(%esp)
    139c:	c7 04 24 54 4b 02 00 	movl   $0x24b54,(%esp)
    13a3:	e8 a8 19 01 00       	call   12d50 <printf>
    13a8:	c9                   	leave  
    13a9:	c3                   	ret    
    13aa:	8d b6 00 00 00 00    	lea    0x0(%esi),%esi
    13b0:	89 04 24             	mov    %eax,(%esp)
    13b3:	e8 18 d0 00 00       	call   e3d0 <str_error>
    13b8:	c7 44 24 04 a2 4a 02 	movl   $0x24aa2,0x4(%esp)
    13bf:	00 
    13c0:	89 44 24 0c          	mov    %eax,0xc(%esp)
    13c4:	a1 80 2f 03 00       	mov    0x32f80,%eax
    13c9:	89 44 24 08          	mov    %eax,0x8(%esp)
    13cd:	c7 04 24 b4 4a 02 00 	movl   $0x24ab4,(%esp)
    13d4:	e8 77 19 01 00       	call   12d50 <printf>
    13d9:	c9                   	leave  
    13da:	c3                   	ret    
    13db:	90                   	nop
    13dc:	8d 74 26 00          	lea    0x0(%esi,%eiz,1),%esi

000013e0 <button3>:
    13e0:	55                   	push   %ebp
    13e1:	89 e5                	mov    %esp,%ebp
    13e3:	83 ec 38             	sub    $0x38,%esp
    13e6:	a1 ac 2f 03 00       	mov    0x32fac,%eax
    13eb:	89 44 24 0c          	mov    %eax,0xc(%esp)
    13ef:	8d 45 f0             	lea    -0x10(%ebp),%eax
    13f2:	c7 44 24 10 00 00 00 	movl   $0x0,0x10(%esp)
    13f9:	00 
    13fa:	c7 44 24 08 a2 4a 02 	movl   $0x24aa2,0x8(%esp)
    1401:	00 
    1402:	c7 44 24 04 a2 4a 02 	movl   $0x24aa2,0x4(%esp)
    1409:	00 
    140a:	89 04 24             	mov    %eax,(%esp)
    140d:	e8 0e f1 00 00       	call   10520 <task_spawnl>
    1412:	85 c0                	test   %eax,%eax
    1414:	75 5a                	jne    1470 <button3+0x90>
    1416:	8d 45 ec             	lea    -0x14(%ebp),%eax
    1419:	8b 55 f4             	mov    -0xc(%ebp),%edx
    141c:	89 44 24 0c          	mov    %eax,0xc(%esp)
    1420:	8d 45 e8             	lea    -0x18(%ebp),%eax
    1423:	89 44 24 08          	mov    %eax,0x8(%esp)
    1427:	8b 45 f0             	mov    -0x10(%ebp),%eax
    142a:	89 04 24             	mov    %eax,(%esp)
    142d:	89 54 24 04          	mov    %edx,0x4(%esp)
    1431:	e8 fa f1 00 00       	call   10630 <task_wait>
    1436:	85 c0                	test   %eax,%eax
    1438:	75 0e                	jne    1448 <button3+0x68>
    143a:	8b 55 e8             	mov    -0x18(%ebp),%edx
    143d:	85 d2                	test   %edx,%edx
    143f:	75 07                	jne    1448 <button3+0x68>
    1441:	c9                   	leave  
    1442:	c3                   	ret    
    1443:	90                   	nop
    1444:	8d 74 26 00          	lea    0x0(%esi,%eiz,1),%esi
    1448:	89 04 24             	mov    %eax,(%esp)
    144b:	e8 80 cf 00 00       	call   e3d0 <str_error>
    1450:	c7 44 24 04 a2 4a 02 	movl   $0x24aa2,0x4(%esp)
    1457:	00 
    1458:	89 44 24 08          	mov    %eax,0x8(%esp)
    145c:	c7 04 24 54 4b 02 00 	movl   $0x24b54,(%esp)
    1463:	e8 e8 18 01 00       	call   12d50 <printf>
    1468:	c9                   	leave  
    1469:	c3                   	ret    
    146a:	8d b6 00 00 00 00    	lea    0x0(%esi),%esi
    1470:	89 04 24             	mov    %eax,(%esp)
    1473:	e8 58 cf 00 00       	call   e3d0 <str_error>
    1478:	c7 44 24 04 a2 4a 02 	movl   $0x24aa2,0x4(%esp)
    147f:	00 
    1480:	89 44 24 0c          	mov    %eax,0xc(%esp)
    1484:	a1 80 2f 03 00       	mov    0x32f80,%eax
    1489:	89 44 24 08          	mov    %eax,0x8(%esp)
    148d:	c7 04 24 b4 4a 02 00 	movl   $0x24ab4,(%esp)
    1494:	e8 b7 18 01 00       	call   12d50 <printf>
    1499:	c9                   	leave  
    149a:	c3                   	ret    
    149b:	90                   	nop
    149c:	8d 74 26 00          	lea    0x0(%esi,%eiz,1),%esi

000014a0 <button4>:
    14a0:	55                   	push   %ebp
    14a1:	89 e5                	mov    %esp,%ebp
    14a3:	83 ec 38             	sub    $0x38,%esp
    14a6:	a1 b0 2f 03 00       	mov    0x32fb0,%eax
    14ab:	89 44 24 0c          	mov    %eax,0xc(%esp)
    14af:	8d 45 f0             	lea    -0x10(%ebp),%eax
    14b2:	c7 44 24 10 00 00 00 	movl   $0x0,0x10(%esp)
    14b9:	00 
    14ba:	c7 44 24 08 a2 4a 02 	movl   $0x24aa2,0x8(%esp)
    14c1:	00 
    14c2:	c7 44 24 04 a2 4a 02 	movl   $0x24aa2,0x4(%esp)
    14c9:	00 
    14ca:	89 04 24             	mov    %eax,(%esp)
    14cd:	e8 4e f0 00 00       	call   10520 <task_spawnl>
    14d2:	85 c0                	test   %eax,%eax
    14d4:	75 5a                	jne    1530 <button4+0x90>
    14d6:	8d 45 ec             	lea    -0x14(%ebp),%eax
    14d9:	8b 55 f4             	mov    -0xc(%ebp),%edx
    14dc:	89 44 24 0c          	mov    %eax,0xc(%esp)
    14e0:	8d 45 e8             	lea    -0x18(%ebp),%eax
    14e3:	89 44 24 08          	mov    %eax,0x8(%esp)
    14e7:	8b 45 f0             	mov    -0x10(%ebp),%eax
    14ea:	89 04 24             	mov    %eax,(%esp)
    14ed:	89 54 24 04          	mov    %edx,0x4(%esp)
    14f1:	e8 3a f1 00 00       	call   10630 <task_wait>
    14f6:	85 c0                	test   %eax,%eax
    14f8:	75 0e                	jne    1508 <button4+0x68>
    14fa:	8b 4d e8             	mov    -0x18(%ebp),%ecx
    14fd:	85 c9                	test   %ecx,%ecx
    14ff:	75 07                	jne    1508 <button4+0x68>
    1501:	c9                   	leave  
    1502:	c3                   	ret    
    1503:	90                   	nop
    1504:	8d 74 26 00          	lea    0x0(%esi,%eiz,1),%esi
    1508:	89 04 24             	mov    %eax,(%esp)
    150b:	e8 c0 ce 00 00       	call   e3d0 <str_error>
    1510:	c7 44 24 04 a2 4a 02 	movl   $0x24aa2,0x4(%esp)
    1517:	00 
    1518:	89 44 24 08          	mov    %eax,0x8(%esp)
    151c:	c7 04 24 54 4b 02 00 	movl   $0x24b54,(%esp)
    1523:	e8 28 18 01 00       	call   12d50 <printf>
    1528:	c9                   	leave  
    1529:	c3                   	ret    
    152a:	8d b6 00 00 00 00    	lea    0x0(%esi),%esi
    1530:	89 04 24             	mov    %eax,(%esp)
    1533:	e8 98 ce 00 00       	call   e3d0 <str_error>
    1538:	c7 44 24 04 a2 4a 02 	movl   $0x24aa2,0x4(%esp)
    153f:	00 
    1540:	89 44 24 0c          	mov    %eax,0xc(%esp)
    1544:	a1 80 2f 03 00       	mov    0x32f80,%eax
    1549:	89 44 24 08          	mov    %eax,0x8(%esp)
    154d:	c7 04 24 b4 4a 02 00 	movl   $0x24ab4,(%esp)
    1554:	e8 f7 17 01 00       	call   12d50 <printf>
    1559:	c9                   	leave  
    155a:	c3                   	ret    
    155b:	90                   	nop
    155c:	8d 74 26 00          	lea    0x0(%esi,%eiz,1),%esi

00001560 <button5>:
    1560:	55                   	push   %ebp
    1561:	89 e5                	mov    %esp,%ebp
    1563:	83 ec 38             	sub    $0x38,%esp
    1566:	a1 b4 2f 03 00       	mov    0x32fb4,%eax
    156b:	89 44 24 0c          	mov    %eax,0xc(%esp)
    156f:	8d 45 f0             	lea    -0x10(%ebp),%eax
    1572:	c7 44 24 10 00 00 00 	movl   $0x0,0x10(%esp)
    1579:	00 
    157a:	c7 44 24 08 a2 4a 02 	movl   $0x24aa2,0x8(%esp)
    1581:	00 
    1582:	c7 44 24 04 a2 4a 02 	movl   $0x24aa2,0x4(%esp)
    1589:	00 
    158a:	89 04 24             	mov    %eax,(%esp)
    158d:	e8 8e ef 00 00       	call   10520 <task_spawnl>
    1592:	85 c0                	test   %eax,%eax
    1594:	75 5a                	jne    15f0 <button5+0x90>
    1596:	8d 45 ec             	lea    -0x14(%ebp),%eax
    1599:	8b 55 f4             	mov    -0xc(%ebp),%edx
    159c:	89 44 24 0c          	mov    %eax,0xc(%esp)
    15a0:	8d 45 e8             	lea    -0x18(%ebp),%eax
    15a3:	89 44 24 08          	mov    %eax,0x8(%esp)
    15a7:	8b 45 f0             	mov    -0x10(%ebp),%eax
    15aa:	89 04 24             	mov    %eax,(%esp)
    15ad:	89 54 24 04          	mov    %edx,0x4(%esp)
    15b1:	e8 7a f0 00 00       	call   10630 <task_wait>
    15b6:	85 c0                	test   %eax,%eax
    15b8:	75 0e                	jne    15c8 <button5+0x68>
    15ba:	8b 55 e8             	mov    -0x18(%ebp),%edx
    15bd:	85 d2                	test   %edx,%edx
    15bf:	75 07                	jne    15c8 <button5+0x68>
    15c1:	c9                   	leave  
    15c2:	c3                   	ret    
    15c3:	90                   	nop
    15c4:	8d 74 26 00          	lea    0x0(%esi,%eiz,1),%esi
    15c8:	89 04 24             	mov    %eax,(%esp)
    15cb:	e8 00 ce 00 00       	call   e3d0 <str_error>
    15d0:	c7 44 24 04 a2 4a 02 	movl   $0x24aa2,0x4(%esp)
    15d7:	00 
    15d8:	89 44 24 08          	mov    %eax,0x8(%esp)
    15dc:	c7 04 24 54 4b 02 00 	movl   $0x24b54,(%esp)
    15e3:	e8 68 17 01 00       	call   12d50 <printf>
    15e8:	c9                   	leave  
    15e9:	c3                   	ret    
    15ea:	8d b6 00 00 00 00    	lea    0x0(%esi),%esi
    15f0:	89 04 24             	mov    %eax,(%esp)
    15f3:	e8 d8 cd 00 00       	call   e3d0 <str_error>
    15f8:	c7 44 24 04 a2 4a 02 	movl   $0x24aa2,0x4(%esp)
    15ff:	00 
    1600:	89 44 24 0c          	mov    %eax,0xc(%esp)
    1604:	a1 80 2f 03 00       	mov    0x32f80,%eax
    1609:	89 44 24 08          	mov    %eax,0x8(%esp)
    160d:	c7 04 24 b4 4a 02 00 	movl   $0x24ab4,(%esp)
    1614:	e8 37 17 01 00       	call   12d50 <printf>
    1619:	c9                   	leave  
    161a:	c3                   	ret    
    161b:	90                   	nop
    161c:	8d 74 26 00          	lea    0x0(%esi,%eiz,1),%esi

00001620 <button6>:
    1620:	55                   	push   %ebp
    1621:	89 e5                	mov    %esp,%ebp
    1623:	83 ec 38             	sub    $0x38,%esp
    1626:	a1 b8 2f 03 00       	mov    0x32fb8,%eax
    162b:	89 44 24 0c          	mov    %eax,0xc(%esp)
    162f:	8d 45 f0             	lea    -0x10(%ebp),%eax
    1632:	c7 44 24 10 00 00 00 	movl   $0x0,0x10(%esp)
    1639:	00 
    163a:	c7 44 24 08 a2 4a 02 	movl   $0x24aa2,0x8(%esp)
    1641:	00 
    1642:	c7 44 24 04 a2 4a 02 	movl   $0x24aa2,0x4(%esp)
    1649:	00 
    164a:	89 04 24             	mov    %eax,(%esp)
    164d:	e8 ce ee 00 00       	call   10520 <task_spawnl>
    1652:	85 c0                	test   %eax,%eax
    1654:	75 5a                	jne    16b0 <button6+0x90>
    1656:	8d 45 ec             	lea    -0x14(%ebp),%eax
    1659:	8b 55 f4             	mov    -0xc(%ebp),%edx
    165c:	89 44 24 0c          	mov    %eax,0xc(%esp)
    1660:	8d 45 e8             	lea    -0x18(%ebp),%eax
    1663:	89 44 24 08          	mov    %eax,0x8(%esp)
    1667:	8b 45 f0             	mov    -0x10(%ebp),%eax
    166a:	89 04 24             	mov    %eax,(%esp)
    166d:	89 54 24 04          	mov    %edx,0x4(%esp)
    1671:	e8 ba ef 00 00       	call   10630 <task_wait>
    1676:	85 c0                	test   %eax,%eax
    1678:	75 0e                	jne    1688 <button6+0x68>
    167a:	8b 4d e8             	mov    -0x18(%ebp),%ecx
    167d:	85 c9                	test   %ecx,%ecx
    167f:	75 07                	jne    1688 <button6+0x68>
    1681:	c9                   	leave  
    1682:	c3                   	ret    
    1683:	90                   	nop
    1684:	8d 74 26 00          	lea    0x0(%esi,%eiz,1),%esi
    1688:	89 04 24             	mov    %eax,(%esp)
    168b:	e8 40 cd 00 00       	call   e3d0 <str_error>
    1690:	c7 44 24 04 a2 4a 02 	movl   $0x24aa2,0x4(%esp)
    1697:	00 
    1698:	89 44 24 08          	mov    %eax,0x8(%esp)
    169c:	c7 04 24 54 4b 02 00 	movl   $0x24b54,(%esp)
    16a3:	e8 a8 16 01 00       	call   12d50 <printf>
    16a8:	c9                   	leave  
    16a9:	c3                   	ret    
    16aa:	8d b6 00 00 00 00    	lea    0x0(%esi),%esi
    16b0:	89 04 24             	mov    %eax,(%esp)
    16b3:	e8 18 cd 00 00       	call   e3d0 <str_error>
    16b8:	c7 44 24 04 a2 4a 02 	movl   $0x24aa2,0x4(%esp)
    16bf:	00 
    16c0:	89 44 24 0c          	mov    %eax,0xc(%esp)
    16c4:	a1 80 2f 03 00       	mov    0x32f80,%eax
    16c9:	89 44 24 08          	mov    %eax,0x8(%esp)
    16cd:	c7 04 24 b4 4a 02 00 	movl   $0x24ab4,(%esp)
    16d4:	e8 77 16 01 00       	call   12d50 <printf>
    16d9:	c9                   	leave  
    16da:	c3                   	ret    
    16db:	90                   	nop
    16dc:	8d 74 26 00          	lea    0x0(%esi,%eiz,1),%esi

000016e0 <button7>:
    16e0:	55                   	push   %ebp
    16e1:	89 e5                	mov    %esp,%ebp
    16e3:	83 ec 38             	sub    $0x38,%esp
    16e6:	a1 bc 2f 03 00       	mov    0x32fbc,%eax
    16eb:	89 44 24 0c          	mov    %eax,0xc(%esp)
    16ef:	8d 45 f0             	lea    -0x10(%ebp),%eax
    16f2:	c7 44 24 10 00 00 00 	movl   $0x0,0x10(%esp)
    16f9:	00 
    16fa:	c7 44 24 08 a2 4a 02 	movl   $0x24aa2,0x8(%esp)
    1701:	00 
    1702:	c7 44 24 04 a2 4a 02 	movl   $0x24aa2,0x4(%esp)
    1709:	00 
    170a:	89 04 24             	mov    %eax,(%esp)
    170d:	e8 0e ee 00 00       	call   10520 <task_spawnl>
    1712:	85 c0                	test   %eax,%eax
    1714:	75 5a                	jne    1770 <button7+0x90>
    1716:	8d 45 ec             	lea    -0x14(%ebp),%eax
    1719:	8b 55 f4             	mov    -0xc(%ebp),%edx
    171c:	89 44 24 0c          	mov    %eax,0xc(%esp)
    1720:	8d 45 e8             	lea    -0x18(%ebp),%eax
    1723:	89 44 24 08          	mov    %eax,0x8(%esp)
    1727:	8b 45 f0             	mov    -0x10(%ebp),%eax
    172a:	89 04 24             	mov    %eax,(%esp)
    172d:	89 54 24 04          	mov    %edx,0x4(%esp)
    1731:	e8 fa ee 00 00       	call   10630 <task_wait>
    1736:	85 c0                	test   %eax,%eax
    1738:	75 0e                	jne    1748 <button7+0x68>
    173a:	8b 55 e8             	mov    -0x18(%ebp),%edx
    173d:	85 d2                	test   %edx,%edx
    173f:	75 07                	jne    1748 <button7+0x68>
    1741:	c9                   	leave  
    1742:	c3                   	ret    
    1743:	90                   	nop
    1744:	8d 74 26 00          	lea    0x0(%esi,%eiz,1),%esi
    1748:	89 04 24             	mov    %eax,(%esp)
    174b:	e8 80 cc 00 00       	call   e3d0 <str_error>
    1750:	c7 44 24 04 a2 4a 02 	movl   $0x24aa2,0x4(%esp)
    1757:	00 
    1758:	89 44 24 08          	mov    %eax,0x8(%esp)
    175c:	c7 04 24 54 4b 02 00 	movl   $0x24b54,(%esp)
    1763:	e8 e8 15 01 00       	call   12d50 <printf>
    1768:	c9                   	leave  
    1769:	c3                   	ret    
    176a:	8d b6 00 00 00 00    	lea    0x0(%esi),%esi
    1770:	89 04 24             	mov    %eax,(%esp)
    1773:	e8 58 cc 00 00       	call   e3d0 <str_error>
    1778:	c7 44 24 04 a2 4a 02 	movl   $0x24aa2,0x4(%esp)
    177f:	00 
    1780:	89 44 24 0c          	mov    %eax,0xc(%esp)
    1784:	a1 80 2f 03 00       	mov    0x32f80,%eax
    1789:	89 44 24 08          	mov    %eax,0x8(%esp)
    178d:	c7 04 24 b4 4a 02 00 	movl   $0x24ab4,(%esp)
    1794:	e8 b7 15 01 00       	call   12d50 <printf>
    1799:	c9                   	leave  
    179a:	c3                   	ret    
    179b:	90                   	nop
    179c:	8d 74 26 00          	lea    0x0(%esi,%eiz,1),%esi

000017a0 <button8>:
    17a0:	55                   	push   %ebp
    17a1:	89 e5                	mov    %esp,%ebp
    17a3:	83 ec 38             	sub    $0x38,%esp
    17a6:	a1 c0 2f 03 00       	mov    0x32fc0,%eax
    17ab:	89 44 24 0c          	mov    %eax,0xc(%esp)
    17af:	8d 45 f0             	lea    -0x10(%ebp),%eax
    17b2:	c7 44 24 10 00 00 00 	movl   $0x0,0x10(%esp)
    17b9:	00 
    17ba:	c7 44 24 08 a2 4a 02 	movl   $0x24aa2,0x8(%esp)
    17c1:	00 
    17c2:	c7 44 24 04 a2 4a 02 	movl   $0x24aa2,0x4(%esp)
    17c9:	00 
    17ca:	89 04 24             	mov    %eax,(%esp)
    17cd:	e8 4e ed 00 00       	call   10520 <task_spawnl>
    17d2:	85 c0                	test   %eax,%eax
    17d4:	75 5a                	jne    1830 <button8+0x90>
    17d6:	8d 45 ec             	lea    -0x14(%ebp),%eax
    17d9:	8b 55 f4             	mov    -0xc(%ebp),%edx
    17dc:	89 44 24 0c          	mov    %eax,0xc(%esp)
    17e0:	8d 45 e8             	lea    -0x18(%ebp),%eax
    17e3:	89 44 24 08          	mov    %eax,0x8(%esp)
    17e7:	8b 45 f0             	mov    -0x10(%ebp),%eax
    17ea:	89 04 24             	mov    %eax,(%esp)
    17ed:	89 54 24 04          	mov    %edx,0x4(%esp)
    17f1:	e8 3a ee 00 00       	call   10630 <task_wait>
    17f6:	85 c0                	test   %eax,%eax
    17f8:	75 0e                	jne    1808 <button8+0x68>
    17fa:	8b 4d e8             	mov    -0x18(%ebp),%ecx
    17fd:	85 c9                	test   %ecx,%ecx
    17ff:	75 07                	jne    1808 <button8+0x68>
    1801:	c9                   	leave  
    1802:	c3                   	ret    
    1803:	90                   	nop
    1804:	8d 74 26 00          	lea    0x0(%esi,%eiz,1),%esi
    1808:	89 04 24             	mov    %eax,(%esp)
    180b:	e8 c0 cb 00 00       	call   e3d0 <str_error>
    1810:	c7 44 24 04 a2 4a 02 	movl   $0x24aa2,0x4(%esp)
    1817:	00 
    1818:	89 44 24 08          	mov    %eax,0x8(%esp)
    181c:	c7 04 24 54 4b 02 00 	movl   $0x24b54,(%esp)
    1823:	e8 28 15 01 00       	call   12d50 <printf>
    1828:	c9                   	leave  
    1829:	c3                   	ret    
    182a:	8d b6 00 00 00 00    	lea    0x0(%esi),%esi
    1830:	89 04 24             	mov    %eax,(%esp)
    1833:	e8 98 cb 00 00       	call   e3d0 <str_error>
    1838:	c7 44 24 04 a2 4a 02 	movl   $0x24aa2,0x4(%esp)
    183f:	00 
    1840:	89 44 24 0c          	mov    %eax,0xc(%esp)
    1844:	a1 80 2f 03 00       	mov    0x32f80,%eax
    1849:	89 44 24 08          	mov    %eax,0x8(%esp)
    184d:	c7 04 24 b4 4a 02 00 	movl   $0x24ab4,(%esp)
    1854:	e8 f7 14 01 00       	call   12d50 <printf>
    1859:	c9                   	leave  
    185a:	c3                   	ret    
    185b:	90                   	nop
    185c:	8d 74 26 00          	lea    0x0(%esi,%eiz,1),%esi

00001860 <button9>:
    1860:	55                   	push   %ebp
    1861:	89 e5                	mov    %esp,%ebp
    1863:	83 ec 38             	sub    $0x38,%esp
    1866:	a1 c4 2f 03 00       	mov    0x32fc4,%eax
    186b:	89 44 24 0c          	mov    %eax,0xc(%esp)
    186f:	8d 45 f0             	lea    -0x10(%ebp),%eax
    1872:	c7 44 24 10 00 00 00 	movl   $0x0,0x10(%esp)
    1879:	00 
    187a:	c7 44 24 08 a2 4a 02 	movl   $0x24aa2,0x8(%esp)
    1881:	00 
    1882:	c7 44 24 04 a2 4a 02 	movl   $0x24aa2,0x4(%esp)
    1889:	00 
    188a:	89 04 24             	mov    %eax,(%esp)
    188d:	e8 8e ec 00 00       	call   10520 <task_spawnl>
    1892:	85 c0                	test   %eax,%eax
    1894:	75 5a                	jne    18f0 <button9+0x90>
    1896:	8d 45 ec             	lea    -0x14(%ebp),%eax
    1899:	8b 55 f4             	mov    -0xc(%ebp),%edx
    189c:	89 44 24 0c          	mov    %eax,0xc(%esp)
    18a0:	8d 45 e8             	lea    -0x18(%ebp),%eax
    18a3:	89 44 24 08          	mov    %eax,0x8(%esp)
    18a7:	8b 45 f0             	mov    -0x10(%ebp),%eax
    18aa:	89 04 24             	mov    %eax,(%esp)
    18ad:	89 54 24 04          	mov    %edx,0x4(%esp)
    18b1:	e8 7a ed 00 00       	call   10630 <task_wait>
    18b6:	85 c0                	test   %eax,%eax
    18b8:	75 0e                	jne    18c8 <button9+0x68>
    18ba:	8b 55 e8             	mov    -0x18(%ebp),%edx
    18bd:	85 d2                	test   %edx,%edx
    18bf:	75 07                	jne    18c8 <button9+0x68>
    18c1:	c9                   	leave  
    18c2:	c3                   	ret    
    18c3:	90                   	nop
    18c4:	8d 74 26 00          	lea    0x0(%esi,%eiz,1),%esi
    18c8:	89 04 24             	mov    %eax,(%esp)
    18cb:	e8 00 cb 00 00       	call   e3d0 <str_error>
    18d0:	c7 44 24 04 a2 4a 02 	movl   $0x24aa2,0x4(%esp)
    18d7:	00 
    18d8:	89 44 24 08          	mov    %eax,0x8(%esp)
    18dc:	c7 04 24 54 4b 02 00 	movl   $0x24b54,(%esp)
    18e3:	e8 68 14 01 00       	call   12d50 <printf>
    18e8:	c9                   	leave  
    18e9:	c3                   	ret    
    18ea:	8d b6 00 00 00 00    	lea    0x0(%esi),%esi
    18f0:	89 04 24             	mov    %eax,(%esp)
    18f3:	e8 d8 ca 00 00       	call   e3d0 <str_error>
    18f8:	c7 44 24 04 a2 4a 02 	movl   $0x24aa2,0x4(%esp)
    18ff:	00 
    1900:	89 44 24 0c          	mov    %eax,0xc(%esp)
    1904:	a1 80 2f 03 00       	mov    0x32f80,%eax
    1909:	89 44 24 08          	mov    %eax,0x8(%esp)
    190d:	c7 04 24 b4 4a 02 00 	movl   $0x24ab4,(%esp)
    1914:	e8 37 14 01 00       	call   12d50 <printf>
    1919:	c9                   	leave  
    191a:	c3                   	ret    
    191b:	90                   	nop
    191c:	8d 74 26 00          	lea    0x0(%esi,%eiz,1),%esi

00001920 <button10>:
    1920:	55                   	push   %ebp
    1921:	89 e5                	mov    %esp,%ebp
    1923:	83 ec 38             	sub    $0x38,%esp
    1926:	a1 c8 2f 03 00       	mov    0x32fc8,%eax
    192b:	89 44 24 0c          	mov    %eax,0xc(%esp)
    192f:	8d 45 f0             	lea    -0x10(%ebp),%eax
    1932:	c7 44 24 10 00 00 00 	movl   $0x0,0x10(%esp)
    1939:	00 
    193a:	c7 44 24 08 a2 4a 02 	movl   $0x24aa2,0x8(%esp)
    1941:	00 
    1942:	c7 44 24 04 a2 4a 02 	movl   $0x24aa2,0x4(%esp)
    1949:	00 
    194a:	89 04 24             	mov    %eax,(%esp)
    194d:	e8 ce eb 00 00       	call   10520 <task_spawnl>
    1952:	85 c0                	test   %eax,%eax
    1954:	75 5a                	jne    19b0 <button10+0x90>
    1956:	8d 45 ec             	lea    -0x14(%ebp),%eax
    1959:	8b 55 f4             	mov    -0xc(%ebp),%edx
    195c:	89 44 24 0c          	mov    %eax,0xc(%esp)
    1960:	8d 45 e8             	lea    -0x18(%ebp),%eax
    1963:	89 44 24 08          	mov    %eax,0x8(%esp)
    1967:	8b 45 f0             	mov    -0x10(%ebp),%eax
    196a:	89 04 24             	mov    %eax,(%esp)
    196d:	89 54 24 04          	mov    %edx,0x4(%esp)
    1971:	e8 ba ec 00 00       	call   10630 <task_wait>
    1976:	85 c0                	test   %eax,%eax
    1978:	75 0e                	jne    1988 <button10+0x68>
    197a:	8b 4d e8             	mov    -0x18(%ebp),%ecx
    197d:	85 c9                	test   %ecx,%ecx
    197f:	75 07                	jne    1988 <button10+0x68>
    1981:	c9                   	leave  
    1982:	c3                   	ret    
    1983:	90                   	nop
    1984:	8d 74 26 00          	lea    0x0(%esi,%eiz,1),%esi
    1988:	89 04 24             	mov    %eax,(%esp)
    198b:	e8 40 ca 00 00       	call   e3d0 <str_error>
    1990:	c7 44 24 04 a2 4a 02 	movl   $0x24aa2,0x4(%esp)
    1997:	00 
    1998:	89 44 24 08          	mov    %eax,0x8(%esp)
    199c:	c7 04 24 54 4b 02 00 	movl   $0x24b54,(%esp)
    19a3:	e8 a8 13 01 00       	call   12d50 <printf>
    19a8:	c9                   	leave  
    19a9:	c3                   	ret    
    19aa:	8d b6 00 00 00 00    	lea    0x0(%esi),%esi
    19b0:	89 04 24             	mov    %eax,(%esp)
    19b3:	e8 18 ca 00 00       	call   e3d0 <str_error>
    19b8:	c7 44 24 04 a2 4a 02 	movl   $0x24aa2,0x4(%esp)
    19bf:	00 
    19c0:	89 44 24 0c          	mov    %eax,0xc(%esp)
    19c4:	a1 80 2f 03 00       	mov    0x32f80,%eax
    19c9:	89 44 24 08          	mov    %eax,0x8(%esp)
    19cd:	c7 04 24 b4 4a 02 00 	movl   $0x24ab4,(%esp)
    19d4:	e8 77 13 01 00       	call   12d50 <printf>
    19d9:	c9                   	leave  
    19da:	c3                   	ret    
    19db:	90                   	nop
    19dc:	8d 74 26 00          	lea    0x0(%esi,%eiz,1),%esi

000019e0 <button11>:
    19e0:	55                   	push   %ebp
    19e1:	89 e5                	mov    %esp,%ebp
    19e3:	83 ec 38             	sub    $0x38,%esp
    19e6:	a1 cc 2f 03 00       	mov    0x32fcc,%eax
    19eb:	89 44 24 0c          	mov    %eax,0xc(%esp)
    19ef:	8d 45 f0             	lea    -0x10(%ebp),%eax
    19f2:	c7 44 24 10 00 00 00 	movl   $0x0,0x10(%esp)
    19f9:	00 
    19fa:	c7 44 24 08 a2 4a 02 	movl   $0x24aa2,0x8(%esp)
    1a01:	00 
    1a02:	c7 44 24 04 a2 4a 02 	movl   $0x24aa2,0x4(%esp)
    1a09:	00 
    1a0a:	89 04 24             	mov    %eax,(%esp)
    1a0d:	e8 0e eb 00 00       	call   10520 <task_spawnl>
    1a12:	85 c0                	test   %eax,%eax
    1a14:	75 5a                	jne    1a70 <button11+0x90>
    1a16:	8d 45 ec             	lea    -0x14(%ebp),%eax
    1a19:	8b 55 f4             	mov    -0xc(%ebp),%edx
    1a1c:	89 44 24 0c          	mov    %eax,0xc(%esp)
    1a20:	8d 45 e8             	lea    -0x18(%ebp),%eax
    1a23:	89 44 24 08          	mov    %eax,0x8(%esp)
    1a27:	8b 45 f0             	mov    -0x10(%ebp),%eax
    1a2a:	89 04 24             	mov    %eax,(%esp)
    1a2d:	89 54 24 04          	mov    %edx,0x4(%esp)
    1a31:	e8 fa eb 00 00       	call   10630 <task_wait>
    1a36:	85 c0                	test   %eax,%eax
    1a38:	75 0e                	jne    1a48 <button11+0x68>
    1a3a:	8b 55 e8             	mov    -0x18(%ebp),%edx
    1a3d:	85 d2                	test   %edx,%edx
    1a3f:	75 07                	jne    1a48 <button11+0x68>
    1a41:	c9                   	leave  
    1a42:	c3                   	ret    
    1a43:	90                   	nop
    1a44:	8d 74 26 00          	lea    0x0(%esi,%eiz,1),%esi
    1a48:	89 04 24             	mov    %eax,(%esp)
    1a4b:	e8 80 c9 00 00       	call   e3d0 <str_error>
    1a50:	c7 44 24 04 a2 4a 02 	movl   $0x24aa2,0x4(%esp)
    1a57:	00 
    1a58:	89 44 24 08          	mov    %eax,0x8(%esp)
    1a5c:	c7 04 24 54 4b 02 00 	movl   $0x24b54,(%esp)
    1a63:	e8 e8 12 01 00       	call   12d50 <printf>
    1a68:	c9                   	leave  
    1a69:	c3                   	ret    
    1a6a:	8d b6 00 00 00 00    	lea    0x0(%esi),%esi
    1a70:	89 04 24             	mov    %eax,(%esp)
    1a73:	e8 58 c9 00 00       	call   e3d0 <str_error>
    1a78:	c7 44 24 04 a2 4a 02 	movl   $0x24aa2,0x4(%esp)
    1a7f:	00 
    1a80:	89 44 24 0c          	mov    %eax,0xc(%esp)
    1a84:	a1 80 2f 03 00       	mov    0x32f80,%eax
    1a89:	89 44 24 08          	mov    %eax,0x8(%esp)
    1a8d:	c7 04 24 b4 4a 02 00 	movl   $0x24ab4,(%esp)
    1a94:	e8 b7 12 01 00       	call   12d50 <printf>
    1a99:	c9                   	leave  
    1a9a:	c3                   	ret    
    1a9b:	90                   	nop
    1a9c:	8d 74 26 00          	lea    0x0(%esi,%eiz,1),%esi

00001aa0 <button12>:
    1aa0:	55                   	push   %ebp
    1aa1:	89 e5                	mov    %esp,%ebp
    1aa3:	83 ec 38             	sub    $0x38,%esp
    1aa6:	a1 d0 2f 03 00       	mov    0x32fd0,%eax
    1aab:	89 44 24 0c          	mov    %eax,0xc(%esp)
    1aaf:	8d 45 f0             	lea    -0x10(%ebp),%eax
    1ab2:	c7 44 24 10 00 00 00 	movl   $0x0,0x10(%esp)
    1ab9:	00 
    1aba:	c7 44 24 08 a2 4a 02 	movl   $0x24aa2,0x8(%esp)
    1ac1:	00 
    1ac2:	c7 44 24 04 a2 4a 02 	movl   $0x24aa2,0x4(%esp)
    1ac9:	00 
    1aca:	89 04 24             	mov    %eax,(%esp)
    1acd:	e8 4e ea 00 00       	call   10520 <task_spawnl>
    1ad2:	85 c0                	test   %eax,%eax
    1ad4:	75 5a                	jne    1b30 <button12+0x90>
    1ad6:	8d 45 ec             	lea    -0x14(%ebp),%eax
    1ad9:	8b 55 f4             	mov    -0xc(%ebp),%edx
    1adc:	89 44 24 0c          	mov    %eax,0xc(%esp)
    1ae0:	8d 45 e8             	lea    -0x18(%ebp),%eax
    1ae3:	89 44 24 08          	mov    %eax,0x8(%esp)
    1ae7:	8b 45 f0             	mov    -0x10(%ebp),%eax
    1aea:	89 04 24             	mov    %eax,(%esp)
    1aed:	89 54 24 04          	mov    %edx,0x4(%esp)
    1af1:	e8 3a eb 00 00       	call   10630 <task_wait>
    1af6:	85 c0                	test   %eax,%eax
    1af8:	75 0e                	jne    1b08 <button12+0x68>
    1afa:	8b 4d e8             	mov    -0x18(%ebp),%ecx
    1afd:	85 c9                	test   %ecx,%ecx
    1aff:	75 07                	jne    1b08 <button12+0x68>
    1b01:	c9                   	leave  
    1b02:	c3                   	ret    
    1b03:	90                   	nop
    1b04:	8d 74 26 00          	lea    0x0(%esi,%eiz,1),%esi
    1b08:	89 04 24             	mov    %eax,(%esp)
    1b0b:	e8 c0 c8 00 00       	call   e3d0 <str_error>
    1b10:	c7 44 24 04 a2 4a 02 	movl   $0x24aa2,0x4(%esp)
    1b17:	00 
    1b18:	89 44 24 08          	mov    %eax,0x8(%esp)
    1b1c:	c7 04 24 54 4b 02 00 	movl   $0x24b54,(%esp)
    1b23:	e8 28 12 01 00       	call   12d50 <printf>
    1b28:	c9                   	leave  
    1b29:	c3                   	ret    
    1b2a:	8d b6 00 00 00 00    	lea    0x0(%esi),%esi
    1b30:	89 04 24             	mov    %eax,(%esp)
    1b33:	e8 98 c8 00 00       	call   e3d0 <str_error>
    1b38:	c7 44 24 04 a2 4a 02 	movl   $0x24aa2,0x4(%esp)
    1b3f:	00 
    1b40:	89 44 24 0c          	mov    %eax,0xc(%esp)
    1b44:	a1 80 2f 03 00       	mov    0x32f80,%eax
    1b49:	89 44 24 08          	mov    %eax,0x8(%esp)
    1b4d:	c7 04 24 b4 4a 02 00 	movl   $0x24ab4,(%esp)
    1b54:	e8 f7 11 01 00       	call   12d50 <printf>
    1b59:	c9                   	leave  
    1b5a:	c3                   	ret    
    1b5b:	90                   	nop
    1b5c:	8d 74 26 00          	lea    0x0(%esi,%eiz,1),%esi

00001b60 <button13>:
    1b60:	55                   	push   %ebp
    1b61:	89 e5                	mov    %esp,%ebp
    1b63:	83 ec 38             	sub    $0x38,%esp
    1b66:	a1 d4 2f 03 00       	mov    0x32fd4,%eax
    1b6b:	89 44 24 0c          	mov    %eax,0xc(%esp)
    1b6f:	8d 45 f0             	lea    -0x10(%ebp),%eax
    1b72:	c7 44 24 10 00 00 00 	movl   $0x0,0x10(%esp)
    1b79:	00 
    1b7a:	c7 44 24 08 a2 4a 02 	movl   $0x24aa2,0x8(%esp)
    1b81:	00 
    1b82:	c7 44 24 04 a2 4a 02 	movl   $0x24aa2,0x4(%esp)
    1b89:	00 
    1b8a:	89 04 24             	mov    %eax,(%esp)
    1b8d:	e8 8e e9 00 00       	call   10520 <task_spawnl>
    1b92:	85 c0                	test   %eax,%eax
    1b94:	75 5a                	jne    1bf0 <button13+0x90>
    1b96:	8d 45 ec             	lea    -0x14(%ebp),%eax
    1b99:	8b 55 f4             	mov    -0xc(%ebp),%edx
    1b9c:	89 44 24 0c          	mov    %eax,0xc(%esp)
    1ba0:	8d 45 e8             	lea    -0x18(%ebp),%eax
    1ba3:	89 44 24 08          	mov    %eax,0x8(%esp)
    1ba7:	8b 45 f0             	mov    -0x10(%ebp),%eax
    1baa:	89 04 24             	mov    %eax,(%esp)
    1bad:	89 54 24 04          	mov    %edx,0x4(%esp)
    1bb1:	e8 7a ea 00 00       	call   10630 <task_wait>
    1bb6:	85 c0                	test   %eax,%eax
    1bb8:	75 0e                	jne    1bc8 <button13+0x68>
    1bba:	8b 55 e8             	mov    -0x18(%ebp),%edx
    1bbd:	85 d2                	test   %edx,%edx
    1bbf:	75 07                	jne    1bc8 <button13+0x68>
    1bc1:	c9                   	leave  
    1bc2:	c3                   	ret    
    1bc3:	90                   	nop
    1bc4:	8d 74 26 00          	lea    0x0(%esi,%eiz,1),%esi
    1bc8:	89 04 24             	mov    %eax,(%esp)
    1bcb:	e8 00 c8 00 00       	call   e3d0 <str_error>
    1bd0:	c7 44 24 04 a2 4a 02 	movl   $0x24aa2,0x4(%esp)
    1bd7:	00 
    1bd8:	89 44 24 08          	mov    %eax,0x8(%esp)
    1bdc:	c7 04 24 54 4b 02 00 	movl   $0x24b54,(%esp)
    1be3:	e8 68 11 01 00       	call   12d50 <printf>
    1be8:	c9                   	leave  
    1be9:	c3                   	ret    
    1bea:	8d b6 00 00 00 00    	lea    0x0(%esi),%esi
    1bf0:	89 04 24             	mov    %eax,(%esp)
    1bf3:	e8 d8 c7 00 00       	call   e3d0 <str_error>
    1bf8:	c7 44 24 04 a2 4a 02 	movl   $0x24aa2,0x4(%esp)
    1bff:	00 
    1c00:	89 44 24 0c          	mov    %eax,0xc(%esp)
    1c04:	a1 80 2f 03 00       	mov    0x32f80,%eax
    1c09:	89 44 24 08          	mov    %eax,0x8(%esp)
    1c0d:	c7 04 24 b4 4a 02 00 	movl   $0x24ab4,(%esp)
    1c14:	e8 37 11 01 00       	call   12d50 <printf>
    1c19:	c9                   	leave  
    1c1a:	c3                   	ret    
    1c1b:	90                   	nop
    1c1c:	8d 74 26 00          	lea    0x0(%esi,%eiz,1),%esi

00001c20 <button14>:
    1c20:	55                   	push   %ebp
    1c21:	89 e5                	mov    %esp,%ebp
    1c23:	83 ec 38             	sub    $0x38,%esp
    1c26:	a1 d8 2f 03 00       	mov    0x32fd8,%eax
    1c2b:	89 44 24 0c          	mov    %eax,0xc(%esp)
    1c2f:	8d 45 f0             	lea    -0x10(%ebp),%eax
    1c32:	c7 44 24 10 00 00 00 	movl   $0x0,0x10(%esp)
    1c39:	00 
    1c3a:	c7 44 24 08 a2 4a 02 	movl   $0x24aa2,0x8(%esp)
    1c41:	00 
    1c42:	c7 44 24 04 a2 4a 02 	movl   $0x24aa2,0x4(%esp)
    1c49:	00 
    1c4a:	89 04 24             	mov    %eax,(%esp)
    1c4d:	e8 ce e8 00 00       	call   10520 <task_spawnl>
    1c52:	85 c0                	test   %eax,%eax
    1c54:	75 5a                	jne    1cb0 <button14+0x90>
    1c56:	8d 45 ec             	lea    -0x14(%ebp),%eax
    1c59:	8b 55 f4             	mov    -0xc(%ebp),%edx
    1c5c:	89 44 24 0c          	mov    %eax,0xc(%esp)
    1c60:	8d 45 e8             	lea    -0x18(%ebp),%eax
    1c63:	89 44 24 08          	mov    %eax,0x8(%esp)
    1c67:	8b 45 f0             	mov    -0x10(%ebp),%eax
    1c6a:	89 04 24             	mov    %eax,(%esp)
    1c6d:	89 54 24 04          	mov    %edx,0x4(%esp)
    1c71:	e8 ba e9 00 00       	call   10630 <task_wait>
    1c76:	85 c0                	test   %eax,%eax
    1c78:	75 0e                	jne    1c88 <button14+0x68>
    1c7a:	8b 4d e8             	mov    -0x18(%ebp),%ecx
    1c7d:	85 c9                	test   %ecx,%ecx
    1c7f:	75 07                	jne    1c88 <button14+0x68>
    1c81:	c9                   	leave  
    1c82:	c3                   	ret    
    1c83:	90                   	nop
    1c84:	8d 74 26 00          	lea    0x0(%esi,%eiz,1),%esi
    1c88:	89 04 24             	mov    %eax,(%esp)
    1c8b:	e8 40 c7 00 00       	call   e3d0 <str_error>
    1c90:	c7 44 24 04 a2 4a 02 	movl   $0x24aa2,0x4(%esp)
    1c97:	00 
    1c98:	89 44 24 08          	mov    %eax,0x8(%esp)
    1c9c:	c7 04 24 54 4b 02 00 	movl   $0x24b54,(%esp)
    1ca3:	e8 a8 10 01 00       	call   12d50 <printf>
    1ca8:	c9                   	leave  
    1ca9:	c3                   	ret    
    1caa:	8d b6 00 00 00 00    	lea    0x0(%esi),%esi
    1cb0:	89 04 24             	mov    %eax,(%esp)
    1cb3:	e8 18 c7 00 00       	call   e3d0 <str_error>
    1cb8:	c7 44 24 04 a2 4a 02 	movl   $0x24aa2,0x4(%esp)
    1cbf:	00 
    1cc0:	89 44 24 0c          	mov    %eax,0xc(%esp)
    1cc4:	a1 80 2f 03 00       	mov    0x32f80,%eax
    1cc9:	89 44 24 08          	mov    %eax,0x8(%esp)
    1ccd:	c7 04 24 b4 4a 02 00 	movl   $0x24ab4,(%esp)
    1cd4:	e8 77 10 01 00       	call   12d50 <printf>
    1cd9:	c9                   	leave  
    1cda:	c3                   	ret    
    1cdb:	90                   	nop
    1cdc:	8d 74 26 00          	lea    0x0(%esi,%eiz,1),%esi

00001ce0 <button15>:
    1ce0:	55                   	push   %ebp
    1ce1:	89 e5                	mov    %esp,%ebp
    1ce3:	83 ec 38             	sub    $0x38,%esp
    1ce6:	a1 dc 2f 03 00       	mov    0x32fdc,%eax
    1ceb:	89 44 24 0c          	mov    %eax,0xc(%esp)
    1cef:	8d 45 f0             	lea    -0x10(%ebp),%eax
    1cf2:	c7 44 24 10 00 00 00 	movl   $0x0,0x10(%esp)
    1cf9:	00 
    1cfa:	c7 44 24 08 a2 4a 02 	movl   $0x24aa2,0x8(%esp)
    1d01:	00 
    1d02:	c7 44 24 04 a2 4a 02 	movl   $0x24aa2,0x4(%esp)
    1d09:	00 
    1d0a:	89 04 24             	mov    %eax,(%esp)
    1d0d:	e8 0e e8 00 00       	call   10520 <task_spawnl>
    1d12:	85 c0                	test   %eax,%eax
    1d14:	75 5a                	jne    1d70 <button15+0x90>
    1d16:	8d 45 ec             	lea    -0x14(%ebp),%eax
    1d19:	8b 55 f4             	mov    -0xc(%ebp),%edx
    1d1c:	89 44 24 0c          	mov    %eax,0xc(%esp)
    1d20:	8d 45 e8             	lea    -0x18(%ebp),%eax
    1d23:	89 44 24 08          	mov    %eax,0x8(%esp)
    1d27:	8b 45 f0             	mov    -0x10(%ebp),%eax
    1d2a:	89 04 24             	mov    %eax,(%esp)
    1d2d:	89 54 24 04          	mov    %edx,0x4(%esp)
    1d31:	e8 fa e8 00 00       	call   10630 <task_wait>
    1d36:	85 c0                	test   %eax,%eax
    1d38:	75 0e                	jne    1d48 <button15+0x68>
    1d3a:	8b 55 e8             	mov    -0x18(%ebp),%edx
    1d3d:	85 d2                	test   %edx,%edx
    1d3f:	75 07                	jne    1d48 <button15+0x68>
    1d41:	c9                   	leave  
    1d42:	c3                   	ret    
    1d43:	90                   	nop
    1d44:	8d 74 26 00          	lea    0x0(%esi,%eiz,1),%esi
    1d48:	89 04 24             	mov    %eax,(%esp)
    1d4b:	e8 80 c6 00 00       	call   e3d0 <str_error>
    1d50:	c7 44 24 04 a2 4a 02 	movl   $0x24aa2,0x4(%esp)
    1d57:	00 
    1d58:	89 44 24 08          	mov    %eax,0x8(%esp)
    1d5c:	c7 04 24 54 4b 02 00 	movl   $0x24b54,(%esp)
    1d63:	e8 e8 0f 01 00       	call   12d50 <printf>
    1d68:	c9                   	leave  
    1d69:	c3                   	ret    
    1d6a:	8d b6 00 00 00 00    	lea    0x0(%esi),%esi
    1d70:	89 04 24             	mov    %eax,(%esp)
    1d73:	e8 58 c6 00 00       	call   e3d0 <str_error>
    1d78:	c7 44 24 04 a2 4a 02 	movl   $0x24aa2,0x4(%esp)
    1d7f:	00 
    1d80:	89 44 24 0c          	mov    %eax,0xc(%esp)
    1d84:	a1 80 2f 03 00       	mov    0x32f80,%eax
    1d89:	89 44 24 08          	mov    %eax,0x8(%esp)
    1d8d:	c7 04 24 b4 4a 02 00 	movl   $0x24ab4,(%esp)
    1d94:	e8 b7 0f 01 00       	call   12d50 <printf>
    1d99:	c9                   	leave  
    1d9a:	c3                   	ret    
    1d9b:	90                   	nop
    1d9c:	8d 74 26 00          	lea    0x0(%esi,%eiz,1),%esi

00001da0 <button16>:
    1da0:	55                   	push   %ebp
    1da1:	89 e5                	mov    %esp,%ebp
    1da3:	83 ec 38             	sub    $0x38,%esp
    1da6:	a1 e0 2f 03 00       	mov    0x32fe0,%eax
    1dab:	89 44 24 0c          	mov    %eax,0xc(%esp)
    1daf:	8d 45 f0             	lea    -0x10(%ebp),%eax
    1db2:	c7 44 24 10 00 00 00 	movl   $0x0,0x10(%esp)
    1db9:	00 
    1dba:	c7 44 24 08 a2 4a 02 	movl   $0x24aa2,0x8(%esp)
    1dc1:	00 
    1dc2:	c7 44 24 04 a2 4a 02 	movl   $0x24aa2,0x4(%esp)
    1dc9:	00 
    1dca:	89 04 24             	mov    %eax,(%esp)
    1dcd:	e8 4e e7 00 00       	call   10520 <task_spawnl>
    1dd2:	85 c0                	test   %eax,%eax
    1dd4:	75 5a                	jne    1e30 <button16+0x90>
    1dd6:	8d 45 ec             	lea    -0x14(%ebp),%eax
    1dd9:	8b 55 f4             	mov    -0xc(%ebp),%edx
    1ddc:	89 44 24 0c          	mov    %eax,0xc(%esp)
    1de0:	8d 45 e8             	lea    -0x18(%ebp),%eax
    1de3:	89 44 24 08          	mov    %eax,0x8(%esp)
    1de7:	8b 45 f0             	mov    -0x10(%ebp),%eax
    1dea:	89 04 24             	mov    %eax,(%esp)
    1ded:	89 54 24 04          	mov    %edx,0x4(%esp)
    1df1:	e8 3a e8 00 00       	call   10630 <task_wait>
    1df6:	85 c0                	test   %eax,%eax
    1df8:	75 0e                	jne    1e08 <button16+0x68>
    1dfa:	8b 4d e8             	mov    -0x18(%ebp),%ecx
    1dfd:	85 c9                	test   %ecx,%ecx
    1dff:	75 07                	jne    1e08 <button16+0x68>
    1e01:	c9                   	leave  
    1e02:	c3                   	ret    
    1e03:	90                   	nop
    1e04:	8d 74 26 00          	lea    0x0(%esi,%eiz,1),%esi
    1e08:	89 04 24             	mov    %eax,(%esp)
    1e0b:	e8 c0 c5 00 00       	call   e3d0 <str_error>
    1e10:	c7 44 24 04 a2 4a 02 	movl   $0x24aa2,0x4(%esp)
    1e17:	00 
    1e18:	89 44 24 08          	mov    %eax,0x8(%esp)
    1e1c:	c7 04 24 54 4b 02 00 	movl   $0x24b54,(%esp)
    1e23:	e8 28 0f 01 00       	call   12d50 <printf>
    1e28:	c9                   	leave  
    1e29:	c3                   	ret    
    1e2a:	8d b6 00 00 00 00    	lea    0x0(%esi),%esi
    1e30:	89 04 24             	mov    %eax,(%esp)
    1e33:	e8 98 c5 00 00       	call   e3d0 <str_error>
    1e38:	c7 44 24 04 a2 4a 02 	movl   $0x24aa2,0x4(%esp)
    1e3f:	00 
    1e40:	89 44 24 0c          	mov    %eax,0xc(%esp)
    1e44:	a1 80 2f 03 00       	mov    0x32f80,%eax
    1e49:	89 44 24 08          	mov    %eax,0x8(%esp)
    1e4d:	c7 04 24 b4 4a 02 00 	movl   $0x24ab4,(%esp)
    1e54:	e8 f7 0e 01 00       	call   12d50 <printf>
    1e59:	c9                   	leave  
    1e5a:	c3                   	ret    
    1e5b:	90                   	nop
    1e5c:	8d 74 26 00          	lea    0x0(%esi,%eiz,1),%esi

00001e60 <button17>:
    1e60:	55                   	push   %ebp
    1e61:	89 e5                	mov    %esp,%ebp
    1e63:	83 ec 38             	sub    $0x38,%esp
    1e66:	a1 e4 2f 03 00       	mov    0x32fe4,%eax
    1e6b:	89 44 24 0c          	mov    %eax,0xc(%esp)
    1e6f:	8d 45 f0             	lea    -0x10(%ebp),%eax
    1e72:	c7 44 24 10 00 00 00 	movl   $0x0,0x10(%esp)
    1e79:	00 
    1e7a:	c7 44 24 08 a2 4a 02 	movl   $0x24aa2,0x8(%esp)
    1e81:	00 
    1e82:	c7 44 24 04 a2 4a 02 	movl   $0x24aa2,0x4(%esp)
    1e89:	00 
    1e8a:	89 04 24             	mov    %eax,(%esp)
    1e8d:	e8 8e e6 00 00       	call   10520 <task_spawnl>
    1e92:	85 c0                	test   %eax,%eax
    1e94:	75 5a                	jne    1ef0 <button17+0x90>
    1e96:	8d 45 ec             	lea    -0x14(%ebp),%eax
    1e99:	8b 55 f4             	mov    -0xc(%ebp),%edx
    1e9c:	89 44 24 0c          	mov    %eax,0xc(%esp)
    1ea0:	8d 45 e8             	lea    -0x18(%ebp),%eax
    1ea3:	89 44 24 08          	mov    %eax,0x8(%esp)
    1ea7:	8b 45 f0             	mov    -0x10(%ebp),%eax
    1eaa:	89 04 24             	mov    %eax,(%esp)
    1ead:	89 54 24 04          	mov    %edx,0x4(%esp)
    1eb1:	e8 7a e7 00 00       	call   10630 <task_wait>
    1eb6:	85 c0                	test   %eax,%eax
    1eb8:	75 0e                	jne    1ec8 <button17+0x68>
    1eba:	8b 55 e8             	mov    -0x18(%ebp),%edx
    1ebd:	85 d2                	test   %edx,%edx
    1ebf:	75 07                	jne    1ec8 <button17+0x68>
    1ec1:	c9                   	leave  
    1ec2:	c3                   	ret    
    1ec3:	90                   	nop
    1ec4:	8d 74 26 00          	lea    0x0(%esi,%eiz,1),%esi
    1ec8:	89 04 24             	mov    %eax,(%esp)
    1ecb:	e8 00 c5 00 00       	call   e3d0 <str_error>
    1ed0:	c7 44 24 04 a2 4a 02 	movl   $0x24aa2,0x4(%esp)
    1ed7:	00 
    1ed8:	89 44 24 08          	mov    %eax,0x8(%esp)
    1edc:	c7 04 24 54 4b 02 00 	movl   $0x24b54,(%esp)
    1ee3:	e8 68 0e 01 00       	call   12d50 <printf>
    1ee8:	c9                   	leave  
    1ee9:	c3                   	ret    
    1eea:	8d b6 00 00 00 00    	lea    0x0(%esi),%esi
    1ef0:	89 04 24             	mov    %eax,(%esp)
    1ef3:	e8 d8 c4 00 00       	call   e3d0 <str_error>
    1ef8:	c7 44 24 04 a2 4a 02 	movl   $0x24aa2,0x4(%esp)
    1eff:	00 
    1f00:	89 44 24 0c          	mov    %eax,0xc(%esp)
    1f04:	a1 80 2f 03 00       	mov    0x32f80,%eax
    1f09:	89 44 24 08          	mov    %eax,0x8(%esp)
    1f0d:	c7 04 24 b4 4a 02 00 	movl   $0x24ab4,(%esp)
    1f14:	e8 37 0e 01 00       	call   12d50 <printf>
    1f19:	c9                   	leave  
    1f1a:	c3                   	ret    
    1f1b:	90                   	nop
    1f1c:	8d 74 26 00          	lea    0x0(%esi,%eiz,1),%esi

00001f20 <button18>:
    1f20:	55                   	push   %ebp
    1f21:	89 e5                	mov    %esp,%ebp
    1f23:	83 ec 38             	sub    $0x38,%esp
    1f26:	a1 e8 2f 03 00       	mov    0x32fe8,%eax
    1f2b:	89 44 24 0c          	mov    %eax,0xc(%esp)
    1f2f:	8d 45 f0             	lea    -0x10(%ebp),%eax
    1f32:	c7 44 24 10 00 00 00 	movl   $0x0,0x10(%esp)
    1f39:	00 
    1f3a:	c7 44 24 08 a2 4a 02 	movl   $0x24aa2,0x8(%esp)
    1f41:	00 
    1f42:	c7 44 24 04 a2 4a 02 	movl   $0x24aa2,0x4(%esp)
    1f49:	00 
    1f4a:	89 04 24             	mov    %eax,(%esp)
    1f4d:	e8 ce e5 00 00       	call   10520 <task_spawnl>
    1f52:	85 c0                	test   %eax,%eax
    1f54:	75 5a                	jne    1fb0 <button18+0x90>
    1f56:	8d 45 ec             	lea    -0x14(%ebp),%eax
    1f59:	8b 55 f4             	mov    -0xc(%ebp),%edx
    1f5c:	89 44 24 0c          	mov    %eax,0xc(%esp)
    1f60:	8d 45 e8             	lea    -0x18(%ebp),%eax
    1f63:	89 44 24 08          	mov    %eax,0x8(%esp)
    1f67:	8b 45 f0             	mov    -0x10(%ebp),%eax
    1f6a:	89 04 24             	mov    %eax,(%esp)
    1f6d:	89 54 24 04          	mov    %edx,0x4(%esp)
    1f71:	e8 ba e6 00 00       	call   10630 <task_wait>
    1f76:	85 c0                	test   %eax,%eax
    1f78:	75 0e                	jne    1f88 <button18+0x68>
    1f7a:	8b 4d e8             	mov    -0x18(%ebp),%ecx
    1f7d:	85 c9                	test   %ecx,%ecx
    1f7f:	75 07                	jne    1f88 <button18+0x68>
    1f81:	c9                   	leave  
    1f82:	c3                   	ret    
    1f83:	90                   	nop
    1f84:	8d 74 26 00          	lea    0x0(%esi,%eiz,1),%esi
    1f88:	89 04 24             	mov    %eax,(%esp)
    1f8b:	e8 40 c4 00 00       	call   e3d0 <str_error>
    1f90:	c7 44 24 04 a2 4a 02 	movl   $0x24aa2,0x4(%esp)
    1f97:	00 
    1f98:	89 44 24 08          	mov    %eax,0x8(%esp)
    1f9c:	c7 04 24 54 4b 02 00 	movl   $0x24b54,(%esp)
    1fa3:	e8 a8 0d 01 00       	call   12d50 <printf>
    1fa8:	c9                   	leave  
    1fa9:	c3                   	ret    
    1faa:	8d b6 00 00 00 00    	lea    0x0(%esi),%esi
    1fb0:	89 04 24             	mov    %eax,(%esp)
    1fb3:	e8 18 c4 00 00       	call   e3d0 <str_error>
    1fb8:	c7 44 24 04 a2 4a 02 	movl   $0x24aa2,0x4(%esp)
    1fbf:	00 
    1fc0:	89 44 24 0c          	mov    %eax,0xc(%esp)
    1fc4:	a1 80 2f 03 00       	mov    0x32f80,%eax
    1fc9:	89 44 24 08          	mov    %eax,0x8(%esp)
    1fcd:	c7 04 24 b4 4a 02 00 	movl   $0x24ab4,(%esp)
    1fd4:	e8 77 0d 01 00       	call   12d50 <printf>
    1fd9:	c9                   	leave  
    1fda:	c3                   	ret    
    1fdb:	90                   	nop
    1fdc:	8d 74 26 00          	lea    0x0(%esi,%eiz,1),%esi

00001fe0 <button19>:
    1fe0:	55                   	push   %ebp
    1fe1:	89 e5                	mov    %esp,%ebp
    1fe3:	83 ec 38             	sub    $0x38,%esp
    1fe6:	a1 ec 2f 03 00       	mov    0x32fec,%eax
    1feb:	89 44 24 0c          	mov    %eax,0xc(%esp)
    1fef:	8d 45 f0             	lea    -0x10(%ebp),%eax
    1ff2:	c7 44 24 10 00 00 00 	movl   $0x0,0x10(%esp)
    1ff9:	00 
    1ffa:	c7 44 24 08 a2 4a 02 	movl   $0x24aa2,0x8(%esp)
    2001:	00 
    2002:	c7 44 24 04 a2 4a 02 	movl   $0x24aa2,0x4(%esp)
    2009:	00 
    200a:	89 04 24             	mov    %eax,(%esp)
    200d:	e8 0e e5 00 00       	call   10520 <task_spawnl>
    2012:	85 c0                	test   %eax,%eax
    2014:	75 5a                	jne    2070 <button19+0x90>
    2016:	8d 45 ec             	lea    -0x14(%ebp),%eax
    2019:	8b 55 f4             	mov    -0xc(%ebp),%edx
    201c:	89 44 24 0c          	mov    %eax,0xc(%esp)
    2020:	8d 45 e8             	lea    -0x18(%ebp),%eax
    2023:	89 44 24 08          	mov    %eax,0x8(%esp)
    2027:	8b 45 f0             	mov    -0x10(%ebp),%eax
    202a:	89 04 24             	mov    %eax,(%esp)
    202d:	89 54 24 04          	mov    %edx,0x4(%esp)
    2031:	e8 fa e5 00 00       	call   10630 <task_wait>
    2036:	85 c0                	test   %eax,%eax
    2038:	75 0e                	jne    2048 <button19+0x68>
    203a:	8b 55 e8             	mov    -0x18(%ebp),%edx
    203d:	85 d2                	test   %edx,%edx
    203f:	75 07                	jne    2048 <button19+0x68>
    2041:	c9                   	leave  
    2042:	c3                   	ret    
    2043:	90                   	nop
    2044:	8d 74 26 00          	lea    0x0(%esi,%eiz,1),%esi
    2048:	89 04 24             	mov    %eax,(%esp)
    204b:	e8 80 c3 00 00       	call   e3d0 <str_error>
    2050:	c7 44 24 04 a2 4a 02 	movl   $0x24aa2,0x4(%esp)
    2057:	00 
    2058:	89 44 24 08          	mov    %eax,0x8(%esp)
    205c:	c7 04 24 54 4b 02 00 	movl   $0x24b54,(%esp)
    2063:	e8 e8 0c 01 00       	call   12d50 <printf>
    2068:	c9                   	leave  
    2069:	c3                   	ret    
    206a:	8d b6 00 00 00 00    	lea    0x0(%esi),%esi
    2070:	89 04 24             	mov    %eax,(%esp)
    2073:	e8 58 c3 00 00       	call   e3d0 <str_error>
    2078:	c7 44 24 04 a2 4a 02 	movl   $0x24aa2,0x4(%esp)
    207f:	00 
    2080:	89 44 24 0c          	mov    %eax,0xc(%esp)
    2084:	a1 80 2f 03 00       	mov    0x32f80,%eax
    2089:	89 44 24 08          	mov    %eax,0x8(%esp)
    208d:	c7 04 24 b4 4a 02 00 	movl   $0x24ab4,(%esp)
    2094:	e8 b7 0c 01 00       	call   12d50 <printf>
    2099:	c9                   	leave  
    209a:	c3                   	ret    
    209b:	90                   	nop
    209c:	8d 74 26 00          	lea    0x0(%esi,%eiz,1),%esi

000020a0 <button20>:
    20a0:	55                   	push   %ebp
    20a1:	89 e5                	mov    %esp,%ebp
    20a3:	83 ec 38             	sub    $0x38,%esp
    20a6:	a1 f0 2f 03 00       	mov    0x32ff0,%eax
    20ab:	89 44 24 0c          	mov    %eax,0xc(%esp)
    20af:	8d 45 f0             	lea    -0x10(%ebp),%eax
    20b2:	c7 44 24 10 00 00 00 	movl   $0x0,0x10(%esp)
    20b9:	00 
    20ba:	c7 44 24 08 a2 4a 02 	movl   $0x24aa2,0x8(%esp)
    20c1:	00 
    20c2:	c7 44 24 04 a2 4a 02 	movl   $0x24aa2,0x4(%esp)
    20c9:	00 
    20ca:	89 04 24             	mov    %eax,(%esp)
    20cd:	e8 4e e4 00 00       	call   10520 <task_spawnl>
    20d2:	85 c0                	test   %eax,%eax
    20d4:	75 5a                	jne    2130 <button20+0x90>
    20d6:	8d 45 ec             	lea    -0x14(%ebp),%eax
    20d9:	8b 55 f4             	mov    -0xc(%ebp),%edx
    20dc:	89 44 24 0c          	mov    %eax,0xc(%esp)
    20e0:	8d 45 e8             	lea    -0x18(%ebp),%eax
    20e3:	89 44 24 08          	mov    %eax,0x8(%esp)
    20e7:	8b 45 f0             	mov    -0x10(%ebp),%eax
    20ea:	89 04 24             	mov    %eax,(%esp)
    20ed:	89 54 24 04          	mov    %edx,0x4(%esp)
    20f1:	e8 3a e5 00 00       	call   10630 <task_wait>
    20f6:	85 c0                	test   %eax,%eax
    20f8:	75 0e                	jne    2108 <button20+0x68>
    20fa:	8b 4d e8             	mov    -0x18(%ebp),%ecx
    20fd:	85 c9                	test   %ecx,%ecx
    20ff:	75 07                	jne    2108 <button20+0x68>
    2101:	c9                   	leave  
    2102:	c3                   	ret    
    2103:	90                   	nop
    2104:	8d 74 26 00          	lea    0x0(%esi,%eiz,1),%esi
    2108:	89 04 24             	mov    %eax,(%esp)
    210b:	e8 c0 c2 00 00       	call   e3d0 <str_error>
    2110:	c7 44 24 04 a2 4a 02 	movl   $0x24aa2,0x4(%esp)
    2117:	00 
    2118:	89 44 24 08          	mov    %eax,0x8(%esp)
    211c:	c7 04 24 54 4b 02 00 	movl   $0x24b54,(%esp)
    2123:	e8 28 0c 01 00       	call   12d50 <printf>
    2128:	c9                   	leave  
    2129:	c3                   	ret    
    212a:	8d b6 00 00 00 00    	lea    0x0(%esi),%esi
    2130:	89 04 24             	mov    %eax,(%esp)
    2133:	e8 98 c2 00 00       	call   e3d0 <str_error>
    2138:	c7 44 24 04 a2 4a 02 	movl   $0x24aa2,0x4(%esp)
    213f:	00 
    2140:	89 44 24 0c          	mov    %eax,0xc(%esp)
    2144:	a1 80 2f 03 00       	mov    0x32f80,%eax
    2149:	89 44 24 08          	mov    %eax,0x8(%esp)
    214d:	c7 04 24 b4 4a 02 00 	movl   $0x24ab4,(%esp)
    2154:	e8 f7 0b 01 00       	call   12d50 <printf>
    2159:	c9                   	leave  
    215a:	c3                   	ret    
    215b:	90                   	nop
    215c:	8d 74 26 00          	lea    0x0(%esi,%eiz,1),%esi

00002160 <button21>:
    2160:	55                   	push   %ebp
    2161:	89 e5                	mov    %esp,%ebp
    2163:	83 ec 38             	sub    $0x38,%esp
    2166:	a1 f4 2f 03 00       	mov    0x32ff4,%eax
    216b:	89 44 24 0c          	mov    %eax,0xc(%esp)
    216f:	8d 45 f0             	lea    -0x10(%ebp),%eax
    2172:	c7 44 24 10 00 00 00 	movl   $0x0,0x10(%esp)
    2179:	00 
    217a:	c7 44 24 08 a2 4a 02 	movl   $0x24aa2,0x8(%esp)
    2181:	00 
    2182:	c7 44 24 04 a2 4a 02 	movl   $0x24aa2,0x4(%esp)
    2189:	00 
    218a:	89 04 24             	mov    %eax,(%esp)
    218d:	e8 8e e3 00 00       	call   10520 <task_spawnl>
    2192:	85 c0                	test   %eax,%eax
    2194:	75 5a                	jne    21f0 <button21+0x90>
    2196:	8d 45 ec             	lea    -0x14(%ebp),%eax
    2199:	8b 55 f4             	mov    -0xc(%ebp),%edx
    219c:	89 44 24 0c          	mov    %eax,0xc(%esp)
    21a0:	8d 45 e8             	lea    -0x18(%ebp),%eax
    21a3:	89 44 24 08          	mov    %eax,0x8(%esp)
    21a7:	8b 45 f0             	mov    -0x10(%ebp),%eax
    21aa:	89 04 24             	mov    %eax,(%esp)
    21ad:	89 54 24 04          	mov    %edx,0x4(%esp)
    21b1:	e8 7a e4 00 00       	call   10630 <task_wait>
    21b6:	85 c0                	test   %eax,%eax
    21b8:	75 0e                	jne    21c8 <button21+0x68>
    21ba:	8b 55 e8             	mov    -0x18(%ebp),%edx
    21bd:	85 d2                	test   %edx,%edx
    21bf:	75 07                	jne    21c8 <button21+0x68>
    21c1:	c9                   	leave  
    21c2:	c3                   	ret    
    21c3:	90                   	nop
    21c4:	8d 74 26 00          	lea    0x0(%esi,%eiz,1),%esi
    21c8:	89 04 24             	mov    %eax,(%esp)
    21cb:	e8 00 c2 00 00       	call   e3d0 <str_error>
    21d0:	c7 44 24 04 a2 4a 02 	movl   $0x24aa2,0x4(%esp)
    21d7:	00 
    21d8:	89 44 24 08          	mov    %eax,0x8(%esp)
    21dc:	c7 04 24 54 4b 02 00 	movl   $0x24b54,(%esp)
    21e3:	e8 68 0b 01 00       	call   12d50 <printf>
    21e8:	c9                   	leave  
    21e9:	c3                   	ret    
    21ea:	8d b6 00 00 00 00    	lea    0x0(%esi),%esi
    21f0:	89 04 24             	mov    %eax,(%esp)
    21f3:	e8 d8 c1 00 00       	call   e3d0 <str_error>
    21f8:	c7 44 24 04 a2 4a 02 	movl   $0x24aa2,0x4(%esp)
    21ff:	00 
    2200:	89 44 24 0c          	mov    %eax,0xc(%esp)
    2204:	a1 80 2f 03 00       	mov    0x32f80,%eax
    2209:	89 44 24 08          	mov    %eax,0x8(%esp)
    220d:	c7 04 24 b4 4a 02 00 	movl   $0x24ab4,(%esp)
    2214:	e8 37 0b 01 00       	call   12d50 <printf>
    2219:	c9                   	leave  
    221a:	c3                   	ret    
    221b:	90                   	nop
    221c:	8d 74 26 00          	lea    0x0(%esi,%eiz,1),%esi

00002220 <button22>:
    2220:	55                   	push   %ebp
    2221:	89 e5                	mov    %esp,%ebp
    2223:	83 ec 38             	sub    $0x38,%esp
    2226:	a1 f8 2f 03 00       	mov    0x32ff8,%eax
    222b:	89 44 24 0c          	mov    %eax,0xc(%esp)
    222f:	8d 45 f0             	lea    -0x10(%ebp),%eax
    2232:	c7 44 24 10 00 00 00 	movl   $0x0,0x10(%esp)
    2239:	00 
    223a:	c7 44 24 08 a2 4a 02 	movl   $0x24aa2,0x8(%esp)
    2241:	00 
    2242:	c7 44 24 04 a2 4a 02 	movl   $0x24aa2,0x4(%esp)
    2249:	00 
    224a:	89 04 24             	mov    %eax,(%esp)
    224d:	e8 ce e2 00 00       	call   10520 <task_spawnl>
    2252:	85 c0                	test   %eax,%eax
    2254:	75 5a                	jne    22b0 <button22+0x90>
    2256:	8d 45 ec             	lea    -0x14(%ebp),%eax
    2259:	8b 55 f4             	mov    -0xc(%ebp),%edx
    225c:	89 44 24 0c          	mov    %eax,0xc(%esp)
    2260:	8d 45 e8             	lea    -0x18(%ebp),%eax
    2263:	89 44 24 08          	mov    %eax,0x8(%esp)
    2267:	8b 45 f0             	mov    -0x10(%ebp),%eax
    226a:	89 04 24             	mov    %eax,(%esp)
    226d:	89 54 24 04          	mov    %edx,0x4(%esp)
    2271:	e8 ba e3 00 00       	call   10630 <task_wait>
    2276:	85 c0                	test   %eax,%eax
    2278:	75 0e                	jne    2288 <button22+0x68>
    227a:	8b 4d e8             	mov    -0x18(%ebp),%ecx
    227d:	85 c9                	test   %ecx,%ecx
    227f:	75 07                	jne    2288 <button22+0x68>
    2281:	c9                   	leave  
    2282:	c3                   	ret    
    2283:	90                   	nop
    2284:	8d 74 26 00          	lea    0x0(%esi,%eiz,1),%esi
    2288:	89 04 24             	mov    %eax,(%esp)
    228b:	e8 40 c1 00 00       	call   e3d0 <str_error>
    2290:	c7 44 24 04 a2 4a 02 	movl   $0x24aa2,0x4(%esp)
    2297:	00 
    2298:	89 44 24 08          	mov    %eax,0x8(%esp)
    229c:	c7 04 24 54 4b 02 00 	movl   $0x24b54,(%esp)
    22a3:	e8 a8 0a 01 00       	call   12d50 <printf>
    22a8:	c9                   	leave  
    22a9:	c3                   	ret    
    22aa:	8d b6 00 00 00 00    	lea    0x0(%esi),%esi
    22b0:	89 04 24             	mov    %eax,(%esp)
    22b3:	e8 18 c1 00 00       	call   e3d0 <str_error>
    22b8:	c7 44 24 04 a2 4a 02 	movl   $0x24aa2,0x4(%esp)
    22bf:	00 
    22c0:	89 44 24 0c          	mov    %eax,0xc(%esp)
    22c4:	a1 80 2f 03 00       	mov    0x32f80,%eax
    22c9:	89 44 24 08          	mov    %eax,0x8(%esp)
    22cd:	c7 04 24 b4 4a 02 00 	movl   $0x24ab4,(%esp)
    22d4:	e8 77 0a 01 00       	call   12d50 <printf>
    22d9:	c9                   	leave  
    22da:	c3                   	ret    
    22db:	90                   	nop
    22dc:	8d 74 26 00          	lea    0x0(%esi,%eiz,1),%esi

000022e0 <button23>:
    22e0:	55                   	push   %ebp
    22e1:	89 e5                	mov    %esp,%ebp
    22e3:	83 ec 38             	sub    $0x38,%esp
    22e6:	a1 fc 2f 03 00       	mov    0x32ffc,%eax
    22eb:	89 44 24 0c          	mov    %eax,0xc(%esp)
    22ef:	8d 45 f0             	lea    -0x10(%ebp),%eax
    22f2:	c7 44 24 10 00 00 00 	movl   $0x0,0x10(%esp)
    22f9:	00 
    22fa:	c7 44 24 08 a2 4a 02 	movl   $0x24aa2,0x8(%esp)
    2301:	00 
    2302:	c7 44 24 04 a2 4a 02 	movl   $0x24aa2,0x4(%esp)
    2309:	00 
    230a:	89 04 24             	mov    %eax,(%esp)
    230d:	e8 0e e2 00 00       	call   10520 <task_spawnl>
    2312:	85 c0                	test   %eax,%eax
    2314:	75 5a                	jne    2370 <button23+0x90>
    2316:	8d 45 ec             	lea    -0x14(%ebp),%eax
    2319:	8b 55 f4             	mov    -0xc(%ebp),%edx
    231c:	89 44 24 0c          	mov    %eax,0xc(%esp)
    2320:	8d 45 e8             	lea    -0x18(%ebp),%eax
    2323:	89 44 24 08          	mov    %eax,0x8(%esp)
    2327:	8b 45 f0             	mov    -0x10(%ebp),%eax
    232a:	89 04 24             	mov    %eax,(%esp)
    232d:	89 54 24 04          	mov    %edx,0x4(%esp)
    2331:	e8 fa e2 00 00       	call   10630 <task_wait>
    2336:	85 c0                	test   %eax,%eax
    2338:	75 0e                	jne    2348 <button23+0x68>
    233a:	8b 55 e8             	mov    -0x18(%ebp),%edx
    233d:	85 d2                	test   %edx,%edx
    233f:	75 07                	jne    2348 <button23+0x68>
    2341:	c9                   	leave  
    2342:	c3                   	ret    
    2343:	90                   	nop
    2344:	8d 74 26 00          	lea    0x0(%esi,%eiz,1),%esi
    2348:	89 04 24             	mov    %eax,(%esp)
    234b:	e8 80 c0 00 00       	call   e3d0 <str_error>
    2350:	c7 44 24 04 a2 4a 02 	movl   $0x24aa2,0x4(%esp)
    2357:	00 
    2358:	89 44 24 08          	mov    %eax,0x8(%esp)
    235c:	c7 04 24 54 4b 02 00 	movl   $0x24b54,(%esp)
    2363:	e8 e8 09 01 00       	call   12d50 <printf>
    2368:	c9                   	leave  
    2369:	c3                   	ret    
    236a:	8d b6 00 00 00 00    	lea    0x0(%esi),%esi
    2370:	89 04 24             	mov    %eax,(%esp)
    2373:	e8 58 c0 00 00       	call   e3d0 <str_error>
    2378:	c7 44 24 04 a2 4a 02 	movl   $0x24aa2,0x4(%esp)
    237f:	00 
    2380:	89 44 24 0c          	mov    %eax,0xc(%esp)
    2384:	a1 80 2f 03 00       	mov    0x32f80,%eax
    2389:	89 44 24 08          	mov    %eax,0x8(%esp)
    238d:	c7 04 24 b4 4a 02 00 	movl   $0x24ab4,(%esp)
    2394:	e8 b7 09 01 00       	call   12d50 <printf>
    2399:	c9                   	leave  
    239a:	c3                   	ret    
    239b:	90                   	nop
    239c:	8d 74 26 00          	lea    0x0(%esi,%eiz,1),%esi

000023a0 <button24>:
    23a0:	55                   	push   %ebp
    23a1:	89 e5                	mov    %esp,%ebp
    23a3:	83 ec 38             	sub    $0x38,%esp
    23a6:	a1 00 30 03 00       	mov    0x33000,%eax
    23ab:	89 44 24 0c          	mov    %eax,0xc(%esp)
    23af:	8d 45 f0             	lea    -0x10(%ebp),%eax
    23b2:	c7 44 24 10 00 00 00 	movl   $0x0,0x10(%esp)
    23b9:	00 
    23ba:	c7 44 24 08 a2 4a 02 	movl   $0x24aa2,0x8(%esp)
    23c1:	00 
    23c2:	c7 44 24 04 a2 4a 02 	movl   $0x24aa2,0x4(%esp)
    23c9:	00 
    23ca:	89 04 24             	mov    %eax,(%esp)
    23cd:	e8 4e e1 00 00       	call   10520 <task_spawnl>
    23d2:	85 c0                	test   %eax,%eax
    23d4:	75 5a                	jne    2430 <button24+0x90>
    23d6:	8d 45 ec             	lea    -0x14(%ebp),%eax
    23d9:	8b 55 f4             	mov    -0xc(%ebp),%edx
    23dc:	89 44 24 0c          	mov    %eax,0xc(%esp)
    23e0:	8d 45 e8             	lea    -0x18(%ebp),%eax
    23e3:	89 44 24 08          	mov    %eax,0x8(%esp)
    23e7:	8b 45 f0             	mov    -0x10(%ebp),%eax
    23ea:	89 04 24             	mov    %eax,(%esp)
    23ed:	89 54 24 04          	mov    %edx,0x4(%esp)
    23f1:	e8 3a e2 00 00       	call   10630 <task_wait>
    23f6:	85 c0                	test   %eax,%eax
    23f8:	75 0e                	jne    2408 <button24+0x68>
    23fa:	8b 4d e8             	mov    -0x18(%ebp),%ecx
    23fd:	85 c9                	test   %ecx,%ecx
    23ff:	75 07                	jne    2408 <button24+0x68>
    2401:	c9                   	leave  
    2402:	c3                   	ret    
    2403:	90                   	nop
    2404:	8d 74 26 00          	lea    0x0(%esi,%eiz,1),%esi
    2408:	89 04 24             	mov    %eax,(%esp)
    240b:	e8 c0 bf 00 00       	call   e3d0 <str_error>
    2410:	c7 44 24 04 a2 4a 02 	movl   $0x24aa2,0x4(%esp)
    2417:	00 
    2418:	89 44 24 08          	mov    %eax,0x8(%esp)
    241c:	c7 04 24 54 4b 02 00 	movl   $0x24b54,(%esp)
    2423:	e8 28 09 01 00       	call   12d50 <printf>
    2428:	c9                   	leave  
    2429:	c3                   	ret    
    242a:	8d b6 00 00 00 00    	lea    0x0(%esi),%esi
    2430:	89 04 24             	mov    %eax,(%esp)
    2433:	e8 98 bf 00 00       	call   e3d0 <str_error>
    2438:	c7 44 24 04 a2 4a 02 	movl   $0x24aa2,0x4(%esp)
    243f:	00 
    2440:	89 44 24 0c          	mov    %eax,0xc(%esp)
    2444:	a1 80 2f 03 00       	mov    0x32f80,%eax
    2449:	89 44 24 08          	mov    %eax,0x8(%esp)
    244d:	c7 04 24 b4 4a 02 00 	movl   $0x24ab4,(%esp)
    2454:	e8 f7 08 01 00       	call   12d50 <printf>
    2459:	c9                   	leave  
    245a:	c3                   	ret    
    245b:	90                   	nop
    245c:	8d 74 26 00          	lea    0x0(%esi,%eiz,1),%esi

00002460 <button25>:
    2460:	55                   	push   %ebp
    2461:	89 e5                	mov    %esp,%ebp
    2463:	83 ec 38             	sub    $0x38,%esp
    2466:	a1 04 30 03 00       	mov    0x33004,%eax
    246b:	89 44 24 0c          	mov    %eax,0xc(%esp)
    246f:	8d 45 f0             	lea    -0x10(%ebp),%eax
    2472:	c7 44 24 10 00 00 00 	movl   $0x0,0x10(%esp)
    2479:	00 
    247a:	c7 44 24 08 a2 4a 02 	movl   $0x24aa2,0x8(%esp)
    2481:	00 
    2482:	c7 44 24 04 a2 4a 02 	movl   $0x24aa2,0x4(%esp)
    2489:	00 
    248a:	89 04 24             	mov    %eax,(%esp)
    248d:	e8 8e e0 00 00       	call   10520 <task_spawnl>
    2492:	85 c0                	test   %eax,%eax
    2494:	75 5a                	jne    24f0 <button25+0x90>
    2496:	8d 45 ec             	lea    -0x14(%ebp),%eax
    2499:	8b 55 f4             	mov    -0xc(%ebp),%edx
    249c:	89 44 24 0c          	mov    %eax,0xc(%esp)
    24a0:	8d 45 e8             	lea    -0x18(%ebp),%eax
    24a3:	89 44 24 08          	mov    %eax,0x8(%esp)
    24a7:	8b 45 f0             	mov    -0x10(%ebp),%eax
    24aa:	89 04 24             	mov    %eax,(%esp)
    24ad:	89 54 24 04          	mov    %edx,0x4(%esp)
    24b1:	e8 7a e1 00 00       	call   10630 <task_wait>
    24b6:	85 c0                	test   %eax,%eax
    24b8:	75 0e                	jne    24c8 <button25+0x68>
    24ba:	8b 55 e8             	mov    -0x18(%ebp),%edx
    24bd:	85 d2                	test   %edx,%edx
    24bf:	75 07                	jne    24c8 <button25+0x68>
    24c1:	c9                   	leave  
    24c2:	c3                   	ret    
    24c3:	90                   	nop
    24c4:	8d 74 26 00          	lea    0x0(%esi,%eiz,1),%esi
    24c8:	89 04 24             	mov    %eax,(%esp)
    24cb:	e8 00 bf 00 00       	call   e3d0 <str_error>
    24d0:	c7 44 24 04 a2 4a 02 	movl   $0x24aa2,0x4(%esp)
    24d7:	00 
    24d8:	89 44 24 08          	mov    %eax,0x8(%esp)
    24dc:	c7 04 24 54 4b 02 00 	movl   $0x24b54,(%esp)
    24e3:	e8 68 08 01 00       	call   12d50 <printf>
    24e8:	c9                   	leave  
    24e9:	c3                   	ret    
    24ea:	8d b6 00 00 00 00    	lea    0x0(%esi),%esi
    24f0:	89 04 24             	mov    %eax,(%esp)
    24f3:	e8 d8 be 00 00       	call   e3d0 <str_error>
    24f8:	c7 44 24 04 a2 4a 02 	movl   $0x24aa2,0x4(%esp)
    24ff:	00 
    2500:	89 44 24 0c          	mov    %eax,0xc(%esp)
    2504:	a1 80 2f 03 00       	mov    0x32f80,%eax
    2509:	89 44 24 08          	mov    %eax,0x8(%esp)
    250d:	c7 04 24 b4 4a 02 00 	movl   $0x24ab4,(%esp)
    2514:	e8 37 08 01 00       	call   12d50 <printf>
    2519:	c9                   	leave  
    251a:	c3                   	ret    
    251b:	90                   	nop
    251c:	8d 74 26 00          	lea    0x0(%esi,%eiz,1),%esi

00002520 <button26>:
    2520:	55                   	push   %ebp
    2521:	89 e5                	mov    %esp,%ebp
    2523:	83 ec 38             	sub    $0x38,%esp
    2526:	a1 08 30 03 00       	mov    0x33008,%eax
    252b:	89 44 24 0c          	mov    %eax,0xc(%esp)
    252f:	8d 45 f0             	lea    -0x10(%ebp),%eax
    2532:	c7 44 24 10 00 00 00 	movl   $0x0,0x10(%esp)
    2539:	00 
    253a:	c7 44 24 08 a2 4a 02 	movl   $0x24aa2,0x8(%esp)
    2541:	00 
    2542:	c7 44 24 04 a2 4a 02 	movl   $0x24aa2,0x4(%esp)
    2549:	00 
    254a:	89 04 24             	mov    %eax,(%esp)
    254d:	e8 ce df 00 00       	call   10520 <task_spawnl>
    2552:	85 c0                	test   %eax,%eax
    2554:	75 5a                	jne    25b0 <button26+0x90>
    2556:	8d 45 ec             	lea    -0x14(%ebp),%eax
    2559:	8b 55 f4             	mov    -0xc(%ebp),%edx
    255c:	89 44 24 0c          	mov    %eax,0xc(%esp)
    2560:	8d 45 e8             	lea    -0x18(%ebp),%eax
    2563:	89 44 24 08          	mov    %eax,0x8(%esp)
    2567:	8b 45 f0             	mov    -0x10(%ebp),%eax
    256a:	89 04 24             	mov    %eax,(%esp)
    256d:	89 54 24 04          	mov    %edx,0x4(%esp)
    2571:	e8 ba e0 00 00       	call   10630 <task_wait>
    2576:	85 c0                	test   %eax,%eax
    2578:	75 0e                	jne    2588 <button26+0x68>
    257a:	8b 4d e8             	mov    -0x18(%ebp),%ecx
    257d:	85 c9                	test   %ecx,%ecx
    257f:	75 07                	jne    2588 <button26+0x68>
    2581:	c9                   	leave  
    2582:	c3                   	ret    
    2583:	90                   	nop
    2584:	8d 74 26 00          	lea    0x0(%esi,%eiz,1),%esi
    2588:	89 04 24             	mov    %eax,(%esp)
    258b:	e8 40 be 00 00       	call   e3d0 <str_error>
    2590:	c7 44 24 04 a2 4a 02 	movl   $0x24aa2,0x4(%esp)
    2597:	00 
    2598:	89 44 24 08          	mov    %eax,0x8(%esp)
    259c:	c7 04 24 54 4b 02 00 	movl   $0x24b54,(%esp)
    25a3:	e8 a8 07 01 00       	call   12d50 <printf>
    25a8:	c9                   	leave  
    25a9:	c3                   	ret    
    25aa:	8d b6 00 00 00 00    	lea    0x0(%esi),%esi
    25b0:	89 04 24             	mov    %eax,(%esp)
    25b3:	e8 18 be 00 00       	call   e3d0 <str_error>
    25b8:	c7 44 24 04 a2 4a 02 	movl   $0x24aa2,0x4(%esp)
    25bf:	00 
    25c0:	89 44 24 0c          	mov    %eax,0xc(%esp)
    25c4:	a1 80 2f 03 00       	mov    0x32f80,%eax
    25c9:	89 44 24 08          	mov    %eax,0x8(%esp)
    25cd:	c7 04 24 b4 4a 02 00 	movl   $0x24ab4,(%esp)
    25d4:	e8 77 07 01 00       	call   12d50 <printf>
    25d9:	c9                   	leave  
    25da:	c3                   	ret    
    25db:	90                   	nop
    25dc:	8d 74 26 00          	lea    0x0(%esi,%eiz,1),%esi

000025e0 <button27>:
    25e0:	55                   	push   %ebp
    25e1:	89 e5                	mov    %esp,%ebp
    25e3:	83 ec 38             	sub    $0x38,%esp
    25e6:	a1 0c 30 03 00       	mov    0x3300c,%eax
    25eb:	89 44 24 0c          	mov    %eax,0xc(%esp)
    25ef:	8d 45 f0             	lea    -0x10(%ebp),%eax
    25f2:	c7 44 24 10 00 00 00 	movl   $0x0,0x10(%esp)
    25f9:	00 
    25fa:	c7 44 24 08 a2 4a 02 	movl   $0x24aa2,0x8(%esp)
    2601:	00 
    2602:	c7 44 24 04 a2 4a 02 	movl   $0x24aa2,0x4(%esp)
    2609:	00 
    260a:	89 04 24             	mov    %eax,(%esp)
    260d:	e8 0e df 00 00       	call   10520 <task_spawnl>
    2612:	85 c0                	test   %eax,%eax
    2614:	75 5a                	jne    2670 <button27+0x90>
    2616:	8d 45 ec             	lea    -0x14(%ebp),%eax
    2619:	8b 55 f4             	mov    -0xc(%ebp),%edx
    261c:	89 44 24 0c          	mov    %eax,0xc(%esp)
    2620:	8d 45 e8             	lea    -0x18(%ebp),%eax
    2623:	89 44 24 08          	mov    %eax,0x8(%esp)
    2627:	8b 45 f0             	mov    -0x10(%ebp),%eax
    262a:	89 04 24             	mov    %eax,(%esp)
    262d:	89 54 24 04          	mov    %edx,0x4(%esp)
    2631:	e8 fa df 00 00       	call   10630 <task_wait>
    2636:	85 c0                	test   %eax,%eax
    2638:	75 0e                	jne    2648 <button27+0x68>
    263a:	8b 55 e8             	mov    -0x18(%ebp),%edx
    263d:	85 d2                	test   %edx,%edx
    263f:	75 07                	jne    2648 <button27+0x68>
    2641:	c9                   	leave  
    2642:	c3                   	ret    
    2643:	90                   	nop
    2644:	8d 74 26 00          	lea    0x0(%esi,%eiz,1),%esi
    2648:	89 04 24             	mov    %eax,(%esp)
    264b:	e8 80 bd 00 00       	call   e3d0 <str_error>
    2650:	c7 44 24 04 a2 4a 02 	movl   $0x24aa2,0x4(%esp)
    2657:	00 
    2658:	89 44 24 08          	mov    %eax,0x8(%esp)
    265c:	c7 04 24 54 4b 02 00 	movl   $0x24b54,(%esp)
    2663:	e8 e8 06 01 00       	call   12d50 <printf>
    2668:	c9                   	leave  
    2669:	c3                   	ret    
    266a:	8d b6 00 00 00 00    	lea    0x0(%esi),%esi
    2670:	89 04 24             	mov    %eax,(%esp)
    2673:	e8 58 bd 00 00       	call   e3d0 <str_error>
    2678:	c7 44 24 04 a2 4a 02 	movl   $0x24aa2,0x4(%esp)
    267f:	00 
    2680:	89 44 24 0c          	mov    %eax,0xc(%esp)
    2684:	a1 80 2f 03 00       	mov    0x32f80,%eax
    2689:	89 44 24 08          	mov    %eax,0x8(%esp)
    268d:	c7 04 24 b4 4a 02 00 	movl   $0x24ab4,(%esp)
    2694:	e8 b7 06 01 00       	call   12d50 <printf>
    2699:	c9                   	leave  
    269a:	c3                   	ret    
    269b:	90                   	nop
    269c:	8d 74 26 00          	lea    0x0(%esi,%eiz,1),%esi

000026a0 <button28>:
    26a0:	55                   	push   %ebp
    26a1:	89 e5                	mov    %esp,%ebp
    26a3:	83 ec 38             	sub    $0x38,%esp
    26a6:	a1 10 30 03 00       	mov    0x33010,%eax
    26ab:	89 44 24 0c          	mov    %eax,0xc(%esp)
    26af:	8d 45 f0             	lea    -0x10(%ebp),%eax
    26b2:	c7 44 24 10 00 00 00 	movl   $0x0,0x10(%esp)
    26b9:	00 
    26ba:	c7 44 24 08 a2 4a 02 	movl   $0x24aa2,0x8(%esp)
    26c1:	00 
    26c2:	c7 44 24 04 a2 4a 02 	movl   $0x24aa2,0x4(%esp)
    26c9:	00 
    26ca:	89 04 24             	mov    %eax,(%esp)
    26cd:	e8 4e de 00 00       	call   10520 <task_spawnl>
    26d2:	85 c0                	test   %eax,%eax
    26d4:	75 5a                	jne    2730 <button28+0x90>
    26d6:	8d 45 ec             	lea    -0x14(%ebp),%eax
    26d9:	8b 55 f4             	mov    -0xc(%ebp),%edx
    26dc:	89 44 24 0c          	mov    %eax,0xc(%esp)
    26e0:	8d 45 e8             	lea    -0x18(%ebp),%eax
    26e3:	89 44 24 08          	mov    %eax,0x8(%esp)
    26e7:	8b 45 f0             	mov    -0x10(%ebp),%eax
    26ea:	89 04 24             	mov    %eax,(%esp)
    26ed:	89 54 24 04          	mov    %edx,0x4(%esp)
    26f1:	e8 3a df 00 00       	call   10630 <task_wait>
    26f6:	85 c0                	test   %eax,%eax
    26f8:	75 0e                	jne    2708 <button28+0x68>
    26fa:	8b 4d e8             	mov    -0x18(%ebp),%ecx
    26fd:	85 c9                	test   %ecx,%ecx
    26ff:	75 07                	jne    2708 <button28+0x68>
    2701:	c9                   	leave  
    2702:	c3                   	ret    
    2703:	90                   	nop
    2704:	8d 74 26 00          	lea    0x0(%esi,%eiz,1),%esi
    2708:	89 04 24             	mov    %eax,(%esp)
    270b:	e8 c0 bc 00 00       	call   e3d0 <str_error>
    2710:	c7 44 24 04 a2 4a 02 	movl   $0x24aa2,0x4(%esp)
    2717:	00 
    2718:	89 44 24 08          	mov    %eax,0x8(%esp)
    271c:	c7 04 24 54 4b 02 00 	movl   $0x24b54,(%esp)
    2723:	e8 28 06 01 00       	call   12d50 <printf>
    2728:	c9                   	leave  
    2729:	c3                   	ret    
    272a:	8d b6 00 00 00 00    	lea    0x0(%esi),%esi
    2730:	89 04 24             	mov    %eax,(%esp)
    2733:	e8 98 bc 00 00       	call   e3d0 <str_error>
    2738:	c7 44 24 04 a2 4a 02 	movl   $0x24aa2,0x4(%esp)
    273f:	00 
    2740:	89 44 24 0c          	mov    %eax,0xc(%esp)
    2744:	a1 80 2f 03 00       	mov    0x32f80,%eax
    2749:	89 44 24 08          	mov    %eax,0x8(%esp)
    274d:	c7 04 24 b4 4a 02 00 	movl   $0x24ab4,(%esp)
    2754:	e8 f7 05 01 00       	call   12d50 <printf>
    2759:	c9                   	leave  
    275a:	c3                   	ret    
    275b:	66 90                	xchg   %ax,%ax
    275d:	66 90                	xchg   %ax,%ax
    275f:	90                   	nop

00002760 <main>:
    2760:	55                   	push   %ebp
    2761:	89 e5                	mov    %esp,%ebp
    2763:	57                   	push   %edi
    2764:	56                   	push   %esi
    2765:	53                   	push   %ebx
    2766:	83 e4 f0             	and    $0xfffffff0,%esp
    2769:	81 ec f0 00 00 00    	sub    $0xf0,%esp
    276f:	83 7d 08 01          	cmpl   $0x1,0x8(%ebp)
    2773:	0f 8e 8f 08 00 00    	jle    3008 <main+0x8a8>
    2779:	c7 04 24 32 00 00 00 	movl   $0x32,(%esp)
    2780:	e8 0b 58 01 00       	call   17f90 <malloc>
    2785:	8b 55 0c             	mov    0xc(%ebp),%edx
    2788:	8b 52 04             	mov    0x4(%edx),%edx
    278b:	89 04 24             	mov    %eax,(%esp)
    278e:	89 54 24 08          	mov    %edx,0x8(%esp)
    2792:	c7 44 24 04 0a 00 00 	movl   $0xa,0x4(%esp)
    2799:	00 
    279a:	89 44 24 54          	mov    %eax,0x54(%esp)
    279e:	e8 fd 9e 00 00       	call   c6a0 <str_cpy>
    27a3:	8d 44 24 58          	lea    0x58(%esp),%eax
    27a7:	89 44 24 04          	mov    %eax,0x4(%esp)
    27ab:	8b 44 24 54          	mov    0x54(%esp),%eax
    27af:	89 04 24             	mov    %eax,(%esp)
    27b2:	e8 79 eb 01 00       	call   21330 <stat>
    27b7:	89 c3                	mov    %eax,%ebx
    27b9:	31 c0                	xor    %eax,%eax
    27bb:	85 db                	test   %ebx,%ebx
    27bd:	0f 85 b1 07 00 00    	jne    2f74 <main+0x814>
    27c3:	80 7c 24 68 00       	cmpb   $0x0,0x68(%esp)
    27c8:	0f 85 ae 07 00 00    	jne    2f7c <main+0x81c>
    27ce:	80 7c 24 69 00       	cmpb   $0x0,0x69(%esp)
    27d3:	0f 84 9b 07 00 00    	je     2f74 <main+0x814>
    27d9:	8b 44 24 54          	mov    0x54(%esp),%eax
    27dd:	89 04 24             	mov    %eax,(%esp)
    27e0:	e8 ab ec 01 00       	call   21490 <opendir>
    27e5:	89 44 24 2c          	mov    %eax,0x2c(%esp)
    27e9:	85 c0                	test   %eax,%eax
    27eb:	0f 84 2d 08 00 00    	je     301e <main+0x8be>
    27f1:	8b 54 24 54          	mov    0x54(%esp),%edx
    27f5:	c7 04 24 06 4b 02 00 	movl   $0x24b06,(%esp)
    27fc:	89 54 24 28          	mov    %edx,0x28(%esp)
    2800:	e8 8b b2 00 00       	call   da90 <str_dup>
    2805:	c7 44 24 14 c8 00 00 	movl   $0xc8,0x14(%esp)
    280c:	00 
    280d:	c7 44 24 10 c8 00 00 	movl   $0xc8,0x10(%esp)
    2814:	00 
    2815:	c7 44 24 0c 14 4b 02 	movl   $0x24b14,0xc(%esp)
    281c:	00 
    281d:	c7 44 24 08 01 00 00 	movl   $0x1,0x8(%esp)
    2824:	00 
    2825:	c7 44 24 04 01 00 00 	movl   $0x1,0x4(%esp)
    282c:	00 
    282d:	89 04 24             	mov    %eax,(%esp)
    2830:	a3 80 2f 03 00       	mov    %eax,0x32f80
    2835:	e8 76 2a 00 00       	call   52b0 <window_open>
    283a:	a3 84 2f 03 00       	mov    %eax,0x32f84
    283f:	85 c0                	test   %eax,%eax
    2841:	0f 84 e1 07 00 00    	je     3028 <main+0x8c8>
    2847:	89 04 24             	mov    %eax,(%esp)
    284a:	e8 11 2d 00 00       	call   5560 <window_root>
    284f:	c7 44 24 0c 00 00 00 	movl   $0x0,0xc(%esp)
    2856:	00 
    2857:	c7 44 24 08 19 00 00 	movl   $0x19,0x8(%esp)
    285e:	00 
    285f:	c7 44 24 04 1e 00 00 	movl   $0x1e,0x4(%esp)
    2866:	00 
    2867:	89 04 24             	mov    %eax,(%esp)
    286a:	e8 a1 17 00 00       	call   4010 <create_grid>
    286f:	8d 4c 24 78          	lea    0x78(%esp),%ecx
    2873:	89 4c 24 3c          	mov    %ecx,0x3c(%esp)
    2877:	a3 88 2f 03 00       	mov    %eax,0x32f88
    287c:	8b 7c 24 3c          	mov    0x3c(%esp),%edi
    2880:	89 d8                	mov    %ebx,%eax
    2882:	b9 1e 00 00 00       	mov    $0x1e,%ecx
    2887:	f3 ab                	rep stos %eax,%es:(%edi)
    2889:	c7 04 24 32 00 00 00 	movl   $0x32,(%esp)
    2890:	e8 fb 56 01 00       	call   17f90 <malloc>
    2895:	89 44 24 38          	mov    %eax,0x38(%esp)
    2899:	85 c0                	test   %eax,%eax
    289b:	0f 84 c5 06 00 00    	je     2f66 <main+0x806>
    28a1:	c7 04 24 d0 02 00 00 	movl   $0x2d0,(%esp)
    28a8:	31 db                	xor    %ebx,%ebx
    28aa:	e8 e1 56 01 00       	call   17f90 <malloc>
    28af:	c7 44 24 34 14 00 00 	movl   $0x14,0x34(%esp)
    28b6:	00 
    28b7:	89 44 24 30          	mov    %eax,0x30(%esp)
    28bb:	85 c0                	test   %eax,%eax
    28bd:	0f 85 7f 00 00 00    	jne    2942 <main+0x1e2>
    28c3:	e9 94 07 00 00       	jmp    305c <main+0x8fc>
    28c8:	8b 54 24 30          	mov    0x30(%esp),%edx
    28cc:	8d 04 db             	lea    (%ebx,%ebx,8),%eax
    28cf:	89 3c 24             	mov    %edi,(%esp)
    28d2:	43                   	inc    %ebx
    28d3:	8d 34 82             	lea    (%edx,%eax,4),%esi
    28d6:	e8 15 92 00 00       	call   baf0 <str_size>
    28db:	40                   	inc    %eax
    28dc:	89 04 24             	mov    %eax,(%esp)
    28df:	e8 ac 56 01 00       	call   17f90 <malloc>
    28e4:	89 06                	mov    %eax,(%esi)
    28e6:	89 3c 24             	mov    %edi,(%esp)
    28e9:	e8 02 92 00 00       	call   baf0 <str_size>
    28ee:	89 7c 24 08          	mov    %edi,0x8(%esp)
    28f2:	40                   	inc    %eax
    28f3:	89 44 24 04          	mov    %eax,0x4(%esp)
    28f7:	8b 06                	mov    (%esi),%eax
    28f9:	89 04 24             	mov    %eax,(%esp)
    28fc:	e8 9f 9d 00 00       	call   c6a0 <str_cpy>
    2901:	8b 06                	mov    (%esi),%eax
    2903:	8b 54 24 28          	mov    0x28(%esp),%edx
    2907:	89 44 24 10          	mov    %eax,0x10(%esp)
    290b:	8b 44 24 38          	mov    0x38(%esp),%eax
    290f:	89 54 24 0c          	mov    %edx,0xc(%esp)
    2913:	c7 44 24 08 3c 4b 02 	movl   $0x24b3c,0x8(%esp)
    291a:	00 
    291b:	c7 44 24 04 31 00 00 	movl   $0x31,0x4(%esp)
    2922:	00 
    2923:	89 04 24             	mov    %eax,(%esp)
    2926:	83 c6 04             	add    $0x4,%esi
    2929:	e8 c2 06 01 00       	call   12ff0 <snprintf>
    292e:	8b 54 24 38          	mov    0x38(%esp),%edx
    2932:	c6 04 02 00          	movb   $0x0,(%edx,%eax,1)
    2936:	89 74 24 04          	mov    %esi,0x4(%esp)
    293a:	89 14 24             	mov    %edx,(%esp)
    293d:	e8 ee e9 01 00       	call   21330 <stat>
    2942:	8b 44 24 2c          	mov    0x2c(%esp),%eax
    2946:	89 04 24             	mov    %eax,(%esp)
    2949:	e8 b2 ec 01 00       	call   21600 <readdir>
    294e:	89 c7                	mov    %eax,%edi
    2950:	85 c0                	test   %eax,%eax
    2952:	74 2c                	je     2980 <main+0x220>
    2954:	3b 5c 24 34          	cmp    0x34(%esp),%ebx
    2958:	0f 8c 6a ff ff ff    	jl     28c8 <main+0x168>
    295e:	d1 64 24 34          	shll   0x34(%esp)
    2962:	6b 44 24 34 24       	imul   $0x24,0x34(%esp),%eax
    2967:	89 44 24 04          	mov    %eax,0x4(%esp)
    296b:	8b 44 24 30          	mov    0x30(%esp),%eax
    296f:	89 04 24             	mov    %eax,(%esp)
    2972:	e8 79 59 01 00       	call   182f0 <realloc>
    2977:	89 44 24 30          	mov    %eax,0x30(%esp)
    297b:	e9 48 ff ff ff       	jmp    28c8 <main+0x168>
    2980:	c7 44 24 10 ff 00 00 	movl   $0xff0000ff,0x10(%esp)
    2987:	ff 
    2988:	c7 44 24 0c ff ff ff 	movl   $0xffffffff,0xc(%esp)
    298f:	ff 
    2990:	c7 44 24 08 10 00 00 	movl   $0x10,0x8(%esp)
    2997:	00 
    2998:	c7 44 24 04 42 4b 02 	movl   $0x24b42,0x4(%esp)
    299f:	00 
    29a0:	c7 04 24 00 00 00 00 	movl   $0x0,(%esp)
    29a7:	e8 c4 0a 00 00       	call   3470 <create_button>
    29ac:	c7 44 24 14 03 00 00 	movl   $0x3,0x14(%esp)
    29b3:	00 
    29b4:	89 44 24 28          	mov    %eax,0x28(%esp)
    29b8:	a1 88 2f 03 00       	mov    0x32f88,%eax
    29bd:	8b 54 24 28          	mov    0x28(%esp),%edx
    29c1:	c7 44 24 10 01 00 00 	movl   $0x1,0x10(%esp)
    29c8:	00 
    29c9:	c7 44 24 0c 00 00 00 	movl   $0x0,0xc(%esp)
    29d0:	00 
    29d1:	c7 44 24 08 00 00 00 	movl   $0x0,0x8(%esp)
    29d8:	00 
    29d9:	89 54 24 04          	mov    %edx,0x4(%esp)
    29dd:	89 04 24             	mov    %eax,(%esp)
    29e0:	ff 50 68             	call   *0x68(%eax)
    29e3:	85 db                	test   %ebx,%ebx
    29e5:	0f 84 39 05 00 00    	je     2f24 <main+0x7c4>
    29eb:	89 5c 24 34          	mov    %ebx,0x34(%esp)
    29ef:	83 fb 1e             	cmp    $0x1e,%ebx
    29f2:	7e 08                	jle    29fc <main+0x29c>
    29f4:	c7 44 24 34 1e 00 00 	movl   $0x1e,0x34(%esp)
    29fb:	00 
    29fc:	8b 7c 24 30          	mov    0x30(%esp),%edi
    2a00:	31 db                	xor    %ebx,%ebx
    2a02:	89 fe                	mov    %edi,%esi
    2a04:	89 7c 24 38          	mov    %edi,0x38(%esp)
    2a08:	8b 7c 24 34          	mov    0x34(%esp),%edi
    2a0c:	8d 74 26 00          	lea    0x0(%esi,%eiz,1),%esi
    2a10:	c7 04 24 14 00 00 00 	movl   $0x14,(%esp)
    2a17:	e8 74 55 01 00       	call   17f90 <malloc>
    2a1c:	89 04 9d a0 2f 03 00 	mov    %eax,0x32fa0(,%ebx,4)
    2a23:	43                   	inc    %ebx
    2a24:	8b 16                	mov    (%esi),%edx
    2a26:	c7 44 24 04 14 00 00 	movl   $0x14,0x4(%esp)
    2a2d:	00 
    2a2e:	89 54 24 08          	mov    %edx,0x8(%esp)
    2a32:	89 04 24             	mov    %eax,(%esp)
    2a35:	e8 66 9c 00 00       	call   c6a0 <str_cpy>
    2a3a:	83 c6 24             	add    $0x24,%esi
    2a3d:	39 fb                	cmp    %edi,%ebx
    2a3f:	7c cf                	jl     2a10 <main+0x2b0>
    2a41:	8b 7c 24 38          	mov    0x38(%esp),%edi
    2a45:	31 f6                	xor    %esi,%esi
    2a47:	31 db                	xor    %ebx,%ebx
    2a49:	c7 44 24 38 02 00 00 	movl   $0x2,0x38(%esp)
    2a50:	00 
    2a51:	eb 1a                	jmp    2a6d <main+0x30d>
    2a53:	90                   	nop
    2a54:	8d 74 26 00          	lea    0x0(%esi,%eiz,1),%esi
    2a58:	83 fb 15             	cmp    $0x15,%ebx
    2a5b:	7e 0d                	jle    2a6a <main+0x30a>
    2a5d:	8b 5c 24 38          	mov    0x38(%esp),%ebx
    2a61:	83 c3 04             	add    $0x4,%ebx
    2a64:	89 5c 24 38          	mov    %ebx,0x38(%esp)
    2a68:	31 db                	xor    %ebx,%ebx
    2a6a:	83 c7 24             	add    $0x24,%edi
    2a6d:	c7 44 24 10 ff 00 00 	movl   $0xff0000ff,0x10(%esp)
    2a74:	ff 
    2a75:	c7 44 24 0c ff ff ff 	movl   $0xffffffff,0xc(%esp)
    2a7c:	ff 
    2a7d:	c7 44 24 08 10 00 00 	movl   $0x10,0x8(%esp)
    2a84:	00 
    2a85:	8b 07                	mov    (%edi),%eax
    2a87:	c7 04 24 00 00 00 00 	movl   $0x0,(%esp)
    2a8e:	89 44 24 04          	mov    %eax,0x4(%esp)
    2a92:	e8 d9 09 00 00       	call   3470 <create_button>
    2a97:	8b 15 88 2f 03 00    	mov    0x32f88,%edx
    2a9d:	8b 4c 24 38          	mov    0x38(%esp),%ecx
    2aa1:	89 44 b4 78          	mov    %eax,0x78(%esp,%esi,4)
    2aa5:	89 5c 24 0c          	mov    %ebx,0xc(%esp)
    2aa9:	c7 44 24 14 04 00 00 	movl   $0x4,0x14(%esp)
    2ab0:	00 
    2ab1:	c7 44 24 10 03 00 00 	movl   $0x3,0x10(%esp)
    2ab8:	00 
    2ab9:	89 4c 24 08          	mov    %ecx,0x8(%esp)
    2abd:	89 44 24 04          	mov    %eax,0x4(%esp)
    2ac1:	89 14 24             	mov    %edx,(%esp)
    2ac4:	46                   	inc    %esi
    2ac5:	ff 52 68             	call   *0x68(%edx)
    2ac8:	83 c3 05             	add    $0x5,%ebx
    2acb:	39 74 24 34          	cmp    %esi,0x34(%esp)
    2acf:	7d 87                	jge    2a58 <main+0x2f8>
    2ad1:	8b 44 24 28          	mov    0x28(%esp),%eax
    2ad5:	c7 44 24 08 c0 10 00 	movl   $0x10c0,0x8(%esp)
    2adc:	00 
    2add:	05 34 01 00 00       	add    $0x134,%eax
    2ae2:	c7 44 24 04 00 00 00 	movl   $0x0,0x4(%esp)
    2ae9:	00 
    2aea:	89 04 24             	mov    %eax,(%esp)
    2aed:	e8 ae 0a 00 00       	call   35a0 <sig_connect>
    2af2:	8b 44 24 78          	mov    0x78(%esp),%eax
    2af6:	05 34 01 00 00       	add    $0x134,%eax
    2afb:	c7 44 24 08 a0 11 00 	movl   $0x11a0,0x8(%esp)
    2b02:	00 
    2b03:	89 04 24             	mov    %eax,(%esp)
    2b06:	c7 44 24 04 00 00 00 	movl   $0x0,0x4(%esp)
    2b0d:	00 
    2b0e:	e8 8d 0a 00 00       	call   35a0 <sig_connect>
    2b13:	8b 44 24 7c          	mov    0x7c(%esp),%eax
    2b17:	05 34 01 00 00       	add    $0x134,%eax
    2b1c:	c7 44 24 08 60 12 00 	movl   $0x1260,0x8(%esp)
    2b23:	00 
    2b24:	89 04 24             	mov    %eax,(%esp)
    2b27:	c7 44 24 04 00 00 00 	movl   $0x0,0x4(%esp)
    2b2e:	00 
    2b2f:	e8 6c 0a 00 00       	call   35a0 <sig_connect>
    2b34:	8b 84 24 80 00 00 00 	mov    0x80(%esp),%eax
    2b3b:	05 34 01 00 00       	add    $0x134,%eax
    2b40:	c7 44 24 08 20 13 00 	movl   $0x1320,0x8(%esp)
    2b47:	00 
    2b48:	89 04 24             	mov    %eax,(%esp)
    2b4b:	c7 44 24 04 00 00 00 	movl   $0x0,0x4(%esp)
    2b52:	00 
    2b53:	e8 48 0a 00 00       	call   35a0 <sig_connect>
    2b58:	8b 84 24 84 00 00 00 	mov    0x84(%esp),%eax
    2b5f:	05 34 01 00 00       	add    $0x134,%eax
    2b64:	c7 44 24 08 e0 13 00 	movl   $0x13e0,0x8(%esp)
    2b6b:	00 
    2b6c:	89 04 24             	mov    %eax,(%esp)
    2b6f:	c7 44 24 04 00 00 00 	movl   $0x0,0x4(%esp)
    2b76:	00 
    2b77:	e8 24 0a 00 00       	call   35a0 <sig_connect>
    2b7c:	8b 84 24 88 00 00 00 	mov    0x88(%esp),%eax
    2b83:	05 34 01 00 00       	add    $0x134,%eax
    2b88:	c7 44 24 08 a0 14 00 	movl   $0x14a0,0x8(%esp)
    2b8f:	00 
    2b90:	89 04 24             	mov    %eax,(%esp)
    2b93:	c7 44 24 04 00 00 00 	movl   $0x0,0x4(%esp)
    2b9a:	00 
    2b9b:	e8 00 0a 00 00       	call   35a0 <sig_connect>
    2ba0:	8b 84 24 8c 00 00 00 	mov    0x8c(%esp),%eax
    2ba7:	05 34 01 00 00       	add    $0x134,%eax
    2bac:	c7 44 24 08 60 15 00 	movl   $0x1560,0x8(%esp)
    2bb3:	00 
    2bb4:	89 04 24             	mov    %eax,(%esp)
    2bb7:	c7 44 24 04 00 00 00 	movl   $0x0,0x4(%esp)
    2bbe:	00 
    2bbf:	e8 dc 09 00 00       	call   35a0 <sig_connect>
    2bc4:	8b 84 24 90 00 00 00 	mov    0x90(%esp),%eax
    2bcb:	05 34 01 00 00       	add    $0x134,%eax
    2bd0:	c7 44 24 08 20 16 00 	movl   $0x1620,0x8(%esp)
    2bd7:	00 
    2bd8:	89 04 24             	mov    %eax,(%esp)
    2bdb:	c7 44 24 04 00 00 00 	movl   $0x0,0x4(%esp)
    2be2:	00 
    2be3:	e8 b8 09 00 00       	call   35a0 <sig_connect>
    2be8:	8b 84 24 94 00 00 00 	mov    0x94(%esp),%eax
    2bef:	05 34 01 00 00       	add    $0x134,%eax
    2bf4:	c7 44 24 08 e0 16 00 	movl   $0x16e0,0x8(%esp)
    2bfb:	00 
    2bfc:	89 04 24             	mov    %eax,(%esp)
    2bff:	c7 44 24 04 00 00 00 	movl   $0x0,0x4(%esp)
    2c06:	00 
    2c07:	e8 94 09 00 00       	call   35a0 <sig_connect>
    2c0c:	8b 84 24 98 00 00 00 	mov    0x98(%esp),%eax
    2c13:	05 34 01 00 00       	add    $0x134,%eax
    2c18:	c7 44 24 08 a0 17 00 	movl   $0x17a0,0x8(%esp)
    2c1f:	00 
    2c20:	89 04 24             	mov    %eax,(%esp)
    2c23:	c7 44 24 04 00 00 00 	movl   $0x0,0x4(%esp)
    2c2a:	00 
    2c2b:	e8 70 09 00 00       	call   35a0 <sig_connect>
    2c30:	8b 84 24 9c 00 00 00 	mov    0x9c(%esp),%eax
    2c37:	05 34 01 00 00       	add    $0x134,%eax
    2c3c:	c7 44 24 08 60 18 00 	movl   $0x1860,0x8(%esp)
    2c43:	00 
    2c44:	89 04 24             	mov    %eax,(%esp)
    2c47:	c7 44 24 04 00 00 00 	movl   $0x0,0x4(%esp)
    2c4e:	00 
    2c4f:	e8 4c 09 00 00       	call   35a0 <sig_connect>
    2c54:	8b 84 24 a0 00 00 00 	mov    0xa0(%esp),%eax
    2c5b:	05 34 01 00 00       	add    $0x134,%eax
    2c60:	c7 44 24 08 20 19 00 	movl   $0x1920,0x8(%esp)
    2c67:	00 
    2c68:	89 04 24             	mov    %eax,(%esp)
    2c6b:	c7 44 24 04 00 00 00 	movl   $0x0,0x4(%esp)
    2c72:	00 
    2c73:	e8 28 09 00 00       	call   35a0 <sig_connect>
    2c78:	8b 84 24 a4 00 00 00 	mov    0xa4(%esp),%eax
    2c7f:	05 34 01 00 00       	add    $0x134,%eax
    2c84:	c7 44 24 08 e0 19 00 	movl   $0x19e0,0x8(%esp)
    2c8b:	00 
    2c8c:	89 04 24             	mov    %eax,(%esp)
    2c8f:	c7 44 24 04 00 00 00 	movl   $0x0,0x4(%esp)
    2c96:	00 
    2c97:	e8 04 09 00 00       	call   35a0 <sig_connect>
    2c9c:	8b 84 24 a8 00 00 00 	mov    0xa8(%esp),%eax
    2ca3:	05 34 01 00 00       	add    $0x134,%eax
    2ca8:	c7 44 24 08 a0 1a 00 	movl   $0x1aa0,0x8(%esp)
    2caf:	00 
    2cb0:	89 04 24             	mov    %eax,(%esp)
    2cb3:	c7 44 24 04 00 00 00 	movl   $0x0,0x4(%esp)
    2cba:	00 
    2cbb:	e8 e0 08 00 00       	call   35a0 <sig_connect>
    2cc0:	8b 84 24 ac 00 00 00 	mov    0xac(%esp),%eax
    2cc7:	05 34 01 00 00       	add    $0x134,%eax
    2ccc:	c7 44 24 08 60 1b 00 	movl   $0x1b60,0x8(%esp)
    2cd3:	00 
    2cd4:	89 04 24             	mov    %eax,(%esp)
    2cd7:	c7 44 24 04 00 00 00 	movl   $0x0,0x4(%esp)
    2cde:	00 
    2cdf:	e8 bc 08 00 00       	call   35a0 <sig_connect>
    2ce4:	8b 84 24 b0 00 00 00 	mov    0xb0(%esp),%eax
    2ceb:	05 34 01 00 00       	add    $0x134,%eax
    2cf0:	c7 44 24 08 20 1c 00 	movl   $0x1c20,0x8(%esp)
    2cf7:	00 
    2cf8:	89 04 24             	mov    %eax,(%esp)
    2cfb:	c7 44 24 04 00 00 00 	movl   $0x0,0x4(%esp)
    2d02:	00 
    2d03:	e8 98 08 00 00       	call   35a0 <sig_connect>
    2d08:	8b 84 24 b4 00 00 00 	mov    0xb4(%esp),%eax
    2d0f:	05 34 01 00 00       	add    $0x134,%eax
    2d14:	c7 44 24 08 e0 1c 00 	movl   $0x1ce0,0x8(%esp)
    2d1b:	00 
    2d1c:	89 04 24             	mov    %eax,(%esp)
    2d1f:	c7 44 24 04 00 00 00 	movl   $0x0,0x4(%esp)
    2d26:	00 
    2d27:	e8 74 08 00 00       	call   35a0 <sig_connect>
    2d2c:	8b 84 24 b8 00 00 00 	mov    0xb8(%esp),%eax
    2d33:	05 34 01 00 00       	add    $0x134,%eax
    2d38:	c7 44 24 08 a0 1d 00 	movl   $0x1da0,0x8(%esp)
    2d3f:	00 
    2d40:	89 04 24             	mov    %eax,(%esp)
    2d43:	c7 44 24 04 00 00 00 	movl   $0x0,0x4(%esp)
    2d4a:	00 
    2d4b:	e8 50 08 00 00       	call   35a0 <sig_connect>
    2d50:	8b 84 24 bc 00 00 00 	mov    0xbc(%esp),%eax
    2d57:	05 34 01 00 00       	add    $0x134,%eax
    2d5c:	c7 44 24 08 60 1e 00 	movl   $0x1e60,0x8(%esp)
    2d63:	00 
    2d64:	89 04 24             	mov    %eax,(%esp)
    2d67:	c7 44 24 04 00 00 00 	movl   $0x0,0x4(%esp)
    2d6e:	00 
    2d6f:	e8 2c 08 00 00       	call   35a0 <sig_connect>
    2d74:	8b 84 24 c0 00 00 00 	mov    0xc0(%esp),%eax
    2d7b:	05 34 01 00 00       	add    $0x134,%eax
    2d80:	c7 44 24 08 20 1f 00 	movl   $0x1f20,0x8(%esp)
    2d87:	00 
    2d88:	89 04 24             	mov    %eax,(%esp)
    2d8b:	c7 44 24 04 00 00 00 	movl   $0x0,0x4(%esp)
    2d92:	00 
    2d93:	e8 08 08 00 00       	call   35a0 <sig_connect>
    2d98:	8b 84 24 c4 00 00 00 	mov    0xc4(%esp),%eax
    2d9f:	05 34 01 00 00       	add    $0x134,%eax
    2da4:	c7 44 24 08 e0 1f 00 	movl   $0x1fe0,0x8(%esp)
    2dab:	00 
    2dac:	89 04 24             	mov    %eax,(%esp)
    2daf:	c7 44 24 04 00 00 00 	movl   $0x0,0x4(%esp)
    2db6:	00 
    2db7:	e8 e4 07 00 00       	call   35a0 <sig_connect>
    2dbc:	8b 84 24 c8 00 00 00 	mov    0xc8(%esp),%eax
    2dc3:	05 34 01 00 00       	add    $0x134,%eax
    2dc8:	c7 44 24 08 a0 20 00 	movl   $0x20a0,0x8(%esp)
    2dcf:	00 
    2dd0:	89 04 24             	mov    %eax,(%esp)
    2dd3:	c7 44 24 04 00 00 00 	movl   $0x0,0x4(%esp)
    2dda:	00 
    2ddb:	e8 c0 07 00 00       	call   35a0 <sig_connect>
    2de0:	8b 84 24 cc 00 00 00 	mov    0xcc(%esp),%eax
    2de7:	05 34 01 00 00       	add    $0x134,%eax
    2dec:	c7 44 24 08 60 21 00 	movl   $0x2160,0x8(%esp)
    2df3:	00 
    2df4:	89 04 24             	mov    %eax,(%esp)
    2df7:	c7 44 24 04 00 00 00 	movl   $0x0,0x4(%esp)
    2dfe:	00 
    2dff:	e8 9c 07 00 00       	call   35a0 <sig_connect>
    2e04:	8b 84 24 d0 00 00 00 	mov    0xd0(%esp),%eax
    2e0b:	05 34 01 00 00       	add    $0x134,%eax
    2e10:	c7 44 24 08 20 22 00 	movl   $0x2220,0x8(%esp)
    2e17:	00 
    2e18:	89 04 24             	mov    %eax,(%esp)
    2e1b:	c7 44 24 04 00 00 00 	movl   $0x0,0x4(%esp)
    2e22:	00 
    2e23:	e8 78 07 00 00       	call   35a0 <sig_connect>
    2e28:	8b 84 24 d4 00 00 00 	mov    0xd4(%esp),%eax
    2e2f:	05 34 01 00 00       	add    $0x134,%eax
    2e34:	c7 44 24 08 e0 22 00 	movl   $0x22e0,0x8(%esp)
    2e3b:	00 
    2e3c:	89 04 24             	mov    %eax,(%esp)
    2e3f:	c7 44 24 04 00 00 00 	movl   $0x0,0x4(%esp)
    2e46:	00 
    2e47:	e8 54 07 00 00       	call   35a0 <sig_connect>
    2e4c:	8b 84 24 d8 00 00 00 	mov    0xd8(%esp),%eax
    2e53:	05 34 01 00 00       	add    $0x134,%eax
    2e58:	c7 44 24 08 a0 23 00 	movl   $0x23a0,0x8(%esp)
    2e5f:	00 
    2e60:	89 04 24             	mov    %eax,(%esp)
    2e63:	c7 44 24 04 00 00 00 	movl   $0x0,0x4(%esp)
    2e6a:	00 
    2e6b:	e8 30 07 00 00       	call   35a0 <sig_connect>
    2e70:	8b 84 24 dc 00 00 00 	mov    0xdc(%esp),%eax
    2e77:	05 34 01 00 00       	add    $0x134,%eax
    2e7c:	c7 44 24 08 60 24 00 	movl   $0x2460,0x8(%esp)
    2e83:	00 
    2e84:	89 04 24             	mov    %eax,(%esp)
    2e87:	c7 44 24 04 00 00 00 	movl   $0x0,0x4(%esp)
    2e8e:	00 
    2e8f:	e8 0c 07 00 00       	call   35a0 <sig_connect>
    2e94:	8b 84 24 e0 00 00 00 	mov    0xe0(%esp),%eax
    2e9b:	05 34 01 00 00       	add    $0x134,%eax
    2ea0:	c7 44 24 08 20 25 00 	movl   $0x2520,0x8(%esp)
    2ea7:	00 
    2ea8:	89 04 24             	mov    %eax,(%esp)
    2eab:	c7 44 24 04 00 00 00 	movl   $0x0,0x4(%esp)
    2eb2:	00 
    2eb3:	e8 e8 06 00 00       	call   35a0 <sig_connect>
    2eb8:	8b 84 24 e4 00 00 00 	mov    0xe4(%esp),%eax
    2ebf:	05 34 01 00 00       	add    $0x134,%eax
    2ec4:	c7 44 24 08 e0 25 00 	movl   $0x25e0,0x8(%esp)
    2ecb:	00 
    2ecc:	89 04 24             	mov    %eax,(%esp)
    2ecf:	c7 44 24 04 00 00 00 	movl   $0x0,0x4(%esp)
    2ed6:	00 
    2ed7:	e8 c4 06 00 00       	call   35a0 <sig_connect>
    2edc:	8b 84 24 e8 00 00 00 	mov    0xe8(%esp),%eax
    2ee3:	05 34 01 00 00       	add    $0x134,%eax
    2ee8:	c7 44 24 08 a0 26 00 	movl   $0x26a0,0x8(%esp)
    2eef:	00 
    2ef0:	89 04 24             	mov    %eax,(%esp)
    2ef3:	c7 44 24 04 00 00 00 	movl   $0x0,0x4(%esp)
    2efa:	00 
    2efb:	e8 a0 06 00 00       	call   35a0 <sig_connect>
    2f00:	8b 84 24 ec 00 00 00 	mov    0xec(%esp),%eax
    2f07:	05 34 01 00 00       	add    $0x134,%eax
    2f0c:	c7 44 24 08 e0 10 00 	movl   $0x10e0,0x8(%esp)
    2f13:	00 
    2f14:	c7 44 24 04 00 00 00 	movl   $0x0,0x4(%esp)
    2f1b:	00 
    2f1c:	89 04 24             	mov    %eax,(%esp)
    2f1f:	e8 7c 06 00 00       	call   35a0 <sig_connect>
    2f24:	a1 84 2f 03 00       	mov    0x32f84,%eax
    2f29:	c7 44 24 08 ee 02 00 	movl   $0x2ee,0x8(%esp)
    2f30:	00 
    2f31:	89 04 24             	mov    %eax,(%esp)
    2f34:	c7 44 24 04 ee 02 00 	movl   $0x2ee,0x4(%esp)
    2f3b:	00 
    2f3c:	e8 3f 25 00 00       	call   5480 <window_resize>
    2f41:	a1 84 2f 03 00       	mov    0x32f84,%eax
    2f46:	89 04 24             	mov    %eax,(%esp)
    2f49:	e8 22 26 00 00       	call   5570 <window_exec>
    2f4e:	c7 04 24 00 00 00 00 	movl   $0x0,(%esp)
    2f55:	e8 b6 d7 00 00       	call   10710 <task_retval>
    2f5a:	c7 04 24 01 00 00 00 	movl   $0x1,(%esp)
    2f61:	e8 8a b6 00 00       	call   e5f0 <fibril_switch>
    2f66:	8b 44 24 2c          	mov    0x2c(%esp),%eax
    2f6a:	89 04 24             	mov    %eax,(%esp)
    2f6d:	e8 9e e8 01 00       	call   21810 <closedir>
    2f72:	31 c0                	xor    %eax,%eax
    2f74:	8d 65 f4             	lea    -0xc(%ebp),%esp
    2f77:	5b                   	pop    %ebx
    2f78:	5e                   	pop    %esi
    2f79:	5f                   	pop    %edi
    2f7a:	5d                   	pop    %ebp
    2f7b:	c3                   	ret    
    2f7c:	c7 04 24 47 4b 02 00 	movl   $0x24b47,(%esp)
    2f83:	8b 5c 24 54          	mov    0x54(%esp),%ebx
    2f87:	e8 04 ab 00 00       	call   da90 <str_dup>
    2f8c:	c7 44 24 10 00 00 00 	movl   $0x0,0x10(%esp)
    2f93:	00 
    2f94:	89 44 24 08          	mov    %eax,0x8(%esp)
    2f98:	89 44 24 04          	mov    %eax,0x4(%esp)
    2f9c:	89 c6                	mov    %eax,%esi
    2f9e:	8d 44 24 48          	lea    0x48(%esp),%eax
    2fa2:	89 5c 24 0c          	mov    %ebx,0xc(%esp)
    2fa6:	89 04 24             	mov    %eax,(%esp)
    2fa9:	e8 72 d5 00 00       	call   10520 <task_spawnl>
    2fae:	85 c0                	test   %eax,%eax
    2fb0:	0f 85 83 00 00 00    	jne    3039 <main+0x8d9>
    2fb6:	8d 44 24 44          	lea    0x44(%esp),%eax
    2fba:	8b 4c 24 48          	mov    0x48(%esp),%ecx
    2fbe:	89 44 24 0c          	mov    %eax,0xc(%esp)
    2fc2:	8b 5c 24 4c          	mov    0x4c(%esp),%ebx
    2fc6:	8d 44 24 40          	lea    0x40(%esp),%eax
    2fca:	89 0c 24             	mov    %ecx,(%esp)
    2fcd:	89 44 24 08          	mov    %eax,0x8(%esp)
    2fd1:	89 5c 24 04          	mov    %ebx,0x4(%esp)
    2fd5:	e8 56 d6 00 00       	call   10630 <task_wait>
    2fda:	85 c0                	test   %eax,%eax
    2fdc:	75 07                	jne    2fe5 <main+0x885>
    2fde:	83 7c 24 40 00       	cmpl   $0x0,0x40(%esp)
    2fe3:	74 8d                	je     2f72 <main+0x812>
    2fe5:	89 04 24             	mov    %eax,(%esp)
    2fe8:	e8 e3 b3 00 00       	call   e3d0 <str_error>
    2fed:	89 74 24 04          	mov    %esi,0x4(%esp)
    2ff1:	89 44 24 08          	mov    %eax,0x8(%esp)
    2ff5:	c7 04 24 54 4b 02 00 	movl   $0x24b54,(%esp)
    2ffc:	e8 4f fd 00 00       	call   12d50 <printf>
    3001:	31 c0                	xor    %eax,%eax
    3003:	e9 6c ff ff ff       	jmp    2f74 <main+0x814>
    3008:	c7 04 24 d0 4a 02 00 	movl   $0x24ad0,(%esp)
    300f:	e8 3c fd 00 00       	call   12d50 <printf>
    3014:	b8 01 00 00 00       	mov    $0x1,%eax
    3019:	e9 56 ff ff ff       	jmp    2f74 <main+0x814>
    301e:	b8 01 00 00 00       	mov    $0x1,%eax
    3023:	e9 4c ff ff ff       	jmp    2f74 <main+0x814>
    3028:	c7 04 24 22 4b 02 00 	movl   $0x24b22,(%esp)
    302f:	e8 1c fd 00 00       	call   12d50 <printf>
    3034:	e9 2d ff ff ff       	jmp    2f66 <main+0x806>
    3039:	89 04 24             	mov    %eax,(%esp)
    303c:	e8 8f b3 00 00       	call   e3d0 <str_error>
    3041:	89 74 24 04          	mov    %esi,0x4(%esp)
    3045:	89 44 24 08          	mov    %eax,0x8(%esp)
    3049:	c7 04 24 ed 4a 02 00 	movl   $0x24aed,(%esp)
    3050:	e8 fb fc 00 00       	call   12d50 <printf>
    3055:	31 c0                	xor    %eax,%eax
    3057:	e9 18 ff ff ff       	jmp    2f74 <main+0x814>
    305c:	8b 44 24 38          	mov    0x38(%esp),%eax
    3060:	89 04 24             	mov    %eax,(%esp)
    3063:	e8 38 50 01 00       	call   180a0 <free>
    3068:	e9 f9 fe ff ff       	jmp    2f66 <main+0x806>
    306d:	66 90                	xchg   %ax,%ax
    306f:	90                   	nop

00003070 <button_reconfigure>:
    3070:	55                   	push   %ebp
    3071:	89 e5                	mov    %esp,%ebp
    3073:	5d                   	pop    %ebp
    3074:	c3                   	ret    
    3075:	8d 74 26 00          	lea    0x0(%esi,%eiz,1),%esi
    3079:	8d bc 27 00 00 00 00 	lea    0x0(%edi,%eiz,1),%edi

00003080 <paint_internal>:
    3080:	55                   	push   %ebp
    3081:	89 e5                	mov    %esp,%ebp
    3083:	57                   	push   %edi
    3084:	56                   	push   %esi
    3085:	53                   	push   %ebx
    3086:	83 ec 7c             	sub    $0x7c,%esp
    3089:	89 c7                	mov    %eax,%edi
    308b:	8b 40 14             	mov    0x14(%eax),%eax
    308e:	89 04 24             	mov    %eax,(%esp)
    3091:	e8 3a 25 00 00       	call   55d0 <window_claim>
    3096:	85 c0                	test   %eax,%eax
    3098:	0f 84 4a 01 00 00    	je     31e8 <paint_internal+0x168>
    309e:	8d 5d b0             	lea    -0x50(%ebp),%ebx
    30a1:	89 44 24 04          	mov    %eax,0x4(%esp)
    30a5:	89 1c 24             	mov    %ebx,(%esp)
    30a8:	e8 93 25 00 00       	call   5640 <drawctx_init>
    30ad:	8d 87 bc 00 00 00    	lea    0xbc(%edi),%eax
    30b3:	89 44 24 04          	mov    %eax,0x4(%esp)
    30b7:	89 1c 24             	mov    %ebx,(%esp)
    30ba:	89 45 a4             	mov    %eax,-0x5c(%ebp)
    30bd:	e8 6e 27 00 00       	call   5830 <drawctx_set_source>
    30c2:	8b 47 24             	mov    0x24(%edi),%eax
    30c5:	89 1c 24             	mov    %ebx,(%esp)
    30c8:	89 44 24 10          	mov    %eax,0x10(%esp)
    30cc:	8b 47 20             	mov    0x20(%edi),%eax
    30cf:	89 44 24 0c          	mov    %eax,0xc(%esp)
    30d3:	8b 47 1c             	mov    0x1c(%edi),%eax
    30d6:	89 44 24 08          	mov    %eax,0x8(%esp)
    30da:	8b 47 18             	mov    0x18(%edi),%eax
    30dd:	89 44 24 04          	mov    %eax,0x4(%esp)
    30e1:	e8 6a 27 00 00       	call   5850 <drawctx_transfer>
    30e6:	83 7f 20 05          	cmpl   $0x5,0x20(%edi)
    30ea:	76 0a                	jbe    30f6 <paint_internal+0x76>
    30ec:	83 7f 24 05          	cmpl   $0x5,0x24(%edi)
    30f0:	0f 87 aa 00 00 00    	ja     31a0 <paint_internal+0x120>
    30f6:	8d 45 ac             	lea    -0x54(%ebp),%eax
    30f9:	8d b7 24 01 00 00    	lea    0x124(%edi),%esi
    30ff:	89 44 24 0c          	mov    %eax,0xc(%esp)
    3103:	8d 45 a8             	lea    -0x58(%ebp),%eax
    3106:	89 44 24 08          	mov    %eax,0x8(%esp)
    310a:	8b 87 20 01 00 00    	mov    0x120(%edi),%eax
    3110:	89 44 24 04          	mov    %eax,0x4(%esp)
    3114:	89 34 24             	mov    %esi,(%esp)
    3117:	e8 64 2b 00 00       	call   5c80 <font_get_box>
    311c:	8b 45 a8             	mov    -0x58(%ebp),%eax
    311f:	39 47 20             	cmp    %eax,0x20(%edi)
    3122:	72 08                	jb     312c <paint_internal+0xac>
    3124:	8b 45 ac             	mov    -0x54(%ebp),%eax
    3127:	39 47 24             	cmp    %eax,0x24(%edi)
    312a:	73 14                	jae    3140 <paint_internal+0xc0>
    312c:	8b 47 14             	mov    0x14(%edi),%eax
    312f:	89 04 24             	mov    %eax,(%esp)
    3132:	e8 c9 24 00 00       	call   5600 <window_yield>
    3137:	83 c4 7c             	add    $0x7c,%esp
    313a:	5b                   	pop    %ebx
    313b:	5e                   	pop    %esi
    313c:	5f                   	pop    %edi
    313d:	5d                   	pop    %ebp
    313e:	c3                   	ret    
    313f:	90                   	nop
    3140:	8b 45 a4             	mov    -0x5c(%ebp),%eax
    3143:	89 1c 24             	mov    %ebx,(%esp)
    3146:	89 44 24 04          	mov    %eax,0x4(%esp)
    314a:	e8 e1 26 00 00       	call   5830 <drawctx_set_source>
    314f:	89 74 24 04          	mov    %esi,0x4(%esp)
    3153:	89 1c 24             	mov    %ebx,(%esp)
    3156:	e8 e5 26 00 00       	call   5840 <drawctx_set_font>
    315b:	8b 55 a8             	mov    -0x58(%ebp),%edx
    315e:	8b 47 20             	mov    0x20(%edi),%eax
    3161:	8b 4f 18             	mov    0x18(%edi),%ecx
    3164:	29 d0                	sub    %edx,%eax
    3166:	8b 75 ac             	mov    -0x54(%ebp),%esi
    3169:	d1 e8                	shr    %eax
    316b:	8b 57 1c             	mov    0x1c(%edi),%edx
    316e:	01 c8                	add    %ecx,%eax
    3170:	8b 4f 24             	mov    0x24(%edi),%ecx
    3173:	29 f1                	sub    %esi,%ecx
    3175:	8b b7 20 01 00 00    	mov    0x120(%edi),%esi
    317b:	d1 e9                	shr    %ecx
    317d:	01 d1                	add    %edx,%ecx
    317f:	85 f6                	test   %esi,%esi
    3181:	74 a9                	je     312c <paint_internal+0xac>
    3183:	89 4c 24 0c          	mov    %ecx,0xc(%esp)
    3187:	89 44 24 08          	mov    %eax,0x8(%esp)
    318b:	89 74 24 04          	mov    %esi,0x4(%esp)
    318f:	89 1c 24             	mov    %ebx,(%esp)
    3192:	e8 69 29 00 00       	call   5b00 <drawctx_print>
    3197:	eb 93                	jmp    312c <paint_internal+0xac>
    3199:	8d b4 26 00 00 00 00 	lea    0x0(%esi,%eiz,1),%esi
    31a0:	8d 47 58             	lea    0x58(%edi),%eax
    31a3:	89 1c 24             	mov    %ebx,(%esp)
    31a6:	89 44 24 04          	mov    %eax,0x4(%esp)
    31aa:	e8 81 26 00 00       	call   5830 <drawctx_set_source>
    31af:	8b 47 24             	mov    0x24(%edi),%eax
    31b2:	83 e8 06             	sub    $0x6,%eax
    31b5:	89 1c 24             	mov    %ebx,(%esp)
    31b8:	89 44 24 10          	mov    %eax,0x10(%esp)
    31bc:	8b 47 20             	mov    0x20(%edi),%eax
    31bf:	83 e8 06             	sub    $0x6,%eax
    31c2:	89 44 24 0c          	mov    %eax,0xc(%esp)
    31c6:	8b 47 1c             	mov    0x1c(%edi),%eax
    31c9:	83 c0 03             	add    $0x3,%eax
    31cc:	89 44 24 08          	mov    %eax,0x8(%esp)
    31d0:	8b 47 18             	mov    0x18(%edi),%eax
    31d3:	83 c0 03             	add    $0x3,%eax
    31d6:	89 44 24 04          	mov    %eax,0x4(%esp)
    31da:	e8 71 26 00 00       	call   5850 <drawctx_transfer>
    31df:	e9 12 ff ff ff       	jmp    30f6 <paint_internal+0x76>
    31e4:	8d 74 26 00          	lea    0x0(%esi,%eiz,1),%esi
    31e8:	8b 4f 14             	mov    0x14(%edi),%ecx
    31eb:	89 45 a0             	mov    %eax,-0x60(%ebp)
    31ee:	89 0c 24             	mov    %ecx,(%esp)
    31f1:	e8 0a 24 00 00       	call   5600 <window_yield>
    31f6:	8b 45 a0             	mov    -0x60(%ebp),%eax
    31f9:	e9 a0 fe ff ff       	jmp    309e <paint_internal+0x1e>
    31fe:	66 90                	xchg   %ax,%ax

00003200 <button_repaint>:
    3200:	55                   	push   %ebp
    3201:	89 e5                	mov    %esp,%ebp
    3203:	53                   	push   %ebx
    3204:	51                   	push   %ecx
    3205:	8b 5d 08             	mov    0x8(%ebp),%ebx
    3208:	89 d8                	mov    %ebx,%eax
    320a:	e8 71 fe ff ff       	call   3080 <paint_internal>
    320f:	8b 43 14             	mov    0x14(%ebx),%eax
    3212:	89 45 08             	mov    %eax,0x8(%ebp)
    3215:	5b                   	pop    %ebx
    3216:	5b                   	pop    %ebx
    3217:	5d                   	pop    %ebp
    3218:	e9 03 23 00 00       	jmp    5520 <window_damage>
    321d:	8d 76 00             	lea    0x0(%esi),%esi

00003220 <button_rearrange>:
    3220:	55                   	push   %ebp
    3221:	89 e5                	mov    %esp,%ebp
    3223:	53                   	push   %ebx
    3224:	83 ec 24             	sub    $0x24,%esp
    3227:	8b 45 18             	mov    0x18(%ebp),%eax
    322a:	8b 5d 08             	mov    0x8(%ebp),%ebx
    322d:	89 44 24 10          	mov    %eax,0x10(%esp)
    3231:	8b 45 14             	mov    0x14(%ebp),%eax
    3234:	89 44 24 0c          	mov    %eax,0xc(%esp)
    3238:	8b 45 10             	mov    0x10(%ebp),%eax
    323b:	89 44 24 08          	mov    %eax,0x8(%esp)
    323f:	8b 45 0c             	mov    0xc(%ebp),%eax
    3242:	89 44 24 04          	mov    %eax,0x4(%esp)
    3246:	89 1c 24             	mov    %ebx,(%esp)
    3249:	e8 82 0f 00 00       	call   41d0 <widget_modify>
    324e:	83 c4 24             	add    $0x24,%esp
    3251:	89 d8                	mov    %ebx,%eax
    3253:	5b                   	pop    %ebx
    3254:	5d                   	pop    %ebp
    3255:	e9 26 fe ff ff       	jmp    3080 <paint_internal>
    325a:	8d b6 00 00 00 00    	lea    0x0(%esi),%esi

00003260 <button_handle_position_event>:
    3260:	55                   	push   %ebp
    3261:	89 e5                	mov    %esp,%ebp
    3263:	8b 45 08             	mov    0x8(%ebp),%eax
    3266:	83 7d 14 01          	cmpl   $0x1,0x14(%ebp)
    326a:	8b 50 14             	mov    0x14(%eax),%edx
    326d:	89 82 8c 00 00 00    	mov    %eax,0x8c(%edx)
    3273:	74 03                	je     3278 <button_handle_position_event+0x18>
    3275:	5d                   	pop    %ebp
    3276:	c3                   	ret    
    3277:	90                   	nop
    3278:	83 7d 10 02          	cmpl   $0x2,0x10(%ebp)
    327c:	75 f7                	jne    3275 <button_handle_position_event+0x15>
    327e:	05 34 01 00 00       	add    $0x134,%eax
    3283:	c7 45 0c 00 00 00 00 	movl   $0x0,0xc(%ebp)
    328a:	89 45 08             	mov    %eax,0x8(%ebp)
    328d:	5d                   	pop    %ebp
    328e:	e9 dd 04 00 00       	jmp    3770 <sig_send>
    3293:	8d b6 00 00 00 00    	lea    0x0(%esi),%esi
    3299:	8d bc 27 00 00 00 00 	lea    0x0(%edi,%eiz,1),%edi

000032a0 <button_handle_keyboard_event>:
    32a0:	55                   	push   %ebp
    32a1:	89 e5                	mov    %esp,%ebp
    32a3:	8b 45 08             	mov    0x8(%ebp),%eax
    32a6:	83 7d 18 29          	cmpl   $0x29,0x18(%ebp)
    32aa:	74 04                	je     32b0 <button_handle_keyboard_event+0x10>
    32ac:	5d                   	pop    %ebp
    32ad:	c3                   	ret    
    32ae:	66 90                	xchg   %ax,%ax
    32b0:	8b 55 14             	mov    0x14(%ebp),%edx
    32b3:	85 d2                	test   %edx,%edx
    32b5:	75 f5                	jne    32ac <button_handle_keyboard_event+0xc>
    32b7:	05 34 01 00 00       	add    $0x134,%eax
    32bc:	c7 45 0c 00 00 00 00 	movl   $0x0,0xc(%ebp)
    32c3:	89 45 08             	mov    %eax,0x8(%ebp)
    32c6:	5d                   	pop    %ebp
    32c7:	e9 a4 04 00 00       	jmp    3770 <sig_send>
    32cc:	8d 74 26 00          	lea    0x0(%esi,%eiz,1),%esi

000032d0 <button_destroy>:
    32d0:	55                   	push   %ebp
    32d1:	89 e5                	mov    %esp,%ebp
    32d3:	53                   	push   %ebx
    32d4:	83 ec 14             	sub    $0x14,%esp
    32d7:	8b 5d 08             	mov    0x8(%ebp),%ebx
    32da:	89 1c 24             	mov    %ebx,(%esp)
    32dd:	e8 0e 0f 00 00       	call   41f0 <widget_deinit>
    32e2:	8b 83 20 01 00 00    	mov    0x120(%ebx),%eax
    32e8:	89 04 24             	mov    %eax,(%esp)
    32eb:	e8 b0 4d 01 00       	call   180a0 <free>
    32f0:	8d 83 24 01 00 00    	lea    0x124(%ebx),%eax
    32f6:	89 04 24             	mov    %eax,(%esp)
    32f9:	e8 12 29 00 00       	call   5c10 <font_release>
    32fe:	89 5d 08             	mov    %ebx,0x8(%ebp)
    3301:	83 c4 14             	add    $0x14,%esp
    3304:	5b                   	pop    %ebx
    3305:	5d                   	pop    %ebp
    3306:	e9 95 4d 01 00       	jmp    180a0 <free>
    330b:	90                   	nop
    330c:	8d 74 26 00          	lea    0x0(%esi,%eiz,1),%esi

00003310 <deinit_button>:
    3310:	55                   	push   %ebp
    3311:	89 e5                	mov    %esp,%ebp
    3313:	53                   	push   %ebx
    3314:	83 ec 14             	sub    $0x14,%esp
    3317:	8b 5d 08             	mov    0x8(%ebp),%ebx
    331a:	89 1c 24             	mov    %ebx,(%esp)
    331d:	e8 ce 0e 00 00       	call   41f0 <widget_deinit>
    3322:	8b 83 20 01 00 00    	mov    0x120(%ebx),%eax
    3328:	89 04 24             	mov    %eax,(%esp)
    332b:	81 c3 24 01 00 00    	add    $0x124,%ebx
    3331:	e8 6a 4d 01 00       	call   180a0 <free>
    3336:	89 5d 08             	mov    %ebx,0x8(%ebp)
    3339:	83 c4 14             	add    $0x14,%esp
    333c:	5b                   	pop    %ebx
    333d:	5d                   	pop    %ebp
    333e:	e9 cd 28 00 00       	jmp    5c10 <font_release>
    3343:	8d b6 00 00 00 00    	lea    0x0(%esi),%esi
    3349:	8d bc 27 00 00 00 00 	lea    0x0(%edi,%eiz,1),%edi

00003350 <init_button>:
    3350:	55                   	push   %ebp
    3351:	89 e5                	mov    %esp,%ebp
    3353:	57                   	push   %edi
    3354:	56                   	push   %esi
    3355:	53                   	push   %ebx
    3356:	83 ec 2c             	sub    $0x2c,%esp
    3359:	8b 5d 08             	mov    0x8(%ebp),%ebx
    335c:	8b 45 0c             	mov    0xc(%ebp),%eax
    335f:	89 44 24 04          	mov    %eax,0x4(%esp)
    3363:	89 1c 24             	mov    %ebx,(%esp)
    3366:	8d 73 58             	lea    0x58(%ebx),%esi
    3369:	8b 7d 14             	mov    0x14(%ebp),%edi
    336c:	e8 bf 0d 00 00       	call   4130 <widget_init>
    3371:	c7 43 40 d0 32 00 00 	movl   $0x32d0,0x40(%ebx)
    3378:	c7 43 44 70 30 00 00 	movl   $0x3070,0x44(%ebx)
    337f:	c7 43 48 20 32 00 00 	movl   $0x3220,0x48(%ebx)
    3386:	c7 43 4c 00 32 00 00 	movl   $0x3200,0x4c(%ebx)
    338d:	c7 43 50 a0 32 00 00 	movl   $0x32a0,0x50(%ebx)
    3394:	c7 43 54 60 32 00 00 	movl   $0x3260,0x54(%ebx)
    339b:	89 34 24             	mov    %esi,(%esp)
    339e:	e8 ed 2b 00 00       	call   5f90 <source_init>
    33a3:	8b 55 18             	mov    0x18(%ebp),%edx
    33a6:	89 54 24 04          	mov    %edx,0x4(%esp)
    33aa:	89 34 24             	mov    %esi,(%esp)
    33ad:	8d b3 bc 00 00 00    	lea    0xbc(%ebx),%esi
    33b3:	e8 68 2c 00 00       	call   6020 <source_set_color>
    33b8:	89 34 24             	mov    %esi,(%esp)
    33bb:	e8 d0 2b 00 00       	call   5f90 <source_init>
    33c0:	8b 55 1c             	mov    0x1c(%ebp),%edx
    33c3:	89 54 24 04          	mov    %edx,0x4(%esp)
    33c7:	89 34 24             	mov    %esi,(%esp)
    33ca:	e8 51 2c 00 00       	call   6020 <source_set_color>
    33cf:	8b 4d 10             	mov    0x10(%ebp),%ecx
    33d2:	85 c9                	test   %ecx,%ecx
    33d4:	0f 84 7e 00 00 00    	je     3458 <init_button+0x108>
    33da:	8b 45 10             	mov    0x10(%ebp),%eax
    33dd:	89 04 24             	mov    %eax,(%esp)
    33e0:	e8 ab a6 00 00       	call   da90 <str_dup>
    33e5:	89 83 20 01 00 00    	mov    %eax,0x120(%ebx)
    33eb:	8d b3 24 01 00 00    	lea    0x124(%ebx),%esi
    33f1:	81 e7 ff ff 00 00    	and    $0xffff,%edi
    33f7:	89 7c 24 0c          	mov    %edi,0xc(%esp)
    33fb:	89 34 24             	mov    %esi,(%esp)
    33fe:	c7 44 24 08 00 00 00 	movl   $0x0,0x8(%esp)
    3405:	00 
    3406:	c7 44 24 04 00 00 00 	movl   $0x0,0x4(%esp)
    340d:	00 
    340e:	e8 3d 27 00 00       	call   5b50 <font_init>
    3413:	8d 45 e4             	lea    -0x1c(%ebp),%eax
    3416:	89 44 24 0c          	mov    %eax,0xc(%esp)
    341a:	8d 45 e0             	lea    -0x20(%ebp),%eax
    341d:	89 44 24 08          	mov    %eax,0x8(%esp)
    3421:	8b 83 20 01 00 00    	mov    0x120(%ebx),%eax
    3427:	89 34 24             	mov    %esi,(%esp)
    342a:	89 44 24 04          	mov    %eax,0x4(%esp)
    342e:	e8 4d 28 00 00       	call   5c80 <font_get_box>
    3433:	8b 55 e0             	mov    -0x20(%ebp),%edx
    3436:	8d 42 08             	lea    0x8(%edx),%eax
    3439:	83 c2 1c             	add    $0x1c,%edx
    343c:	89 43 28             	mov    %eax,0x28(%ebx)
    343f:	8b 45 e4             	mov    -0x1c(%ebp),%eax
    3442:	83 c0 08             	add    $0x8,%eax
    3445:	89 53 30             	mov    %edx,0x30(%ebx)
    3448:	89 43 2c             	mov    %eax,0x2c(%ebx)
    344b:	89 43 34             	mov    %eax,0x34(%ebx)
    344e:	83 c4 2c             	add    $0x2c,%esp
    3451:	b0 01                	mov    $0x1,%al
    3453:	5b                   	pop    %ebx
    3454:	5e                   	pop    %esi
    3455:	5f                   	pop    %edi
    3456:	5d                   	pop    %ebp
    3457:	c3                   	ret    
    3458:	c7 83 20 01 00 00 00 	movl   $0x0,0x120(%ebx)
    345f:	00 00 00 
    3462:	eb 87                	jmp    33eb <init_button+0x9b>
    3464:	8d b6 00 00 00 00    	lea    0x0(%esi),%esi
    346a:	8d bf 00 00 00 00    	lea    0x0(%edi),%edi

00003470 <create_button>:
    3470:	55                   	push   %ebp
    3471:	89 e5                	mov    %esp,%ebp
    3473:	57                   	push   %edi
    3474:	56                   	push   %esi
    3475:	53                   	push   %ebx
    3476:	83 ec 2c             	sub    $0x2c,%esp
    3479:	8b 7d 10             	mov    0x10(%ebp),%edi
    347c:	c7 04 24 38 01 00 00 	movl   $0x138,(%esp)
    3483:	e8 08 4b 01 00       	call   17f90 <malloc>
    3488:	89 c3                	mov    %eax,%ebx
    348a:	85 c0                	test   %eax,%eax
    348c:	0f 84 eb 00 00 00    	je     357d <create_button+0x10d>
    3492:	8b 45 08             	mov    0x8(%ebp),%eax
    3495:	8d 73 58             	lea    0x58(%ebx),%esi
    3498:	89 44 24 04          	mov    %eax,0x4(%esp)
    349c:	89 1c 24             	mov    %ebx,(%esp)
    349f:	e8 8c 0c 00 00       	call   4130 <widget_init>
    34a4:	89 34 24             	mov    %esi,(%esp)
    34a7:	c7 43 40 d0 32 00 00 	movl   $0x32d0,0x40(%ebx)
    34ae:	c7 43 44 70 30 00 00 	movl   $0x3070,0x44(%ebx)
    34b5:	c7 43 48 20 32 00 00 	movl   $0x3220,0x48(%ebx)
    34bc:	c7 43 4c 00 32 00 00 	movl   $0x3200,0x4c(%ebx)
    34c3:	c7 43 50 a0 32 00 00 	movl   $0x32a0,0x50(%ebx)
    34ca:	c7 43 54 60 32 00 00 	movl   $0x3260,0x54(%ebx)
    34d1:	e8 ba 2a 00 00       	call   5f90 <source_init>
    34d6:	8b 55 14             	mov    0x14(%ebp),%edx
    34d9:	89 54 24 04          	mov    %edx,0x4(%esp)
    34dd:	89 34 24             	mov    %esi,(%esp)
    34e0:	8d b3 bc 00 00 00    	lea    0xbc(%ebx),%esi
    34e6:	e8 35 2b 00 00       	call   6020 <source_set_color>
    34eb:	89 34 24             	mov    %esi,(%esp)
    34ee:	e8 9d 2a 00 00       	call   5f90 <source_init>
    34f3:	8b 55 18             	mov    0x18(%ebp),%edx
    34f6:	89 34 24             	mov    %esi,(%esp)
    34f9:	89 54 24 04          	mov    %edx,0x4(%esp)
    34fd:	e8 1e 2b 00 00       	call   6020 <source_set_color>
    3502:	8b 75 0c             	mov    0xc(%ebp),%esi
    3505:	85 f6                	test   %esi,%esi
    3507:	74 7f                	je     3588 <create_button+0x118>
    3509:	8b 45 0c             	mov    0xc(%ebp),%eax
    350c:	89 04 24             	mov    %eax,(%esp)
    350f:	e8 7c a5 00 00       	call   da90 <str_dup>
    3514:	89 83 20 01 00 00    	mov    %eax,0x120(%ebx)
    351a:	8d b3 24 01 00 00    	lea    0x124(%ebx),%esi
    3520:	81 e7 ff ff 00 00    	and    $0xffff,%edi
    3526:	89 7c 24 0c          	mov    %edi,0xc(%esp)
    352a:	c7 44 24 08 00 00 00 	movl   $0x0,0x8(%esp)
    3531:	00 
    3532:	c7 44 24 04 00 00 00 	movl   $0x0,0x4(%esp)
    3539:	00 
    353a:	89 34 24             	mov    %esi,(%esp)
    353d:	e8 0e 26 00 00       	call   5b50 <font_init>
    3542:	8d 45 e4             	lea    -0x1c(%ebp),%eax
    3545:	89 44 24 0c          	mov    %eax,0xc(%esp)
    3549:	8d 45 e0             	lea    -0x20(%ebp),%eax
    354c:	89 44 24 08          	mov    %eax,0x8(%esp)
    3550:	8b 83 20 01 00 00    	mov    0x120(%ebx),%eax
    3556:	89 44 24 04          	mov    %eax,0x4(%esp)
    355a:	89 34 24             	mov    %esi,(%esp)
    355d:	e8 1e 27 00 00       	call   5c80 <font_get_box>
    3562:	8b 55 e0             	mov    -0x20(%ebp),%edx
    3565:	8d 42 08             	lea    0x8(%edx),%eax
    3568:	83 c2 1c             	add    $0x1c,%edx
    356b:	89 43 28             	mov    %eax,0x28(%ebx)
    356e:	8b 45 e4             	mov    -0x1c(%ebp),%eax
    3571:	83 c0 08             	add    $0x8,%eax
    3574:	89 53 30             	mov    %edx,0x30(%ebx)
    3577:	89 43 2c             	mov    %eax,0x2c(%ebx)
    357a:	89 43 34             	mov    %eax,0x34(%ebx)
    357d:	83 c4 2c             	add    $0x2c,%esp
    3580:	89 d8                	mov    %ebx,%eax
    3582:	5b                   	pop    %ebx
    3583:	5e                   	pop    %esi
    3584:	5f                   	pop    %edi
    3585:	5d                   	pop    %ebp
    3586:	c3                   	ret    
    3587:	90                   	nop
    3588:	c7 83 20 01 00 00 00 	movl   $0x0,0x120(%ebx)
    358f:	00 00 00 
    3592:	eb 86                	jmp    351a <create_button+0xaa>
    3594:	66 90                	xchg   %ax,%ax
    3596:	66 90                	xchg   %ax,%ax
    3598:	66 90                	xchg   %ax,%ax
    359a:	66 90                	xchg   %ax,%ax
    359c:	66 90                	xchg   %ax,%ax
    359e:	66 90                	xchg   %ax,%ax

000035a0 <sig_connect>:
    35a0:	55                   	push   %ebp
    35a1:	89 e5                	mov    %esp,%ebp
    35a3:	57                   	push   %edi
    35a4:	56                   	push   %esi
    35a5:	53                   	push   %ebx
    35a6:	83 ec 2c             	sub    $0x2c,%esp
    35a9:	8b 75 08             	mov    0x8(%ebp),%esi
    35ac:	8b 7d 0c             	mov    0xc(%ebp),%edi
    35af:	c7 04 24 e0 77 02 00 	movl   $0x277e0,(%esp)
    35b6:	8b 5d 10             	mov    0x10(%ebp),%ebx
    35b9:	e8 82 bb 00 00       	call   f140 <fibril_rwlock_write_lock>
    35be:	a1 f8 77 02 00       	mov    0x277f8,%eax
    35c3:	3d f4 77 02 00       	cmp    $0x277f4,%eax
    35c8:	75 10                	jne    35da <sig_connect+0x3a>
    35ca:	eb 54                	jmp    3620 <sig_connect+0x80>
    35cc:	8d 74 26 00          	lea    0x0(%esi,%eiz,1),%esi
    35d0:	8b 40 04             	mov    0x4(%eax),%eax
    35d3:	3d f4 77 02 00       	cmp    $0x277f4,%eax
    35d8:	74 46                	je     3620 <sig_connect+0x80>
    35da:	39 70 08             	cmp    %esi,0x8(%eax)
    35dd:	75 f1                	jne    35d0 <sig_connect+0x30>
    35df:	89 c1                	mov    %eax,%ecx
    35e1:	8d 70 0c             	lea    0xc(%eax),%esi
    35e4:	8b 51 10             	mov    0x10(%ecx),%edx
    35e7:	39 f2                	cmp    %esi,%edx
    35e9:	75 0c                	jne    35f7 <sig_connect+0x57>
    35eb:	eb 6b                	jmp    3658 <sig_connect+0xb8>
    35ed:	8d 76 00             	lea    0x0(%esi),%esi
    35f0:	8b 52 04             	mov    0x4(%edx),%edx
    35f3:	39 f2                	cmp    %esi,%edx
    35f5:	74 61                	je     3658 <sig_connect+0xb8>
    35f7:	39 7a 08             	cmp    %edi,0x8(%edx)
    35fa:	75 f4                	jne    35f0 <sig_connect+0x50>
    35fc:	39 5a 0c             	cmp    %ebx,0xc(%edx)
    35ff:	75 ef                	jne    35f0 <sig_connect+0x50>
    3601:	c7 04 24 e0 77 02 00 	movl   $0x277e0,(%esp)
    3608:	e8 73 bc 00 00       	call   f280 <fibril_rwlock_write_unlock>
    360d:	c7 45 08 e0 77 02 00 	movl   $0x277e0,0x8(%ebp)
    3614:	83 c4 2c             	add    $0x2c,%esp
    3617:	5b                   	pop    %ebx
    3618:	5e                   	pop    %esi
    3619:	5f                   	pop    %edi
    361a:	5d                   	pop    %ebp
    361b:	e9 60 bc 00 00       	jmp    f280 <fibril_rwlock_write_unlock>
    3620:	c7 04 24 14 00 00 00 	movl   $0x14,(%esp)
    3627:	e8 64 49 01 00       	call   17f90 <malloc>
    362c:	89 c1                	mov    %eax,%ecx
    362e:	85 c0                	test   %eax,%eax
    3630:	74 db                	je     360d <sig_connect+0x6d>
    3632:	a1 f4 77 02 00       	mov    0x277f4,%eax
    3637:	89 71 08             	mov    %esi,0x8(%ecx)
    363a:	8d 71 0c             	lea    0xc(%ecx),%esi
    363d:	c7 41 04 f4 77 02 00 	movl   $0x277f4,0x4(%ecx)
    3644:	89 71 10             	mov    %esi,0x10(%ecx)
    3647:	89 71 0c             	mov    %esi,0xc(%ecx)
    364a:	89 01                	mov    %eax,(%ecx)
    364c:	89 48 04             	mov    %ecx,0x4(%eax)
    364f:	89 0d f4 77 02 00    	mov    %ecx,0x277f4
    3655:	eb 8d                	jmp    35e4 <sig_connect+0x44>
    3657:	90                   	nop
    3658:	c7 04 24 10 00 00 00 	movl   $0x10,(%esp)
    365f:	89 4d e4             	mov    %ecx,-0x1c(%ebp)
    3662:	e8 29 49 01 00       	call   17f90 <malloc>
    3667:	8b 4d e4             	mov    -0x1c(%ebp),%ecx
    366a:	85 c0                	test   %eax,%eax
    366c:	74 9f                	je     360d <sig_connect+0x6d>
    366e:	c7 00 00 00 00 00    	movl   $0x0,(%eax)
    3674:	89 78 08             	mov    %edi,0x8(%eax)
    3677:	8b 51 0c             	mov    0xc(%ecx),%edx
    367a:	89 58 0c             	mov    %ebx,0xc(%eax)
    367d:	89 10                	mov    %edx,(%eax)
    367f:	89 70 04             	mov    %esi,0x4(%eax)
    3682:	8b 51 0c             	mov    0xc(%ecx),%edx
    3685:	89 41 0c             	mov    %eax,0xc(%ecx)
    3688:	89 42 04             	mov    %eax,0x4(%edx)
    368b:	eb 80                	jmp    360d <sig_connect+0x6d>
    368d:	8d 76 00             	lea    0x0(%esi),%esi

00003690 <sig_disconnect>:
    3690:	55                   	push   %ebp
    3691:	89 e5                	mov    %esp,%ebp
    3693:	57                   	push   %edi
    3694:	56                   	push   %esi
    3695:	53                   	push   %ebx
    3696:	83 ec 2c             	sub    $0x2c,%esp
    3699:	8b 55 10             	mov    0x10(%ebp),%edx
    369c:	8b 75 08             	mov    0x8(%ebp),%esi
    369f:	c7 04 24 e0 77 02 00 	movl   $0x277e0,(%esp)
    36a6:	89 55 e4             	mov    %edx,-0x1c(%ebp)
    36a9:	8b 7d 0c             	mov    0xc(%ebp),%edi
    36ac:	e8 8f ba 00 00       	call   f140 <fibril_rwlock_write_lock>
    36b1:	8b 1d f8 77 02 00    	mov    0x277f8,%ebx
    36b7:	8b 55 e4             	mov    -0x1c(%ebp),%edx
    36ba:	81 fb f4 77 02 00    	cmp    $0x277f4,%ebx
    36c0:	75 11                	jne    36d3 <sig_disconnect+0x43>
    36c2:	e9 89 00 00 00       	jmp    3750 <sig_disconnect+0xc0>
    36c7:	90                   	nop
    36c8:	8b 5b 04             	mov    0x4(%ebx),%ebx
    36cb:	81 fb f4 77 02 00    	cmp    $0x277f4,%ebx
    36d1:	74 7d                	je     3750 <sig_disconnect+0xc0>
    36d3:	39 73 08             	cmp    %esi,0x8(%ebx)
    36d6:	75 f0                	jne    36c8 <sig_disconnect+0x38>
    36d8:	8b 43 10             	mov    0x10(%ebx),%eax
    36db:	8d 73 0c             	lea    0xc(%ebx),%esi
    36de:	39 f0                	cmp    %esi,%eax
    36e0:	75 0d                	jne    36ef <sig_disconnect+0x5f>
    36e2:	eb 6c                	jmp    3750 <sig_disconnect+0xc0>
    36e4:	8d 74 26 00          	lea    0x0(%esi,%eiz,1),%esi
    36e8:	8b 40 04             	mov    0x4(%eax),%eax
    36eb:	39 f0                	cmp    %esi,%eax
    36ed:	74 61                	je     3750 <sig_disconnect+0xc0>
    36ef:	39 78 08             	cmp    %edi,0x8(%eax)
    36f2:	75 f4                	jne    36e8 <sig_disconnect+0x58>
    36f4:	39 50 0c             	cmp    %edx,0xc(%eax)
    36f7:	75 ef                	jne    36e8 <sig_disconnect+0x58>
    36f9:	8b 08                	mov    (%eax),%ecx
    36fb:	85 c9                	test   %ecx,%ecx
    36fd:	74 0e                	je     370d <sig_disconnect+0x7d>
    36ff:	8b 50 04             	mov    0x4(%eax),%edx
    3702:	85 d2                	test   %edx,%edx
    3704:	74 07                	je     370d <sig_disconnect+0x7d>
    3706:	89 0a                	mov    %ecx,(%edx)
    3708:	8b 08                	mov    (%eax),%ecx
    370a:	89 51 04             	mov    %edx,0x4(%ecx)
    370d:	c7 00 00 00 00 00    	movl   $0x0,(%eax)
    3713:	c7 40 04 00 00 00 00 	movl   $0x0,0x4(%eax)
    371a:	89 04 24             	mov    %eax,(%esp)
    371d:	e8 7e 49 01 00       	call   180a0 <free>
    3722:	39 73 10             	cmp    %esi,0x10(%ebx)
    3725:	75 29                	jne    3750 <sig_disconnect+0xc0>
    3727:	8b 13                	mov    (%ebx),%edx
    3729:	85 d2                	test   %edx,%edx
    372b:	74 0e                	je     373b <sig_disconnect+0xab>
    372d:	8b 43 04             	mov    0x4(%ebx),%eax
    3730:	85 c0                	test   %eax,%eax
    3732:	74 07                	je     373b <sig_disconnect+0xab>
    3734:	89 10                	mov    %edx,(%eax)
    3736:	8b 13                	mov    (%ebx),%edx
    3738:	89 42 04             	mov    %eax,0x4(%edx)
    373b:	c7 03 00 00 00 00    	movl   $0x0,(%ebx)
    3741:	c7 43 04 00 00 00 00 	movl   $0x0,0x4(%ebx)
    3748:	89 1c 24             	mov    %ebx,(%esp)
    374b:	e8 50 49 01 00       	call   180a0 <free>
    3750:	c7 45 08 e0 77 02 00 	movl   $0x277e0,0x8(%ebp)
    3757:	83 c4 2c             	add    $0x2c,%esp
    375a:	5b                   	pop    %ebx
    375b:	5e                   	pop    %esi
    375c:	5f                   	pop    %edi
    375d:	5d                   	pop    %ebp
    375e:	e9 1d bb 00 00       	jmp    f280 <fibril_rwlock_write_unlock>
    3763:	8d b6 00 00 00 00    	lea    0x0(%esi),%esi
    3769:	8d bc 27 00 00 00 00 	lea    0x0(%edi,%eiz,1),%edi

00003770 <sig_send>:
    3770:	55                   	push   %ebp
    3771:	89 e5                	mov    %esp,%ebp
    3773:	57                   	push   %edi
    3774:	56                   	push   %esi
    3775:	53                   	push   %ebx
    3776:	83 ec 1c             	sub    $0x1c,%esp
    3779:	8b 5d 08             	mov    0x8(%ebp),%ebx
    377c:	8b 75 0c             	mov    0xc(%ebp),%esi
    377f:	c7 04 24 e0 77 02 00 	movl   $0x277e0,(%esp)
    3786:	e8 d5 b8 00 00       	call   f060 <fibril_rwlock_read_lock>
    378b:	a1 f8 77 02 00       	mov    0x277f8,%eax
    3790:	3d f4 77 02 00       	cmp    $0x277f4,%eax
    3795:	75 13                	jne    37aa <sig_send+0x3a>
    3797:	eb 3b                	jmp    37d4 <sig_send+0x64>
    3799:	8d b4 26 00 00 00 00 	lea    0x0(%esi,%eiz,1),%esi
    37a0:	8b 40 04             	mov    0x4(%eax),%eax
    37a3:	3d f4 77 02 00       	cmp    $0x277f4,%eax
    37a8:	74 2a                	je     37d4 <sig_send+0x64>
    37aa:	39 58 08             	cmp    %ebx,0x8(%eax)
    37ad:	75 f1                	jne    37a0 <sig_send+0x30>
    37af:	8b 58 10             	mov    0x10(%eax),%ebx
    37b2:	8d 78 0c             	lea    0xc(%eax),%edi
    37b5:	39 fb                	cmp    %edi,%ebx
    37b7:	74 1b                	je     37d4 <sig_send+0x64>
    37b9:	8d b4 26 00 00 00 00 	lea    0x0(%esi,%eiz,1),%esi
    37c0:	89 74 24 04          	mov    %esi,0x4(%esp)
    37c4:	8b 43 08             	mov    0x8(%ebx),%eax
    37c7:	89 04 24             	mov    %eax,(%esp)
    37ca:	ff 53 0c             	call   *0xc(%ebx)
    37cd:	8b 5b 04             	mov    0x4(%ebx),%ebx
    37d0:	39 fb                	cmp    %edi,%ebx
    37d2:	75 ec                	jne    37c0 <sig_send+0x50>
    37d4:	c7 45 08 e0 77 02 00 	movl   $0x277e0,0x8(%ebp)
    37db:	83 c4 1c             	add    $0x1c,%esp
    37de:	5b                   	pop    %ebx
    37df:	5e                   	pop    %esi
    37e0:	5f                   	pop    %edi
    37e1:	5d                   	pop    %ebp
    37e2:	e9 39 ba 00 00       	jmp    f220 <fibril_rwlock_read_unlock>
    37e7:	89 f6                	mov    %esi,%esi
    37e9:	8d bc 27 00 00 00 00 	lea    0x0(%edi,%eiz,1),%edi

000037f0 <sig_post>:
    37f0:	55                   	push   %ebp
    37f1:	89 e5                	mov    %esp,%ebp
    37f3:	57                   	push   %edi
    37f4:	56                   	push   %esi
    37f5:	53                   	push   %ebx
    37f6:	83 ec 2c             	sub    $0x2c,%esp
    37f9:	8b 45 0c             	mov    0xc(%ebp),%eax
    37fc:	8b 5d 08             	mov    0x8(%ebp),%ebx
    37ff:	c7 04 24 e0 77 02 00 	movl   $0x277e0,(%esp)
    3806:	89 45 e0             	mov    %eax,-0x20(%ebp)
    3809:	8b 75 10             	mov    0x10(%ebp),%esi
    380c:	e8 4f b8 00 00       	call   f060 <fibril_rwlock_read_lock>
    3811:	a1 f8 77 02 00       	mov    0x277f8,%eax
    3816:	3d f4 77 02 00       	cmp    $0x277f4,%eax
    381b:	75 19                	jne    3836 <sig_post+0x46>
    381d:	e9 be 00 00 00       	jmp    38e0 <sig_post+0xf0>
    3822:	8d b6 00 00 00 00    	lea    0x0(%esi),%esi
    3828:	8b 40 04             	mov    0x4(%eax),%eax
    382b:	3d f4 77 02 00       	cmp    $0x277f4,%eax
    3830:	0f 84 aa 00 00 00    	je     38e0 <sig_post+0xf0>
    3836:	39 58 08             	cmp    %ebx,0x8(%eax)
    3839:	75 ed                	jne    3828 <sig_post+0x38>
    383b:	8b 58 10             	mov    0x10(%eax),%ebx
    383e:	83 c0 0c             	add    $0xc,%eax
    3841:	89 45 e4             	mov    %eax,-0x1c(%ebp)
    3844:	39 c3                	cmp    %eax,%ebx
    3846:	0f 84 94 00 00 00    	je     38e0 <sig_post+0xf0>
    384c:	8b 55 e0             	mov    -0x20(%ebp),%edx
    384f:	85 d2                	test   %edx,%edx
    3851:	75 42                	jne    3895 <sig_post+0xa5>
    3853:	e9 9b 00 00 00       	jmp    38f3 <sig_post+0x103>
    3858:	8b 43 08             	mov    0x8(%ebx),%eax
    385b:	c7 02 00 00 00 00    	movl   $0x0,(%edx)
    3861:	89 42 0c             	mov    %eax,0xc(%edx)
    3864:	c7 42 04 00 00 00 00 	movl   $0x0,0x4(%edx)
    386b:	8b 4b 0c             	mov    0xc(%ebx),%ecx
    386e:	c7 42 08 02 00 00 00 	movl   $0x2,0x8(%edx)
    3875:	89 4a 10             	mov    %ecx,0x10(%edx)
    3878:	89 7a 14             	mov    %edi,0x14(%edx)
    387b:	89 54 24 04          	mov    %edx,0x4(%esp)
    387f:	8b 40 14             	mov    0x14(%eax),%eax
    3882:	83 c0 10             	add    $0x10,%eax
    3885:	89 04 24             	mov    %eax,(%esp)
    3888:	e8 93 ae 01 00       	call   1e720 <prodcons_produce>
    388d:	8b 5b 04             	mov    0x4(%ebx),%ebx
    3890:	3b 5d e4             	cmp    -0x1c(%ebp),%ebx
    3893:	74 4b                	je     38e0 <sig_post+0xf0>
    3895:	89 34 24             	mov    %esi,(%esp)
    3898:	e8 f3 46 01 00       	call   17f90 <malloc>
    389d:	89 c7                	mov    %eax,%edi
    389f:	85 c0                	test   %eax,%eax
    38a1:	0f 84 a3 00 00 00    	je     394a <sig_post+0x15a>
    38a7:	8b 45 e0             	mov    -0x20(%ebp),%eax
    38aa:	89 74 24 08          	mov    %esi,0x8(%esp)
    38ae:	89 44 24 04          	mov    %eax,0x4(%esp)
    38b2:	89 3c 24             	mov    %edi,(%esp)
    38b5:	e8 26 74 00 00       	call   ace0 <memcpy>
    38ba:	c7 04 24 24 00 00 00 	movl   $0x24,(%esp)
    38c1:	e8 ca 46 01 00       	call   17f90 <malloc>
    38c6:	89 c2                	mov    %eax,%edx
    38c8:	85 c0                	test   %eax,%eax
    38ca:	75 8c                	jne    3858 <sig_post+0x68>
    38cc:	89 3c 24             	mov    %edi,(%esp)
    38cf:	e8 cc 47 01 00       	call   180a0 <free>
    38d4:	8b 5b 04             	mov    0x4(%ebx),%ebx
    38d7:	3b 5d e4             	cmp    -0x1c(%ebp),%ebx
    38da:	75 b9                	jne    3895 <sig_post+0xa5>
    38dc:	8d 74 26 00          	lea    0x0(%esi,%eiz,1),%esi
    38e0:	c7 45 08 e0 77 02 00 	movl   $0x277e0,0x8(%ebp)
    38e7:	83 c4 2c             	add    $0x2c,%esp
    38ea:	5b                   	pop    %ebx
    38eb:	5e                   	pop    %esi
    38ec:	5f                   	pop    %edi
    38ed:	5d                   	pop    %ebp
    38ee:	e9 2d b9 00 00       	jmp    f220 <fibril_rwlock_read_unlock>
    38f3:	89 c6                	mov    %eax,%esi
    38f5:	8d 76 00             	lea    0x0(%esi),%esi
    38f8:	c7 04 24 24 00 00 00 	movl   $0x24,(%esp)
    38ff:	e8 8c 46 01 00       	call   17f90 <malloc>
    3904:	85 c0                	test   %eax,%eax
    3906:	74 39                	je     3941 <sig_post+0x151>
    3908:	8b 53 08             	mov    0x8(%ebx),%edx
    390b:	c7 00 00 00 00 00    	movl   $0x0,(%eax)
    3911:	89 50 0c             	mov    %edx,0xc(%eax)
    3914:	c7 40 04 00 00 00 00 	movl   $0x0,0x4(%eax)
    391b:	8b 4b 0c             	mov    0xc(%ebx),%ecx
    391e:	c7 40 08 02 00 00 00 	movl   $0x2,0x8(%eax)
    3925:	89 48 10             	mov    %ecx,0x10(%eax)
    3928:	c7 40 14 00 00 00 00 	movl   $0x0,0x14(%eax)
    392f:	89 44 24 04          	mov    %eax,0x4(%esp)
    3933:	8b 42 14             	mov    0x14(%edx),%eax
    3936:	83 c0 10             	add    $0x10,%eax
    3939:	89 04 24             	mov    %eax,(%esp)
    393c:	e8 df ad 01 00       	call   1e720 <prodcons_produce>
    3941:	8b 5b 04             	mov    0x4(%ebx),%ebx
    3944:	39 f3                	cmp    %esi,%ebx
    3946:	75 b0                	jne    38f8 <sig_post+0x108>
    3948:	eb 96                	jmp    38e0 <sig_post+0xf0>
    394a:	c7 04 24 24 00 00 00 	movl   $0x24,(%esp)
    3951:	e8 3a 46 01 00       	call   17f90 <malloc>
    3956:	89 c2                	mov    %eax,%edx
    3958:	85 c0                	test   %eax,%eax
    395a:	0f 85 f8 fe ff ff    	jne    3858 <sig_post+0x68>
    3960:	e9 28 ff ff ff       	jmp    388d <sig_post+0x9d>
    3965:	66 90                	xchg   %ax,%ax
    3967:	66 90                	xchg   %ax,%ax
    3969:	66 90                	xchg   %ax,%ax
    396b:	66 90                	xchg   %ax,%ax
    396d:	66 90                	xchg   %ax,%ax
    396f:	90                   	nop

00003970 <grid_reconfigure>:
    3970:	55                   	push   %ebp
    3971:	89 e5                	mov    %esp,%ebp
    3973:	5d                   	pop    %ebp
    3974:	c3                   	ret    
    3975:	8d 74 26 00          	lea    0x0(%esi,%eiz,1),%esi
    3979:	8d bc 27 00 00 00 00 	lea    0x0(%edi,%eiz,1),%edi

00003980 <grid_handle_keyboard_event>:
    3980:	55                   	push   %ebp
    3981:	89 e5                	mov    %esp,%ebp
    3983:	5d                   	pop    %ebp
    3984:	c3                   	ret    
    3985:	8d 74 26 00          	lea    0x0(%esi,%eiz,1),%esi
    3989:	8d bc 27 00 00 00 00 	lea    0x0(%edi,%eiz,1),%edi

00003990 <grid_handle_position_event>:
    3990:	55                   	push   %ebp
    3991:	31 d2                	xor    %edx,%edx
    3993:	89 e5                	mov    %esp,%ebp
    3995:	57                   	push   %edi
    3996:	56                   	push   %esi
    3997:	53                   	push   %ebx
    3998:	83 ec 1c             	sub    $0x1c,%esp
    399b:	8b 4d 08             	mov    0x8(%ebp),%ecx
    399e:	8b 59 5c             	mov    0x5c(%ecx),%ebx
    39a1:	8b 41 24             	mov    0x24(%ecx),%eax
    39a4:	f7 f3                	div    %ebx
    39a6:	89 c6                	mov    %eax,%esi
    39a8:	85 c0                	test   %eax,%eax
    39aa:	74 64                	je     3a10 <grid_handle_position_event+0x80>
    39ac:	31 d2                	xor    %edx,%edx
    39ae:	8b 79 60             	mov    0x60(%ecx),%edi
    39b1:	8b 41 20             	mov    0x20(%ecx),%eax
    39b4:	f7 f7                	div    %edi
    39b6:	89 45 e4             	mov    %eax,-0x1c(%ebp)
    39b9:	85 c0                	test   %eax,%eax
    39bb:	74 53                	je     3a10 <grid_handle_position_event+0x80>
    39bd:	8b 45 1c             	mov    0x1c(%ebp),%eax
    39c0:	8b 51 1c             	mov    0x1c(%ecx),%edx
    39c3:	89 45 e0             	mov    %eax,-0x20(%ebp)
    39c6:	29 d0                	sub    %edx,%eax
    39c8:	31 d2                	xor    %edx,%edx
    39ca:	f7 f6                	div    %esi
    39cc:	89 45 dc             	mov    %eax,-0x24(%ebp)
    39cf:	8b 75 18             	mov    0x18(%ebp),%esi
    39d2:	8b 41 18             	mov    0x18(%ecx),%eax
    39d5:	3b 5d dc             	cmp    -0x24(%ebp),%ebx
    39d8:	76 36                	jbe    3a10 <grid_handle_position_event+0x80>
    39da:	89 f2                	mov    %esi,%edx
    39dc:	29 c2                	sub    %eax,%edx
    39de:	89 d0                	mov    %edx,%eax
    39e0:	31 d2                	xor    %edx,%edx
    39e2:	f7 75 e4             	divl   -0x1c(%ebp)
    39e5:	39 c7                	cmp    %eax,%edi
    39e7:	76 27                	jbe    3a10 <grid_handle_position_event+0x80>
    39e9:	8b 55 dc             	mov    -0x24(%ebp),%edx
    39ec:	0f af d7             	imul   %edi,%edx
    39ef:	01 d0                	add    %edx,%eax
    39f1:	8b 51 64             	mov    0x64(%ecx),%edx
    39f4:	8d 04 82             	lea    (%edx,%eax,4),%eax
    39f7:	85 c0                	test   %eax,%eax
    39f9:	74 15                	je     3a10 <grid_handle_position_event+0x80>
    39fb:	8b 00                	mov    (%eax),%eax
    39fd:	85 c0                	test   %eax,%eax
    39ff:	74 0f                	je     3a10 <grid_handle_position_event+0x80>
    3a01:	89 45 08             	mov    %eax,0x8(%ebp)
    3a04:	8b 40 54             	mov    0x54(%eax),%eax
    3a07:	83 c4 1c             	add    $0x1c,%esp
    3a0a:	5b                   	pop    %ebx
    3a0b:	5e                   	pop    %esi
    3a0c:	5f                   	pop    %edi
    3a0d:	5d                   	pop    %ebp
    3a0e:	ff e0                	jmp    *%eax
    3a10:	83 c4 1c             	add    $0x1c,%esp
    3a13:	5b                   	pop    %ebx
    3a14:	5e                   	pop    %esi
    3a15:	5f                   	pop    %edi
    3a16:	5d                   	pop    %ebp
    3a17:	c3                   	ret    
    3a18:	90                   	nop
    3a19:	8d b4 26 00 00 00 00 	lea    0x0(%esi,%eiz,1),%esi

00003a20 <grid_add>:
    3a20:	55                   	push   %ebp
    3a21:	89 e5                	mov    %esp,%ebp
    3a23:	57                   	push   %edi
    3a24:	56                   	push   %esi
    3a25:	53                   	push   %ebx
    3a26:	83 ec 3c             	sub    $0x3c,%esp
    3a29:	8b 5d 08             	mov    0x8(%ebp),%ebx
    3a2c:	8b 55 10             	mov    0x10(%ebp),%edx
    3a2f:	8b 45 18             	mov    0x18(%ebp),%eax
    3a32:	8b 75 0c             	mov    0xc(%ebp),%esi
    3a35:	01 d0                	add    %edx,%eax
    3a37:	8b 5b 5c             	mov    0x5c(%ebx),%ebx
    3a3a:	89 45 dc             	mov    %eax,-0x24(%ebp)
    3a3d:	89 5d d4             	mov    %ebx,-0x2c(%ebp)
    3a40:	39 d8                	cmp    %ebx,%eax
    3a42:	0f 87 ae 00 00 00    	ja     3af6 <grid_add+0xd6>
    3a48:	8b 45 08             	mov    0x8(%ebp),%eax
    3a4b:	8b 7d 1c             	mov    0x1c(%ebp),%edi
    3a4e:	8b 4d 14             	mov    0x14(%ebp),%ecx
    3a51:	01 f9                	add    %edi,%ecx
    3a53:	8b 78 60             	mov    0x60(%eax),%edi
    3a56:	39 f9                	cmp    %edi,%ecx
    3a58:	0f 87 b4 00 00 00    	ja     3b12 <grid_add+0xf2>
    3a5e:	89 c3                	mov    %eax,%ebx
    3a60:	89 46 08             	mov    %eax,0x8(%esi)
    3a63:	83 c0 0c             	add    $0xc,%eax
    3a66:	3b 55 dc             	cmp    -0x24(%ebp),%edx
    3a69:	89 46 04             	mov    %eax,0x4(%esi)
    3a6c:	8b 43 0c             	mov    0xc(%ebx),%eax
    3a6f:	89 06                	mov    %eax,(%esi)
    3a71:	8b 43 0c             	mov    0xc(%ebx),%eax
    3a74:	89 73 0c             	mov    %esi,0xc(%ebx)
    3a77:	89 70 04             	mov    %esi,0x4(%eax)
    3a7a:	8b 43 14             	mov    0x14(%ebx),%eax
    3a7d:	89 46 14             	mov    %eax,0x14(%esi)
    3a80:	73 6c                	jae    3aee <grid_add+0xce>
    3a82:	8d 04 bd 00 00 00 00 	lea    0x0(,%edi,4),%eax
    3a89:	8b 5d 14             	mov    0x14(%ebp),%ebx
    3a8c:	89 45 d8             	mov    %eax,-0x28(%ebp)
    3a8f:	89 d0                	mov    %edx,%eax
    3a91:	0f af c7             	imul   %edi,%eax
    3a94:	01 d8                	add    %ebx,%eax
    3a96:	89 55 e4             	mov    %edx,-0x1c(%ebp)
    3a99:	c1 e0 02             	shl    $0x2,%eax
    3a9c:	89 45 e0             	mov    %eax,-0x20(%ebp)
    3a9f:	90                   	nop
    3aa0:	39 4d 14             	cmp    %ecx,0x14(%ebp)
    3aa3:	73 2f                	jae    3ad4 <grid_add+0xb4>
    3aa5:	8b 45 e4             	mov    -0x1c(%ebp),%eax
    3aa8:	39 45 d4             	cmp    %eax,-0x2c(%ebp)
    3aab:	76 27                	jbe    3ad4 <grid_add+0xb4>
    3aad:	8b 55 e0             	mov    -0x20(%ebp),%edx
    3ab0:	8b 45 14             	mov    0x14(%ebp),%eax
    3ab3:	89 4d d0             	mov    %ecx,-0x30(%ebp)
    3ab6:	66 90                	xchg   %ax,%ax
    3ab8:	39 c7                	cmp    %eax,%edi
    3aba:	76 0c                	jbe    3ac8 <grid_add+0xa8>
    3abc:	8b 5d 08             	mov    0x8(%ebp),%ebx
    3abf:	8b 4b 64             	mov    0x64(%ebx),%ecx
    3ac2:	01 d1                	add    %edx,%ecx
    3ac4:	74 02                	je     3ac8 <grid_add+0xa8>
    3ac6:	89 31                	mov    %esi,(%ecx)
    3ac8:	40                   	inc    %eax
    3ac9:	83 c2 04             	add    $0x4,%edx
    3acc:	3b 45 d0             	cmp    -0x30(%ebp),%eax
    3acf:	75 e7                	jne    3ab8 <grid_add+0x98>
    3ad1:	8b 4d d0             	mov    -0x30(%ebp),%ecx
    3ad4:	8b 5d e4             	mov    -0x1c(%ebp),%ebx
    3ad7:	8b 55 e0             	mov    -0x20(%ebp),%edx
    3ada:	43                   	inc    %ebx
    3adb:	8b 45 d8             	mov    -0x28(%ebp),%eax
    3ade:	89 5d e4             	mov    %ebx,-0x1c(%ebp)
    3ae1:	01 c2                	add    %eax,%edx
    3ae3:	8b 5d dc             	mov    -0x24(%ebp),%ebx
    3ae6:	89 55 e0             	mov    %edx,-0x20(%ebp)
    3ae9:	39 5d e4             	cmp    %ebx,-0x1c(%ebp)
    3aec:	75 b2                	jne    3aa0 <grid_add+0x80>
    3aee:	83 c4 3c             	add    $0x3c,%esp
    3af1:	5b                   	pop    %ebx
    3af2:	5e                   	pop    %esi
    3af3:	5f                   	pop    %edi
    3af4:	5d                   	pop    %ebp
    3af5:	c3                   	ret    
    3af6:	c7 44 24 08 c0 00 00 	movl   $0xc0,0x8(%esp)
    3afd:	00 
    3afe:	c7 44 24 04 7a 4b 02 	movl   $0x24b7a,0x4(%esp)
    3b05:	00 
    3b06:	c7 04 24 81 4b 02 00 	movl   $0x24b81,(%esp)
    3b0d:	e8 5e ed 01 00       	call   22870 <assert_abort>
    3b12:	c7 44 24 08 c1 00 00 	movl   $0xc1,0x8(%esp)
    3b19:	00 
    3b1a:	c7 44 24 04 7a 4b 02 	movl   $0x24b7a,0x4(%esp)
    3b21:	00 
    3b22:	c7 04 24 9a 4b 02 00 	movl   $0x24b9a,(%esp)
    3b29:	e8 42 ed 01 00       	call   22870 <assert_abort>
    3b2e:	66 90                	xchg   %ax,%ax

00003b30 <grid_rearrange>:
    3b30:	55                   	push   %ebp
    3b31:	89 e5                	mov    %esp,%ebp
    3b33:	57                   	push   %edi
    3b34:	56                   	push   %esi
    3b35:	53                   	push   %ebx
    3b36:	83 ec 5c             	sub    $0x5c,%esp
    3b39:	8b 45 18             	mov    0x18(%ebp),%eax
    3b3c:	8b 4d 10             	mov    0x10(%ebp),%ecx
    3b3f:	8b 75 08             	mov    0x8(%ebp),%esi
    3b42:	89 44 24 10          	mov    %eax,0x10(%esp)
    3b46:	89 4c 24 08          	mov    %ecx,0x8(%esp)
    3b4a:	8b 45 14             	mov    0x14(%ebp),%eax
    3b4d:	8b 4d 0c             	mov    0xc(%ebp),%ecx
    3b50:	89 44 24 0c          	mov    %eax,0xc(%esp)
    3b54:	89 4c 24 04          	mov    %ecx,0x4(%esp)
    3b58:	89 34 24             	mov    %esi,(%esp)
    3b5b:	e8 70 06 00 00       	call   41d0 <widget_modify>
    3b60:	8b 46 14             	mov    0x14(%esi),%eax
    3b63:	89 04 24             	mov    %eax,(%esp)
    3b66:	e8 65 1a 00 00       	call   55d0 <window_claim>
    3b6b:	89 45 e4             	mov    %eax,-0x1c(%ebp)
    3b6e:	85 c0                	test   %eax,%eax
    3b70:	0f 84 00 02 00 00    	je     3d76 <grid_rearrange+0x246>
    3b76:	8b 5e 1c             	mov    0x1c(%esi),%ebx
    3b79:	8b 4e 24             	mov    0x24(%esi),%ecx
    3b7c:	01 d9                	add    %ebx,%ecx
    3b7e:	39 cb                	cmp    %ecx,%ebx
    3b80:	73 58                	jae    3bda <grid_rearrange+0xaa>
    3b82:	8b 46 18             	mov    0x18(%esi),%eax
    3b85:	8b 56 20             	mov    0x20(%esi),%edx
    3b88:	01 c2                	add    %eax,%edx
    3b8a:	89 cf                	mov    %ecx,%edi
    3b8c:	89 d1                	mov    %edx,%ecx
    3b8e:	89 c2                	mov    %eax,%edx
    3b90:	39 d1                	cmp    %edx,%ecx
    3b92:	76 41                	jbe    3bd5 <grid_rearrange+0xa5>
    3b94:	89 f0                	mov    %esi,%eax
    3b96:	89 d7                	mov    %edx,%edi
    3b98:	89 de                	mov    %ebx,%esi
    3b9a:	89 c3                	mov    %eax,%ebx
    3b9c:	8d 74 26 00          	lea    0x0(%esi,%eiz,1),%esi
    3ba0:	8b 53 58             	mov    0x58(%ebx),%edx
    3ba3:	8b 45 e4             	mov    -0x1c(%ebp),%eax
    3ba6:	89 54 24 0c          	mov    %edx,0xc(%esp)
    3baa:	89 7c 24 04          	mov    %edi,0x4(%esp)
    3bae:	89 74 24 08          	mov    %esi,0x8(%esp)
    3bb2:	89 04 24             	mov    %eax,(%esp)
    3bb5:	e8 76 2a 00 00       	call   6630 <surface_put_pixel>
    3bba:	8b 53 18             	mov    0x18(%ebx),%edx
    3bbd:	8b 4b 20             	mov    0x20(%ebx),%ecx
    3bc0:	47                   	inc    %edi
    3bc1:	01 d1                	add    %edx,%ecx
    3bc3:	39 cf                	cmp    %ecx,%edi
    3bc5:	72 d9                	jb     3ba0 <grid_rearrange+0x70>
    3bc7:	89 d8                	mov    %ebx,%eax
    3bc9:	89 f3                	mov    %esi,%ebx
    3bcb:	89 c6                	mov    %eax,%esi
    3bcd:	8b 78 24             	mov    0x24(%eax),%edi
    3bd0:	8b 40 1c             	mov    0x1c(%eax),%eax
    3bd3:	01 c7                	add    %eax,%edi
    3bd5:	43                   	inc    %ebx
    3bd6:	39 fb                	cmp    %edi,%ebx
    3bd8:	72 b6                	jb     3b90 <grid_rearrange+0x60>
    3bda:	8b 46 14             	mov    0x14(%esi),%eax
    3bdd:	89 04 24             	mov    %eax,(%esp)
    3be0:	e8 1b 1a 00 00       	call   5600 <window_yield>
    3be5:	31 d2                	xor    %edx,%edx
    3be7:	8b 5e 60             	mov    0x60(%esi),%ebx
    3bea:	8b 45 14             	mov    0x14(%ebp),%eax
    3bed:	f7 f3                	div    %ebx
    3bef:	8b 4e 5c             	mov    0x5c(%esi),%ecx
    3bf2:	31 d2                	xor    %edx,%edx
    3bf4:	89 45 cc             	mov    %eax,-0x34(%ebp)
    3bf7:	8b 45 18             	mov    0x18(%ebp),%eax
    3bfa:	f7 f1                	div    %ecx
    3bfc:	8b 7e 10             	mov    0x10(%esi),%edi
    3bff:	8d 56 0c             	lea    0xc(%esi),%edx
    3c02:	89 4d e0             	mov    %ecx,-0x20(%ebp)
    3c05:	89 45 d4             	mov    %eax,-0x2c(%ebp)
    3c08:	89 55 d0             	mov    %edx,-0x30(%ebp)
    3c0b:	39 d7                	cmp    %edx,%edi
    3c0d:	0f 84 5b 01 00 00    	je     3d6e <grid_rearrange+0x23e>
    3c13:	89 75 d8             	mov    %esi,-0x28(%ebp)
    3c16:	66 90                	xchg   %ax,%ax
    3c18:	8b 75 e0             	mov    -0x20(%ebp),%esi
    3c1b:	c7 45 dc 00 00 00 00 	movl   $0x0,-0x24(%ebp)
    3c22:	c7 45 e4 00 00 00 00 	movl   $0x0,-0x1c(%ebp)
    3c29:	85 f6                	test   %esi,%esi
    3c2b:	0f 84 2c 01 00 00    	je     3d5d <grid_rearrange+0x22d>
    3c31:	85 db                	test   %ebx,%ebx
    3c33:	0f 84 0e 01 00 00    	je     3d47 <grid_rearrange+0x217>
    3c39:	8b 4d e4             	mov    -0x1c(%ebp),%ecx
    3c3c:	39 4d e0             	cmp    %ecx,-0x20(%ebp)
    3c3f:	0f 86 fb 00 00 00    	jbe    3d40 <grid_rearrange+0x210>
    3c45:	8b 55 dc             	mov    -0x24(%ebp),%edx
    3c48:	31 c0                	xor    %eax,%eax
    3c4a:	c1 e2 02             	shl    $0x2,%edx
    3c4d:	89 d1                	mov    %edx,%ecx
    3c4f:	90                   	nop
    3c50:	39 c3                	cmp    %eax,%ebx
    3c52:	76 14                	jbe    3c68 <grid_rearrange+0x138>
    3c54:	8b 55 d8             	mov    -0x28(%ebp),%edx
    3c57:	8b 72 64             	mov    0x64(%edx),%esi
    3c5a:	89 f2                	mov    %esi,%edx
    3c5c:	01 ca                	add    %ecx,%edx
    3c5e:	74 08                	je     3c68 <grid_rearrange+0x138>
    3c60:	3b 3a                	cmp    (%edx),%edi
    3c62:	0f 84 20 01 00 00    	je     3d88 <grid_rearrange+0x258>
    3c68:	40                   	inc    %eax
    3c69:	83 c1 04             	add    $0x4,%ecx
    3c6c:	39 d8                	cmp    %ebx,%eax
    3c6e:	75 e0                	jne    3c50 <grid_rearrange+0x120>
    3c70:	8b 55 e4             	mov    -0x1c(%ebp),%edx
    3c73:	8b 4d dc             	mov    -0x24(%ebp),%ecx
    3c76:	01 d9                	add    %ebx,%ecx
    3c78:	42                   	inc    %edx
    3c79:	89 55 e4             	mov    %edx,-0x1c(%ebp)
    3c7c:	89 4d dc             	mov    %ecx,-0x24(%ebp)
    3c7f:	8b 4d e0             	mov    -0x20(%ebp),%ecx
    3c82:	39 4d e4             	cmp    %ecx,-0x1c(%ebp)
    3c85:	75 aa                	jne    3c31 <grid_rearrange+0x101>
    3c87:	8b 4d e4             	mov    -0x1c(%ebp),%ecx
    3c8a:	8b 75 d4             	mov    -0x2c(%ebp),%esi
    3c8d:	8b 55 cc             	mov    -0x34(%ebp),%edx
    3c90:	0f af ce             	imul   %esi,%ecx
    3c93:	0f af d0             	imul   %eax,%edx
    3c96:	8b 75 0c             	mov    0xc(%ebp),%esi
    3c99:	01 f2                	add    %esi,%edx
    3c9b:	89 55 c0             	mov    %edx,-0x40(%ebp)
    3c9e:	8b 55 10             	mov    0x10(%ebp),%edx
    3ca1:	01 d1                	add    %edx,%ecx
    3ca3:	89 4d bc             	mov    %ecx,-0x44(%ebp)
    3ca6:	8b 4d e0             	mov    -0x20(%ebp),%ecx
    3ca9:	39 4d e4             	cmp    %ecx,-0x1c(%ebp)
    3cac:	73 75                	jae    3d23 <grid_rearrange+0x1f3>
    3cae:	39 d8                	cmp    %ebx,%eax
    3cb0:	73 71                	jae    3d23 <grid_rearrange+0x1f3>
    3cb2:	8b 55 d8             	mov    -0x28(%ebp),%edx
    3cb5:	c7 45 dc 00 00 00 00 	movl   $0x0,-0x24(%ebp)
    3cbc:	8b 72 64             	mov    0x64(%edx),%esi
    3cbf:	8b 55 e4             	mov    -0x1c(%ebp),%edx
    3cc2:	0f af d3             	imul   %ebx,%edx
    3cc5:	01 c2                	add    %eax,%edx
    3cc7:	8d 14 96             	lea    (%esi,%edx,4),%edx
    3cca:	85 d2                	test   %edx,%edx
    3ccc:	74 55                	je     3d23 <grid_rearrange+0x1f3>
    3cce:	3b 3a                	cmp    (%edx),%edi
    3cd0:	75 51                	jne    3d23 <grid_rearrange+0x1f3>
    3cd2:	8b 4d e4             	mov    -0x1c(%ebp),%ecx
    3cd5:	8d 14 9d 00 00 00 00 	lea    0x0(,%ebx,4),%edx
    3cdc:	41                   	inc    %ecx
    3cdd:	0f af cb             	imul   %ebx,%ecx
    3ce0:	01 c8                	add    %ecx,%eax
    3ce2:	8b 4d e4             	mov    -0x1c(%ebp),%ecx
    3ce5:	f7 db                	neg    %ebx
    3ce7:	c1 e3 02             	shl    $0x2,%ebx
    3cea:	8d 04 86             	lea    (%esi,%eax,4),%eax
    3ced:	31 f6                	xor    %esi,%esi
    3cef:	90                   	nop
    3cf0:	41                   	inc    %ecx
    3cf1:	03 75 d4             	add    -0x2c(%ebp),%esi
    3cf4:	39 4d e0             	cmp    %ecx,-0x20(%ebp)
    3cf7:	77 57                	ja     3d50 <grid_rearrange+0x220>
    3cf9:	85 f6                	test   %esi,%esi
    3cfb:	74 26                	je     3d23 <grid_rearrange+0x1f3>
    3cfd:	8b 45 dc             	mov    -0x24(%ebp),%eax
    3d00:	85 c0                	test   %eax,%eax
    3d02:	74 1f                	je     3d23 <grid_rearrange+0x1f3>
    3d04:	8b 4d dc             	mov    -0x24(%ebp),%ecx
    3d07:	8b 45 bc             	mov    -0x44(%ebp),%eax
    3d0a:	8b 55 c0             	mov    -0x40(%ebp),%edx
    3d0d:	89 74 24 10          	mov    %esi,0x10(%esp)
    3d11:	89 4c 24 0c          	mov    %ecx,0xc(%esp)
    3d15:	89 44 24 08          	mov    %eax,0x8(%esp)
    3d19:	89 54 24 04          	mov    %edx,0x4(%esp)
    3d1d:	89 3c 24             	mov    %edi,(%esp)
    3d20:	ff 57 48             	call   *0x48(%edi)
    3d23:	8b 7f 04             	mov    0x4(%edi),%edi
    3d26:	3b 7d d0             	cmp    -0x30(%ebp),%edi
    3d29:	74 43                	je     3d6e <grid_rearrange+0x23e>
    3d2b:	8b 4d d8             	mov    -0x28(%ebp),%ecx
    3d2e:	8b 59 60             	mov    0x60(%ecx),%ebx
    3d31:	8b 49 5c             	mov    0x5c(%ecx),%ecx
    3d34:	89 4d e0             	mov    %ecx,-0x20(%ebp)
    3d37:	e9 dc fe ff ff       	jmp    3c18 <grid_rearrange+0xe8>
    3d3c:	8d 74 26 00          	lea    0x0(%esi,%eiz,1),%esi
    3d40:	89 d8                	mov    %ebx,%eax
    3d42:	e9 29 ff ff ff       	jmp    3c70 <grid_rearrange+0x140>
    3d47:	31 c0                	xor    %eax,%eax
    3d49:	e9 22 ff ff ff       	jmp    3c70 <grid_rearrange+0x140>
    3d4e:	66 90                	xchg   %ax,%ax
    3d50:	85 c0                	test   %eax,%eax
    3d52:	74 a5                	je     3cf9 <grid_rearrange+0x1c9>
    3d54:	01 d0                	add    %edx,%eax
    3d56:	3b 3c 18             	cmp    (%eax,%ebx,1),%edi
    3d59:	74 95                	je     3cf0 <grid_rearrange+0x1c0>
    3d5b:	eb 9c                	jmp    3cf9 <grid_rearrange+0x1c9>
    3d5d:	8b 45 e0             	mov    -0x20(%ebp),%eax
    3d60:	31 d2                	xor    %edx,%edx
    3d62:	89 45 e4             	mov    %eax,-0x1c(%ebp)
    3d65:	31 c9                	xor    %ecx,%ecx
    3d67:	31 c0                	xor    %eax,%eax
    3d69:	e9 28 ff ff ff       	jmp    3c96 <grid_rearrange+0x166>
    3d6e:	83 c4 5c             	add    $0x5c,%esp
    3d71:	5b                   	pop    %ebx
    3d72:	5e                   	pop    %esi
    3d73:	5f                   	pop    %edi
    3d74:	5d                   	pop    %ebp
    3d75:	c3                   	ret    
    3d76:	8b 46 14             	mov    0x14(%esi),%eax
    3d79:	89 04 24             	mov    %eax,(%esp)
    3d7c:	e8 7f 18 00 00       	call   5600 <window_yield>
    3d81:	e9 f0 fd ff ff       	jmp    3b76 <grid_rearrange+0x46>
    3d86:	66 90                	xchg   %ax,%ax
    3d88:	8b 55 cc             	mov    -0x34(%ebp),%edx
    3d8b:	8b 4d 0c             	mov    0xc(%ebp),%ecx
    3d8e:	0f af d0             	imul   %eax,%edx
    3d91:	01 ca                	add    %ecx,%edx
    3d93:	8b 4d d4             	mov    -0x2c(%ebp),%ecx
    3d96:	89 55 c0             	mov    %edx,-0x40(%ebp)
    3d99:	8b 55 e4             	mov    -0x1c(%ebp),%edx
    3d9c:	0f af d1             	imul   %ecx,%edx
    3d9f:	8b 4d 10             	mov    0x10(%ebp),%ecx
    3da2:	89 45 c8             	mov    %eax,-0x38(%ebp)
    3da5:	01 ca                	add    %ecx,%edx
    3da7:	8b 4d dc             	mov    -0x24(%ebp),%ecx
    3daa:	89 55 bc             	mov    %edx,-0x44(%ebp)
    3dad:	89 75 c4             	mov    %esi,-0x3c(%ebp)
    3db0:	8d 54 08 01          	lea    0x1(%eax,%ecx,1),%edx
    3db4:	c7 45 dc 00 00 00 00 	movl   $0x0,-0x24(%ebp)
    3dbb:	89 c1                	mov    %eax,%ecx
    3dbd:	31 c0                	xor    %eax,%eax
    3dbf:	8d 14 96             	lea    (%esi,%edx,4),%edx
    3dc2:	8b 75 cc             	mov    -0x34(%ebp),%esi
    3dc5:	eb 0d                	jmp    3dd4 <grid_rearrange+0x2a4>
    3dc7:	90                   	nop
    3dc8:	85 d2                	test   %edx,%edx
    3dca:	74 0f                	je     3ddb <grid_rearrange+0x2ab>
    3dcc:	83 c2 04             	add    $0x4,%edx
    3dcf:	3b 7a fc             	cmp    -0x4(%edx),%edi
    3dd2:	75 07                	jne    3ddb <grid_rearrange+0x2ab>
    3dd4:	41                   	inc    %ecx
    3dd5:	01 f0                	add    %esi,%eax
    3dd7:	39 d9                	cmp    %ebx,%ecx
    3dd9:	72 ed                	jb     3dc8 <grid_rearrange+0x298>
    3ddb:	89 45 dc             	mov    %eax,-0x24(%ebp)
    3dde:	8b 75 c4             	mov    -0x3c(%ebp),%esi
    3de1:	8b 45 c8             	mov    -0x38(%ebp),%eax
    3de4:	e9 d6 fe ff ff       	jmp    3cbf <grid_rearrange+0x18f>
    3de9:	8d b4 26 00 00 00 00 	lea    0x0(%esi,%eiz,1),%esi

00003df0 <grid_destroy>:
    3df0:	55                   	push   %ebp
    3df1:	89 e5                	mov    %esp,%ebp
    3df3:	53                   	push   %ebx
    3df4:	83 ec 14             	sub    $0x14,%esp
    3df7:	8b 5d 08             	mov    0x8(%ebp),%ebx
    3dfa:	89 1c 24             	mov    %ebx,(%esp)
    3dfd:	e8 ee 03 00 00       	call   41f0 <widget_deinit>
    3e02:	8b 43 64             	mov    0x64(%ebx),%eax
    3e05:	89 04 24             	mov    %eax,(%esp)
    3e08:	e8 93 42 01 00       	call   180a0 <free>
    3e0d:	89 5d 08             	mov    %ebx,0x8(%ebp)
    3e10:	83 c4 14             	add    $0x14,%esp
    3e13:	5b                   	pop    %ebx
    3e14:	5d                   	pop    %ebp
    3e15:	e9 86 42 01 00       	jmp    180a0 <free>
    3e1a:	8d b6 00 00 00 00    	lea    0x0(%esi),%esi

00003e20 <grid_repaint>:
    3e20:	55                   	push   %ebp
    3e21:	89 e5                	mov    %esp,%ebp
    3e23:	57                   	push   %edi
    3e24:	56                   	push   %esi
    3e25:	53                   	push   %ebx
    3e26:	83 ec 2c             	sub    $0x2c,%esp
    3e29:	8b 7d 08             	mov    0x8(%ebp),%edi
    3e2c:	8b 47 14             	mov    0x14(%edi),%eax
    3e2f:	89 04 24             	mov    %eax,(%esp)
    3e32:	e8 99 17 00 00       	call   55d0 <window_claim>
    3e37:	89 45 e4             	mov    %eax,-0x1c(%ebp)
    3e3a:	85 c0                	test   %eax,%eax
    3e3c:	0f 84 8d 00 00 00    	je     3ecf <grid_repaint+0xaf>
    3e42:	8b 77 1c             	mov    0x1c(%edi),%esi
    3e45:	8b 5f 24             	mov    0x24(%edi),%ebx
    3e48:	01 f3                	add    %esi,%ebx
    3e4a:	39 de                	cmp    %ebx,%esi
    3e4c:	73 46                	jae    3e94 <grid_repaint+0x74>
    3e4e:	8b 47 18             	mov    0x18(%edi),%eax
    3e51:	8b 4f 20             	mov    0x20(%edi),%ecx
    3e54:	01 c1                	add    %eax,%ecx
    3e56:	66 90                	xchg   %ax,%ax
    3e58:	39 c1                	cmp    %eax,%ecx
    3e5a:	76 33                	jbe    3e8f <grid_repaint+0x6f>
    3e5c:	89 c3                	mov    %eax,%ebx
    3e5e:	66 90                	xchg   %ax,%ax
    3e60:	8b 47 58             	mov    0x58(%edi),%eax
    3e63:	89 5c 24 04          	mov    %ebx,0x4(%esp)
    3e67:	89 44 24 0c          	mov    %eax,0xc(%esp)
    3e6b:	8b 45 e4             	mov    -0x1c(%ebp),%eax
    3e6e:	89 04 24             	mov    %eax,(%esp)
    3e71:	89 74 24 08          	mov    %esi,0x8(%esp)
    3e75:	e8 b6 27 00 00       	call   6630 <surface_put_pixel>
    3e7a:	8b 47 18             	mov    0x18(%edi),%eax
    3e7d:	8b 4f 20             	mov    0x20(%edi),%ecx
    3e80:	43                   	inc    %ebx
    3e81:	01 c1                	add    %eax,%ecx
    3e83:	39 cb                	cmp    %ecx,%ebx
    3e85:	72 d9                	jb     3e60 <grid_repaint+0x40>
    3e87:	8b 5f 24             	mov    0x24(%edi),%ebx
    3e8a:	8b 57 1c             	mov    0x1c(%edi),%edx
    3e8d:	01 d3                	add    %edx,%ebx
    3e8f:	46                   	inc    %esi
    3e90:	39 de                	cmp    %ebx,%esi
    3e92:	72 c4                	jb     3e58 <grid_repaint+0x38>
    3e94:	8b 47 14             	mov    0x14(%edi),%eax
    3e97:	8d 77 0c             	lea    0xc(%edi),%esi
    3e9a:	89 04 24             	mov    %eax,(%esp)
    3e9d:	e8 5e 17 00 00       	call   5600 <window_yield>
    3ea2:	8b 5f 10             	mov    0x10(%edi),%ebx
    3ea5:	39 f3                	cmp    %esi,%ebx
    3ea7:	74 14                	je     3ebd <grid_repaint+0x9d>
    3ea9:	8d b4 26 00 00 00 00 	lea    0x0(%esi,%eiz,1),%esi
    3eb0:	89 1c 24             	mov    %ebx,(%esp)
    3eb3:	ff 53 4c             	call   *0x4c(%ebx)
    3eb6:	8b 5b 04             	mov    0x4(%ebx),%ebx
    3eb9:	39 f3                	cmp    %esi,%ebx
    3ebb:	75 f3                	jne    3eb0 <grid_repaint+0x90>
    3ebd:	8b 47 14             	mov    0x14(%edi),%eax
    3ec0:	89 45 08             	mov    %eax,0x8(%ebp)
    3ec3:	83 c4 2c             	add    $0x2c,%esp
    3ec6:	5b                   	pop    %ebx
    3ec7:	5e                   	pop    %esi
    3ec8:	5f                   	pop    %edi
    3ec9:	5d                   	pop    %ebp
    3eca:	e9 51 16 00 00       	jmp    5520 <window_damage>
    3ecf:	8b 47 14             	mov    0x14(%edi),%eax
    3ed2:	89 04 24             	mov    %eax,(%esp)
    3ed5:	e8 26 17 00 00       	call   5600 <window_yield>
    3eda:	e9 63 ff ff ff       	jmp    3e42 <grid_repaint+0x22>
    3edf:	90                   	nop

00003ee0 <deinit_grid>:
    3ee0:	55                   	push   %ebp
    3ee1:	89 e5                	mov    %esp,%ebp
    3ee3:	53                   	push   %ebx
    3ee4:	83 ec 14             	sub    $0x14,%esp
    3ee7:	8b 5d 08             	mov    0x8(%ebp),%ebx
    3eea:	89 1c 24             	mov    %ebx,(%esp)
    3eed:	e8 fe 02 00 00       	call   41f0 <widget_deinit>
    3ef2:	8b 43 64             	mov    0x64(%ebx),%eax
    3ef5:	89 45 08             	mov    %eax,0x8(%ebp)
    3ef8:	83 c4 14             	add    $0x14,%esp
    3efb:	5b                   	pop    %ebx
    3efc:	5d                   	pop    %ebp
    3efd:	e9 9e 41 01 00       	jmp    180a0 <free>
    3f02:	8d b4 26 00 00 00 00 	lea    0x0(%esi,%eiz,1),%esi
    3f09:	8d bc 27 00 00 00 00 	lea    0x0(%edi,%eiz,1),%edi

00003f10 <init_grid>:
    3f10:	55                   	push   %ebp
    3f11:	89 e5                	mov    %esp,%ebp
    3f13:	57                   	push   %edi
    3f14:	56                   	push   %esi
    3f15:	53                   	push   %ebx
    3f16:	83 ec 1c             	sub    $0x1c,%esp
    3f19:	8b 7d 10             	mov    0x10(%ebp),%edi
    3f1c:	8b 5d 08             	mov    0x8(%ebp),%ebx
    3f1f:	85 ff                	test   %edi,%edi
    3f21:	0f 84 bf 00 00 00    	je     3fe6 <init_grid+0xd6>
    3f27:	8b 75 14             	mov    0x14(%ebp),%esi
    3f2a:	85 f6                	test   %esi,%esi
    3f2c:	0f 84 98 00 00 00    	je     3fca <init_grid+0xba>
    3f32:	8b 75 10             	mov    0x10(%ebp),%esi
    3f35:	8b 4d 14             	mov    0x14(%ebp),%ecx
    3f38:	c1 e6 02             	shl    $0x2,%esi
    3f3b:	0f af f1             	imul   %ecx,%esi
    3f3e:	89 34 24             	mov    %esi,(%esp)
    3f41:	e8 4a 40 01 00       	call   17f90 <malloc>
    3f46:	89 c7                	mov    %eax,%edi
    3f48:	85 c0                	test   %eax,%eax
    3f4a:	74 74                	je     3fc0 <init_grid+0xb0>
    3f4c:	89 74 24 08          	mov    %esi,0x8(%esp)
    3f50:	c7 44 24 04 00 00 00 	movl   $0x0,0x4(%esp)
    3f57:	00 
    3f58:	89 04 24             	mov    %eax,(%esp)
    3f5b:	e8 00 6c 00 00       	call   ab60 <memset>
    3f60:	8b 45 0c             	mov    0xc(%ebp),%eax
    3f63:	89 44 24 04          	mov    %eax,0x4(%esp)
    3f67:	89 1c 24             	mov    %ebx,(%esp)
    3f6a:	e8 c1 01 00 00       	call   4130 <widget_init>
    3f6f:	8b 45 18             	mov    0x18(%ebp),%eax
    3f72:	89 43 58             	mov    %eax,0x58(%ebx)
    3f75:	8b 45 10             	mov    0x10(%ebp),%eax
    3f78:	89 43 5c             	mov    %eax,0x5c(%ebx)
    3f7b:	8b 45 14             	mov    0x14(%ebp),%eax
    3f7e:	89 43 60             	mov    %eax,0x60(%ebx)
    3f81:	c7 43 40 f0 3d 00 00 	movl   $0x3df0,0x40(%ebx)
    3f88:	c7 43 44 70 39 00 00 	movl   $0x3970,0x44(%ebx)
    3f8f:	c7 43 48 30 3b 00 00 	movl   $0x3b30,0x48(%ebx)
    3f96:	c7 43 4c 20 3e 00 00 	movl   $0x3e20,0x4c(%ebx)
    3f9d:	c7 43 50 80 39 00 00 	movl   $0x3980,0x50(%ebx)
    3fa4:	c7 43 54 90 39 00 00 	movl   $0x3990,0x54(%ebx)
    3fab:	c7 43 68 20 3a 00 00 	movl   $0x3a20,0x68(%ebx)
    3fb2:	89 7b 64             	mov    %edi,0x64(%ebx)
    3fb5:	83 c4 1c             	add    $0x1c,%esp
    3fb8:	b0 01                	mov    $0x1,%al
    3fba:	5b                   	pop    %ebx
    3fbb:	5e                   	pop    %esi
    3fbc:	5f                   	pop    %edi
    3fbd:	5d                   	pop    %ebp
    3fbe:	c3                   	ret    
    3fbf:	90                   	nop
    3fc0:	83 c4 1c             	add    $0x1c,%esp
    3fc3:	31 c0                	xor    %eax,%eax
    3fc5:	5b                   	pop    %ebx
    3fc6:	5e                   	pop    %esi
    3fc7:	5f                   	pop    %edi
    3fc8:	5d                   	pop    %ebp
    3fc9:	c3                   	ret    
    3fca:	c7 44 24 08 d5 00 00 	movl   $0xd5,0x8(%esp)
    3fd1:	00 
    3fd2:	c7 44 24 04 7a 4b 02 	movl   $0x24b7a,0x4(%esp)
    3fd9:	00 
    3fda:	c7 04 24 bc 4b 02 00 	movl   $0x24bbc,(%esp)
    3fe1:	e8 8a e8 01 00       	call   22870 <assert_abort>
    3fe6:	c7 44 24 08 d4 00 00 	movl   $0xd4,0x8(%esp)
    3fed:	00 
    3fee:	c7 44 24 04 7a 4b 02 	movl   $0x24b7a,0x4(%esp)
    3ff5:	00 
    3ff6:	c7 04 24 b3 4b 02 00 	movl   $0x24bb3,(%esp)
    3ffd:	e8 6e e8 01 00       	call   22870 <assert_abort>
    4002:	8d b4 26 00 00 00 00 	lea    0x0(%esi,%eiz,1),%esi
    4009:	8d bc 27 00 00 00 00 	lea    0x0(%edi,%eiz,1),%edi

00004010 <create_grid>:
    4010:	55                   	push   %ebp
    4011:	89 e5                	mov    %esp,%ebp
    4013:	57                   	push   %edi
    4014:	56                   	push   %esi
    4015:	53                   	push   %ebx
    4016:	83 ec 1c             	sub    $0x1c,%esp
    4019:	c7 04 24 6c 00 00 00 	movl   $0x6c,(%esp)
    4020:	e8 6b 3f 01 00       	call   17f90 <malloc>
    4025:	89 c3                	mov    %eax,%ebx
    4027:	85 c0                	test   %eax,%eax
    4029:	0f 84 99 00 00 00    	je     40c8 <create_grid+0xb8>
    402f:	8b 45 0c             	mov    0xc(%ebp),%eax
    4032:	85 c0                	test   %eax,%eax
    4034:	0f 84 ce 00 00 00    	je     4108 <create_grid+0xf8>
    403a:	8b 45 10             	mov    0x10(%ebp),%eax
    403d:	85 c0                	test   %eax,%eax
    403f:	0f 84 a7 00 00 00    	je     40ec <create_grid+0xdc>
    4045:	8b 75 0c             	mov    0xc(%ebp),%esi
    4048:	8b 45 10             	mov    0x10(%ebp),%eax
    404b:	c1 e6 02             	shl    $0x2,%esi
    404e:	0f af f0             	imul   %eax,%esi
    4051:	89 34 24             	mov    %esi,(%esp)
    4054:	e8 37 3f 01 00       	call   17f90 <malloc>
    4059:	89 c7                	mov    %eax,%edi
    405b:	85 c0                	test   %eax,%eax
    405d:	74 79                	je     40d8 <create_grid+0xc8>
    405f:	89 74 24 08          	mov    %esi,0x8(%esp)
    4063:	c7 44 24 04 00 00 00 	movl   $0x0,0x4(%esp)
    406a:	00 
    406b:	89 04 24             	mov    %eax,(%esp)
    406e:	e8 ed 6a 00 00       	call   ab60 <memset>
    4073:	8b 45 08             	mov    0x8(%ebp),%eax
    4076:	89 44 24 04          	mov    %eax,0x4(%esp)
    407a:	89 1c 24             	mov    %ebx,(%esp)
    407d:	e8 ae 00 00 00       	call   4130 <widget_init>
    4082:	8b 45 14             	mov    0x14(%ebp),%eax
    4085:	89 43 58             	mov    %eax,0x58(%ebx)
    4088:	8b 45 0c             	mov    0xc(%ebp),%eax
    408b:	89 43 5c             	mov    %eax,0x5c(%ebx)
    408e:	8b 45 10             	mov    0x10(%ebp),%eax
    4091:	c7 43 40 f0 3d 00 00 	movl   $0x3df0,0x40(%ebx)
    4098:	c7 43 44 70 39 00 00 	movl   $0x3970,0x44(%ebx)
    409f:	c7 43 48 30 3b 00 00 	movl   $0x3b30,0x48(%ebx)
    40a6:	c7 43 4c 20 3e 00 00 	movl   $0x3e20,0x4c(%ebx)
    40ad:	c7 43 50 80 39 00 00 	movl   $0x3980,0x50(%ebx)
    40b4:	c7 43 54 90 39 00 00 	movl   $0x3990,0x54(%ebx)
    40bb:	c7 43 68 20 3a 00 00 	movl   $0x3a20,0x68(%ebx)
    40c2:	89 43 60             	mov    %eax,0x60(%ebx)
    40c5:	89 7b 64             	mov    %edi,0x64(%ebx)
    40c8:	83 c4 1c             	add    $0x1c,%esp
    40cb:	89 d8                	mov    %ebx,%eax
    40cd:	5b                   	pop    %ebx
    40ce:	5e                   	pop    %esi
    40cf:	5f                   	pop    %edi
    40d0:	5d                   	pop    %ebp
    40d1:	c3                   	ret    
    40d2:	8d b6 00 00 00 00    	lea    0x0(%esi),%esi
    40d8:	89 1c 24             	mov    %ebx,(%esp)
    40db:	31 db                	xor    %ebx,%ebx
    40dd:	e8 be 3f 01 00       	call   180a0 <free>
    40e2:	83 c4 1c             	add    $0x1c,%esp
    40e5:	89 d8                	mov    %ebx,%eax
    40e7:	5b                   	pop    %ebx
    40e8:	5e                   	pop    %esi
    40e9:	5f                   	pop    %edi
    40ea:	5d                   	pop    %ebp
    40eb:	c3                   	ret    
    40ec:	c7 44 24 08 d5 00 00 	movl   $0xd5,0x8(%esp)
    40f3:	00 
    40f4:	c7 44 24 04 7a 4b 02 	movl   $0x24b7a,0x4(%esp)
    40fb:	00 
    40fc:	c7 04 24 bc 4b 02 00 	movl   $0x24bbc,(%esp)
    4103:	e8 68 e7 01 00       	call   22870 <assert_abort>
    4108:	c7 44 24 08 d4 00 00 	movl   $0xd4,0x8(%esp)
    410f:	00 
    4110:	c7 44 24 04 7a 4b 02 	movl   $0x24b7a,0x4(%esp)
    4117:	00 
    4118:	c7 04 24 b3 4b 02 00 	movl   $0x24bb3,(%esp)
    411f:	e8 4c e7 01 00       	call   22870 <assert_abort>
    4124:	66 90                	xchg   %ax,%ax
    4126:	66 90                	xchg   %ax,%ax
    4128:	66 90                	xchg   %ax,%ax
    412a:	66 90                	xchg   %ax,%ax
    412c:	66 90                	xchg   %ax,%ax
    412e:	66 90                	xchg   %ax,%ax

00004130 <widget_init>:
    4130:	55                   	push   %ebp
    4131:	89 e5                	mov    %esp,%ebp
    4133:	8b 45 08             	mov    0x8(%ebp),%eax
    4136:	8b 55 0c             	mov    0xc(%ebp),%edx
    4139:	85 d2                	test   %edx,%edx
    413b:	8d 48 0c             	lea    0xc(%eax),%ecx
    413e:	c7 00 00 00 00 00    	movl   $0x0,(%eax)
    4144:	c7 40 04 00 00 00 00 	movl   $0x0,0x4(%eax)
    414b:	89 48 0c             	mov    %ecx,0xc(%eax)
    414e:	89 48 10             	mov    %ecx,0x10(%eax)
    4151:	74 65                	je     41b8 <widget_init+0x88>
    4153:	8d 4a 0c             	lea    0xc(%edx),%ecx
    4156:	89 50 08             	mov    %edx,0x8(%eax)
    4159:	89 48 04             	mov    %ecx,0x4(%eax)
    415c:	8b 4a 0c             	mov    0xc(%edx),%ecx
    415f:	89 08                	mov    %ecx,(%eax)
    4161:	8b 4a 0c             	mov    0xc(%edx),%ecx
    4164:	89 42 0c             	mov    %eax,0xc(%edx)
    4167:	8b 52 14             	mov    0x14(%edx),%edx
    416a:	89 41 04             	mov    %eax,0x4(%ecx)
    416d:	89 50 14             	mov    %edx,0x14(%eax)
    4170:	c7 40 18 00 00 00 00 	movl   $0x0,0x18(%eax)
    4177:	c7 40 1c 00 00 00 00 	movl   $0x0,0x1c(%eax)
    417e:	c7 40 20 00 00 00 00 	movl   $0x0,0x20(%eax)
    4185:	c7 40 24 00 00 00 00 	movl   $0x0,0x24(%eax)
    418c:	c7 40 28 00 00 00 00 	movl   $0x0,0x28(%eax)
    4193:	c7 40 2c 00 00 00 00 	movl   $0x0,0x2c(%eax)
    419a:	c7 40 30 00 00 00 00 	movl   $0x0,0x30(%eax)
    41a1:	c7 40 34 00 00 00 00 	movl   $0x0,0x34(%eax)
    41a8:	c7 40 38 ff ff ff ff 	movl   $0xffffffff,0x38(%eax)
    41af:	c7 40 3c ff ff ff ff 	movl   $0xffffffff,0x3c(%eax)
    41b6:	5d                   	pop    %ebp
    41b7:	c3                   	ret    
    41b8:	c7 40 08 00 00 00 00 	movl   $0x0,0x8(%eax)
    41bf:	c7 40 14 00 00 00 00 	movl   $0x0,0x14(%eax)
    41c6:	eb a8                	jmp    4170 <widget_init+0x40>
    41c8:	90                   	nop
    41c9:	8d b4 26 00 00 00 00 	lea    0x0(%esi,%eiz,1),%esi

000041d0 <widget_modify>:
    41d0:	55                   	push   %ebp
    41d1:	89 e5                	mov    %esp,%ebp
    41d3:	8b 45 08             	mov    0x8(%ebp),%eax
    41d6:	8b 55 0c             	mov    0xc(%ebp),%edx
    41d9:	89 50 18             	mov    %edx,0x18(%eax)
    41dc:	8b 55 10             	mov    0x10(%ebp),%edx
    41df:	89 50 1c             	mov    %edx,0x1c(%eax)
    41e2:	8b 55 14             	mov    0x14(%ebp),%edx
    41e5:	89 50 20             	mov    %edx,0x20(%eax)
    41e8:	8b 55 18             	mov    0x18(%ebp),%edx
    41eb:	89 50 24             	mov    %edx,0x24(%eax)
    41ee:	5d                   	pop    %ebp
    41ef:	c3                   	ret    

000041f0 <widget_deinit>:
    41f0:	55                   	push   %ebp
    41f1:	89 e5                	mov    %esp,%ebp
    41f3:	8b 45 08             	mov    0x8(%ebp),%eax
    41f6:	8b 50 08             	mov    0x8(%eax),%edx
    41f9:	85 d2                	test   %edx,%edx
    41fb:	74 21                	je     421e <widget_deinit+0x2e>
    41fd:	8b 08                	mov    (%eax),%ecx
    41ff:	85 c9                	test   %ecx,%ecx
    4201:	74 0e                	je     4211 <widget_deinit+0x21>
    4203:	8b 50 04             	mov    0x4(%eax),%edx
    4206:	85 d2                	test   %edx,%edx
    4208:	74 07                	je     4211 <widget_deinit+0x21>
    420a:	89 0a                	mov    %ecx,(%edx)
    420c:	8b 08                	mov    (%eax),%ecx
    420e:	89 51 04             	mov    %edx,0x4(%ecx)
    4211:	c7 00 00 00 00 00    	movl   $0x0,(%eax)
    4217:	c7 40 04 00 00 00 00 	movl   $0x0,0x4(%eax)
    421e:	5d                   	pop    %ebp
    421f:	c3                   	ret    

00004220 <root_handle_keyboard_event>:
    4220:	55                   	push   %ebp
    4221:	89 e5                	mov    %esp,%ebp
    4223:	57                   	push   %edi
    4224:	56                   	push   %esi
    4225:	8b 55 08             	mov    0x8(%ebp),%edx
    4228:	8b 42 10             	mov    0x10(%edx),%eax
    422b:	83 c2 0c             	add    $0xc,%edx
    422e:	39 d0                	cmp    %edx,%eax
    4230:	74 1e                	je     4250 <root_handle_keyboard_event+0x30>
    4232:	8d 7d 0c             	lea    0xc(%ebp),%edi
    4235:	b9 06 00 00 00       	mov    $0x6,%ecx
    423a:	89 fe                	mov    %edi,%esi
    423c:	f3 a5                	rep movsl %ds:(%esi),%es:(%edi)
    423e:	89 45 08             	mov    %eax,0x8(%ebp)
    4241:	5e                   	pop    %esi
    4242:	8b 40 50             	mov    0x50(%eax),%eax
    4245:	5f                   	pop    %edi
    4246:	5d                   	pop    %ebp
    4247:	ff e0                	jmp    *%eax
    4249:	8d b4 26 00 00 00 00 	lea    0x0(%esi,%eiz,1),%esi
    4250:	5e                   	pop    %esi
    4251:	5f                   	pop    %edi
    4252:	5d                   	pop    %ebp
    4253:	c3                   	ret    
    4254:	8d b6 00 00 00 00    	lea    0x0(%esi),%esi
    425a:	8d bf 00 00 00 00    	lea    0x0(%edi),%edi

00004260 <fetch_input>:
    4260:	55                   	push   %ebp
    4261:	89 e5                	mov    %esp,%ebp
    4263:	57                   	push   %edi
    4264:	56                   	push   %esi
    4265:	53                   	push   %ebx
    4266:	83 ec 2c             	sub    $0x2c,%esp
    4269:	8b 5d 08             	mov    0x8(%ebp),%ebx
    426c:	8d 43 10             	lea    0x10(%ebx),%eax
    426f:	89 45 e4             	mov    %eax,-0x1c(%ebp)
    4272:	c7 04 24 24 00 00 00 	movl   $0x24,(%esp)
    4279:	e8 12 3d 01 00       	call   17f90 <malloc>
    427e:	89 c7                	mov    %eax,%edi
    4280:	85 c0                	test   %eax,%eax
    4282:	74 44                	je     42c8 <fetch_input+0x68>
    4284:	89 44 24 04          	mov    %eax,0x4(%esp)
    4288:	8b 43 08             	mov    0x8(%ebx),%eax
    428b:	89 04 24             	mov    %eax,(%esp)
    428e:	e8 4d 17 01 00       	call   159e0 <win_get_event>
    4293:	85 c0                	test   %eax,%eax
    4295:	75 29                	jne    42c0 <fetch_input+0x60>
    4297:	8b 45 e4             	mov    -0x1c(%ebp),%eax
    429a:	8b 77 08             	mov    0x8(%edi),%esi
    429d:	89 7c 24 04          	mov    %edi,0x4(%esp)
    42a1:	89 04 24             	mov    %eax,(%esp)
    42a4:	c7 07 00 00 00 00    	movl   $0x0,(%edi)
    42aa:	c7 47 04 00 00 00 00 	movl   $0x0,0x4(%edi)
    42b1:	e8 6a a4 01 00       	call   1e720 <prodcons_produce>
    42b6:	83 fe 08             	cmp    $0x8,%esi
    42b9:	75 b7                	jne    4272 <fetch_input+0x12>
    42bb:	eb 0b                	jmp    42c8 <fetch_input+0x68>
    42bd:	8d 76 00             	lea    0x0(%esi),%esi
    42c0:	89 3c 24             	mov    %edi,(%esp)
    42c3:	e8 d8 3d 01 00       	call   180a0 <free>
    42c8:	83 c4 2c             	add    $0x2c,%esp
    42cb:	31 c0                	xor    %eax,%eax
    42cd:	5b                   	pop    %ebx
    42ce:	5e                   	pop    %esi
    42cf:	5f                   	pop    %edi
    42d0:	5d                   	pop    %ebp
    42d1:	c3                   	ret    
    42d2:	8d b4 26 00 00 00 00 	lea    0x0(%esi,%eiz,1),%esi
    42d9:	8d bc 27 00 00 00 00 	lea    0x0(%edi,%eiz,1),%edi

000042e0 <root_handle_position_event>:
    42e0:	55                   	push   %ebp
    42e1:	89 e5                	mov    %esp,%ebp
    42e3:	57                   	push   %edi
    42e4:	56                   	push   %esi
    42e5:	53                   	push   %ebx
    42e6:	83 ec 4c             	sub    $0x4c,%esp
    42e9:	8b 45 08             	mov    0x8(%ebp),%eax
    42ec:	8b 55 0c             	mov    0xc(%ebp),%edx
    42ef:	8b 5d 10             	mov    0x10(%ebp),%ebx
    42f2:	89 55 e4             	mov    %edx,-0x1c(%ebp)
    42f5:	8b 48 14             	mov    0x14(%eax),%ecx
    42f8:	89 5d e0             	mov    %ebx,-0x20(%ebp)
    42fb:	8b 55 14             	mov    0x14(%ebp),%edx
    42fe:	8b 75 18             	mov    0x18(%ebp),%esi
    4301:	8b 7d 1c             	mov    0x1c(%ebp),%edi
    4304:	80 79 01 00          	cmpb   $0x0,0x1(%ecx)
    4308:	0f 84 aa 00 00 00    	je     43b8 <root_handle_position_event+0xd8>
    430e:	8b 58 20             	mov    0x20(%eax),%ebx
    4311:	83 fa 01             	cmp    $0x1,%edx
    4314:	89 5d d4             	mov    %ebx,-0x2c(%ebp)
    4317:	8b 58 24             	mov    0x24(%eax),%ebx
    431a:	89 5d c8             	mov    %ebx,-0x38(%ebp)
    431d:	0f 84 c5 01 00 00    	je     44e8 <root_handle_position_event+0x208>
    4323:	83 fa 02             	cmp    $0x2,%edx
    4326:	0f 84 2c 02 00 00    	je     4558 <root_handle_position_event+0x278>
    432c:	c6 45 dc 00          	movb   $0x0,-0x24(%ebp)
    4330:	c6 45 d2 00          	movb   $0x0,-0x2e(%ebp)
    4334:	8b 5d d4             	mov    -0x2c(%ebp),%ebx
    4337:	83 fe 04             	cmp    $0x4,%esi
    433a:	0f 96 45 d1          	setbe  -0x2f(%ebp)
    433e:	83 eb 05             	sub    $0x5,%ebx
    4341:	39 f3                	cmp    %esi,%ebx
    4343:	89 5d d8             	mov    %ebx,-0x28(%ebp)
    4346:	8b 5d c8             	mov    -0x38(%ebp),%ebx
    4349:	0f 96 45 d0          	setbe  -0x30(%ebp)
    434d:	83 ff 04             	cmp    $0x4,%edi
    4350:	0f 96 45 d3          	setbe  -0x2d(%ebp)
    4354:	83 eb 05             	sub    $0x5,%ebx
    4357:	39 fb                	cmp    %edi,%ebx
    4359:	0f 96 45 c8          	setbe  -0x38(%ebp)
    435d:	83 fe 04             	cmp    $0x4,%esi
    4360:	76 09                	jbe    436b <root_handle_position_event+0x8b>
    4362:	39 75 d8             	cmp    %esi,-0x28(%ebp)
    4365:	0f 87 95 01 00 00    	ja     4500 <root_handle_position_event+0x220>
    436b:	c6 45 d8 00          	movb   $0x0,-0x28(%ebp)
    436f:	c6 45 d4 00          	movb   $0x0,-0x2c(%ebp)
    4373:	80 7d d3 00          	cmpb   $0x0,-0x2d(%ebp)
    4377:	0f 84 9b 00 00 00    	je     4418 <root_handle_position_event+0x138>
    437d:	80 7d d1 00          	cmpb   $0x0,-0x2f(%ebp)
    4381:	0f 84 91 00 00 00    	je     4418 <root_handle_position_event+0x138>
    4387:	80 7d dc 00          	cmpb   $0x0,-0x24(%ebp)
    438b:	0f 84 21 02 00 00    	je     45b2 <root_handle_position_event+0x2d2>
    4391:	80 7d d2 01          	cmpb   $0x1,-0x2e(%ebp)
    4395:	19 c0                	sbb    %eax,%eax
    4397:	83 e0 24             	and    $0x24,%eax
    439a:	83 c0 0f             	add    $0xf,%eax
    439d:	89 45 10             	mov    %eax,0x10(%ebp)
    43a0:	8b 45 e4             	mov    -0x1c(%ebp),%eax
    43a3:	89 45 0c             	mov    %eax,0xc(%ebp)
    43a6:	8b 41 0c             	mov    0xc(%ecx),%eax
    43a9:	89 45 08             	mov    %eax,0x8(%ebp)
    43ac:	83 c4 4c             	add    $0x4c,%esp
    43af:	5b                   	pop    %ebx
    43b0:	5e                   	pop    %esi
    43b1:	5f                   	pop    %edi
    43b2:	5d                   	pop    %ebp
    43b3:	e9 48 17 01 00       	jmp    15b00 <win_grab>
    43b8:	8b 58 10             	mov    0x10(%eax),%ebx
    43bb:	83 c0 0c             	add    $0xc,%eax
    43be:	89 45 dc             	mov    %eax,-0x24(%ebp)
    43c1:	39 d8                	cmp    %ebx,%eax
    43c3:	74 48                	je     440d <root_handle_position_event+0x12d>
    43c5:	8d 76 00             	lea    0x0(%esi),%esi
    43c8:	8b 45 e4             	mov    -0x1c(%ebp),%eax
    43cb:	8b 4b 54             	mov    0x54(%ebx),%ecx
    43ce:	89 45 0c             	mov    %eax,0xc(%ebp)
    43d1:	8b 45 e0             	mov    -0x20(%ebp),%eax
    43d4:	89 45 10             	mov    %eax,0x10(%ebp)
    43d7:	8b 45 e4             	mov    -0x1c(%ebp),%eax
    43da:	89 44 24 04          	mov    %eax,0x4(%esp)
    43de:	8b 45 e0             	mov    -0x20(%ebp),%eax
    43e1:	89 54 24 0c          	mov    %edx,0xc(%esp)
    43e5:	89 1c 24             	mov    %ebx,(%esp)
    43e8:	89 55 cc             	mov    %edx,-0x34(%ebp)
    43eb:	89 44 24 08          	mov    %eax,0x8(%esp)
    43ef:	89 74 24 10          	mov    %esi,0x10(%esp)
    43f3:	89 7c 24 14          	mov    %edi,0x14(%esp)
    43f7:	89 55 14             	mov    %edx,0x14(%ebp)
    43fa:	89 75 18             	mov    %esi,0x18(%ebp)
    43fd:	89 7d 1c             	mov    %edi,0x1c(%ebp)
    4400:	ff d1                	call   *%ecx
    4402:	8b 5b 04             	mov    0x4(%ebx),%ebx
    4405:	8b 55 cc             	mov    -0x34(%ebp),%edx
    4408:	39 5d dc             	cmp    %ebx,-0x24(%ebp)
    440b:	75 bb                	jne    43c8 <root_handle_position_event+0xe8>
    440d:	83 c4 4c             	add    $0x4c,%esp
    4410:	5b                   	pop    %ebx
    4411:	5e                   	pop    %esi
    4412:	5f                   	pop    %edi
    4413:	5d                   	pop    %ebp
    4414:	c3                   	ret    
    4415:	8d 76 00             	lea    0x0(%esi),%esi
    4418:	80 7d c8 00          	cmpb   $0x0,-0x38(%ebp)
    441c:	75 3a                	jne    4458 <root_handle_position_event+0x178>
    441e:	80 7d d0 00          	cmpb   $0x0,-0x30(%ebp)
    4422:	74 0a                	je     442e <root_handle_position_event+0x14e>
    4424:	80 7d d3 00          	cmpb   $0x0,-0x2d(%ebp)
    4428:	0f 85 42 01 00 00    	jne    4570 <root_handle_position_event+0x290>
    442e:	80 7d dc 00          	cmpb   $0x0,-0x24(%ebp)
    4432:	74 3e                	je     4472 <root_handle_position_event+0x192>
    4434:	80 7d d3 00          	cmpb   $0x0,-0x2d(%ebp)
    4438:	0f 84 ad 01 00 00    	je     45eb <root_handle_position_event+0x30b>
    443e:	80 7d d2 01          	cmpb   $0x1,-0x2e(%ebp)
    4442:	19 c0                	sbb    %eax,%eax
    4444:	8b 55 e4             	mov    -0x1c(%ebp),%edx
    4447:	83 e0 18             	and    $0x18,%eax
    444a:	89 55 0c             	mov    %edx,0xc(%ebp)
    444d:	83 c0 0a             	add    $0xa,%eax
    4450:	89 45 10             	mov    %eax,0x10(%ebp)
    4453:	e9 4e ff ff ff       	jmp    43a6 <root_handle_position_event+0xc6>
    4458:	80 7d d1 00          	cmpb   $0x0,-0x2f(%ebp)
    445c:	0f 85 ce 00 00 00    	jne    4530 <root_handle_position_event+0x250>
    4462:	80 7d d0 00          	cmpb   $0x0,-0x30(%ebp)
    4466:	74 c6                	je     442e <root_handle_position_event+0x14e>
    4468:	80 7d dc 00          	cmpb   $0x0,-0x24(%ebp)
    446c:	0f 85 26 01 00 00    	jne    4598 <root_handle_position_event+0x2b8>
    4472:	80 7d d4 00          	cmpb   $0x0,-0x2c(%ebp)
    4476:	0f 85 4c 01 00 00    	jne    45c8 <root_handle_position_event+0x2e8>
    447c:	80 7d d8 00          	cmpb   $0x0,-0x28(%ebp)
    4480:	0f 85 5c 01 00 00    	jne    45e2 <root_handle_position_event+0x302>
    4486:	8b 58 10             	mov    0x10(%eax),%ebx
    4489:	83 c0 0c             	add    $0xc,%eax
    448c:	89 45 dc             	mov    %eax,-0x24(%ebp)
    448f:	39 d8                	cmp    %ebx,%eax
    4491:	0f 84 76 ff ff ff    	je     440d <root_handle_position_event+0x12d>
    4497:	90                   	nop
    4498:	8b 45 e4             	mov    -0x1c(%ebp),%eax
    449b:	8b 4b 54             	mov    0x54(%ebx),%ecx
    449e:	89 45 0c             	mov    %eax,0xc(%ebp)
    44a1:	8b 45 e0             	mov    -0x20(%ebp),%eax
    44a4:	89 45 10             	mov    %eax,0x10(%ebp)
    44a7:	8b 45 e4             	mov    -0x1c(%ebp),%eax
    44aa:	89 44 24 04          	mov    %eax,0x4(%esp)
    44ae:	8b 45 e0             	mov    -0x20(%ebp),%eax
    44b1:	89 54 24 0c          	mov    %edx,0xc(%esp)
    44b5:	89 1c 24             	mov    %ebx,(%esp)
    44b8:	89 55 cc             	mov    %edx,-0x34(%ebp)
    44bb:	89 44 24 08          	mov    %eax,0x8(%esp)
    44bf:	89 74 24 10          	mov    %esi,0x10(%esp)
    44c3:	89 7c 24 14          	mov    %edi,0x14(%esp)
    44c7:	89 55 14             	mov    %edx,0x14(%ebp)
    44ca:	89 75 18             	mov    %esi,0x18(%ebp)
    44cd:	89 7d 1c             	mov    %edi,0x1c(%ebp)
    44d0:	ff d1                	call   *%ecx
    44d2:	8b 5b 04             	mov    0x4(%ebx),%ebx
    44d5:	8b 55 cc             	mov    -0x34(%ebp),%edx
    44d8:	39 5d dc             	cmp    %ebx,-0x24(%ebp)
    44db:	75 bb                	jne    4498 <root_handle_position_event+0x1b8>
    44dd:	e9 2b ff ff ff       	jmp    440d <root_handle_position_event+0x12d>
    44e2:	8d b6 00 00 00 00    	lea    0x0(%esi),%esi
    44e8:	83 7d e0 01          	cmpl   $0x1,-0x20(%ebp)
    44ec:	0f 94 45 dc          	sete   -0x24(%ebp)
    44f0:	8a 5d dc             	mov    -0x24(%ebp),%bl
    44f3:	88 5d d2             	mov    %bl,-0x2e(%ebp)
    44f6:	e9 39 fe ff ff       	jmp    4334 <root_handle_position_event+0x54>
    44fb:	90                   	nop
    44fc:	8d 74 26 00          	lea    0x0(%esi,%eiz,1),%esi
    4500:	83 ff 04             	cmp    $0x4,%edi
    4503:	0f 86 62 fe ff ff    	jbe    436b <root_handle_position_event+0x8b>
    4509:	83 ff 18             	cmp    $0x18,%edi
    450c:	0f 87 59 fe ff ff    	ja     436b <root_handle_position_event+0x8b>
    4512:	8b 5d d4             	mov    -0x2c(%ebp),%ebx
    4515:	83 eb 19             	sub    $0x19,%ebx
    4518:	39 f3                	cmp    %esi,%ebx
    451a:	8a 5d d2             	mov    -0x2e(%ebp),%bl
    451d:	88 5d d8             	mov    %bl,-0x28(%ebp)
    4520:	0f 86 b4 00 00 00    	jbe    45da <root_handle_position_event+0x2fa>
    4526:	c6 45 d4 00          	movb   $0x0,-0x2c(%ebp)
    452a:	e9 44 fe ff ff       	jmp    4373 <root_handle_position_event+0x93>
    452f:	90                   	nop
    4530:	80 7d dc 00          	cmpb   $0x0,-0x24(%ebp)
    4534:	0f 84 38 ff ff ff    	je     4472 <root_handle_position_event+0x192>
    453a:	80 7d d2 01          	cmpb   $0x1,-0x2e(%ebp)
    453e:	19 c0                	sbb    %eax,%eax
    4540:	8b 55 e4             	mov    -0x1c(%ebp),%edx
    4543:	83 e0 24             	and    $0x24,%eax
    4546:	89 55 0c             	mov    %edx,0xc(%ebp)
    4549:	83 c0 0d             	add    $0xd,%eax
    454c:	89 45 10             	mov    %eax,0x10(%ebp)
    454f:	e9 52 fe ff ff       	jmp    43a6 <root_handle_position_event+0xc6>
    4554:	8d 74 26 00          	lea    0x0(%esi,%eiz,1),%esi
    4558:	83 7d e0 01          	cmpl   $0x1,-0x20(%ebp)
    455c:	0f 94 45 dc          	sete   -0x24(%ebp)
    4560:	c6 45 d2 00          	movb   $0x0,-0x2e(%ebp)
    4564:	e9 cb fd ff ff       	jmp    4334 <root_handle_position_event+0x54>
    4569:	8d b4 26 00 00 00 00 	lea    0x0(%esi,%eiz,1),%esi
    4570:	80 7d dc 00          	cmpb   $0x0,-0x24(%ebp)
    4574:	0f 84 f8 fe ff ff    	je     4472 <root_handle_position_event+0x192>
    457a:	80 7d d2 01          	cmpb   $0x1,-0x2e(%ebp)
    457e:	19 c0                	sbb    %eax,%eax
    4580:	83 e0 24             	and    $0x24,%eax
    4583:	83 c0 0e             	add    $0xe,%eax
    4586:	89 45 10             	mov    %eax,0x10(%ebp)
    4589:	8b 45 e4             	mov    -0x1c(%ebp),%eax
    458c:	89 45 0c             	mov    %eax,0xc(%ebp)
    458f:	e9 12 fe ff ff       	jmp    43a6 <root_handle_position_event+0xc6>
    4594:	8d 74 26 00          	lea    0x0(%esi,%eiz,1),%esi
    4598:	80 7d d2 01          	cmpb   $0x1,-0x2e(%ebp)
    459c:	19 c0                	sbb    %eax,%eax
    459e:	83 e0 24             	and    $0x24,%eax
    45a1:	83 c0 0c             	add    $0xc,%eax
    45a4:	89 45 10             	mov    %eax,0x10(%ebp)
    45a7:	8b 5d e4             	mov    -0x1c(%ebp),%ebx
    45aa:	89 5d 0c             	mov    %ebx,0xc(%ebp)
    45ad:	e9 f4 fd ff ff       	jmp    43a6 <root_handle_position_event+0xc6>
    45b2:	80 7d c8 00          	cmpb   $0x0,-0x38(%ebp)
    45b6:	0f 84 62 fe ff ff    	je     441e <root_handle_position_event+0x13e>
    45bc:	e9 b1 fe ff ff       	jmp    4472 <root_handle_position_event+0x192>
    45c1:	8d b4 26 00 00 00 00 	lea    0x0(%esi,%eiz,1),%esi
    45c8:	8b 41 0c             	mov    0xc(%ecx),%eax
    45cb:	89 45 08             	mov    %eax,0x8(%ebp)
    45ce:	83 c4 4c             	add    $0x4c,%esp
    45d1:	5b                   	pop    %ebx
    45d2:	5e                   	pop    %esi
    45d3:	5f                   	pop    %edi
    45d4:	5d                   	pop    %ebp
    45d5:	e9 c6 16 01 00       	jmp    15ca0 <win_close_request>
    45da:	88 5d d4             	mov    %bl,-0x2c(%ebp)
    45dd:	e9 91 fd ff ff       	jmp    4373 <root_handle_position_event+0x93>
    45e2:	c7 45 10 03 00 00 00 	movl   $0x3,0x10(%ebp)
    45e9:	eb bc                	jmp    45a7 <root_handle_position_event+0x2c7>
    45eb:	80 7d d1 00          	cmpb   $0x0,-0x2f(%ebp)
    45ef:	74 11                	je     4602 <root_handle_position_event+0x322>
    45f1:	80 7d d2 01          	cmpb   $0x1,-0x2e(%ebp)
    45f5:	19 c0                	sbb    %eax,%eax
    45f7:	83 e0 0c             	and    $0xc,%eax
    45fa:	83 c0 05             	add    $0x5,%eax
    45fd:	89 45 10             	mov    %eax,0x10(%ebp)
    4600:	eb a5                	jmp    45a7 <root_handle_position_event+0x2c7>
    4602:	80 7d c8 00          	cmpb   $0x0,-0x38(%ebp)
    4606:	75 24                	jne    462c <root_handle_position_event+0x34c>
    4608:	80 7d d0 00          	cmpb   $0x0,-0x30(%ebp)
    460c:	0f 84 60 fe ff ff    	je     4472 <root_handle_position_event+0x192>
    4612:	80 7d d2 01          	cmpb   $0x1,-0x2e(%ebp)
    4616:	19 c0                	sbb    %eax,%eax
    4618:	8b 55 e4             	mov    -0x1c(%ebp),%edx
    461b:	83 e0 0c             	and    $0xc,%eax
    461e:	89 55 0c             	mov    %edx,0xc(%ebp)
    4621:	83 c0 04             	add    $0x4,%eax
    4624:	89 45 10             	mov    %eax,0x10(%ebp)
    4627:	e9 7a fd ff ff       	jmp    43a6 <root_handle_position_event+0xc6>
    462c:	80 7d d2 01          	cmpb   $0x1,-0x2e(%ebp)
    4630:	19 c0                	sbb    %eax,%eax
    4632:	83 e0 18             	and    $0x18,%eax
    4635:	83 c0 08             	add    $0x8,%eax
    4638:	89 45 10             	mov    %eax,0x10(%ebp)
    463b:	8b 45 e4             	mov    -0x1c(%ebp),%eax
    463e:	89 45 0c             	mov    %eax,0xc(%ebp)
    4641:	e9 60 fd ff ff       	jmp    43a6 <root_handle_position_event+0xc6>
    4646:	8d 76 00             	lea    0x0(%esi),%esi
    4649:	8d bc 27 00 00 00 00 	lea    0x0(%edi,%eiz,1),%edi

00004650 <root_destroy>:
    4650:	55                   	push   %ebp
    4651:	89 e5                	mov    %esp,%ebp
    4653:	5d                   	pop    %ebp
    4654:	e9 97 fb ff ff       	jmp    41f0 <widget_deinit>
    4659:	8d b4 26 00 00 00 00 	lea    0x0(%esi,%eiz,1),%esi

00004660 <root_reconfigure>:
    4660:	55                   	push   %ebp
    4661:	89 e5                	mov    %esp,%ebp
    4663:	57                   	push   %edi
    4664:	56                   	push   %esi
    4665:	53                   	push   %ebx
    4666:	83 ec 2c             	sub    $0x2c,%esp
    4669:	8b 5d 08             	mov    0x8(%ebp),%ebx
    466c:	8b 43 14             	mov    0x14(%ebx),%eax
    466f:	8b 73 10             	mov    0x10(%ebx),%esi
    4672:	8d 7b 0c             	lea    0xc(%ebx),%edi
    4675:	80 78 01 00          	cmpb   $0x0,0x1(%eax)
    4679:	74 6a                	je     46e5 <root_reconfigure+0x85>
    467b:	39 fe                	cmp    %edi,%esi
    467d:	74 36                	je     46b5 <root_reconfigure+0x55>
    467f:	90                   	nop
    4680:	8b 43 24             	mov    0x24(%ebx),%eax
    4683:	83 e8 1e             	sub    $0x1e,%eax
    4686:	89 44 24 10          	mov    %eax,0x10(%esp)
    468a:	8b 43 20             	mov    0x20(%ebx),%eax
    468d:	83 e8 0a             	sub    $0xa,%eax
    4690:	89 44 24 0c          	mov    %eax,0xc(%esp)
    4694:	8b 43 1c             	mov    0x1c(%ebx),%eax
    4697:	83 c0 19             	add    $0x19,%eax
    469a:	89 44 24 08          	mov    %eax,0x8(%esp)
    469e:	8b 43 18             	mov    0x18(%ebx),%eax
    46a1:	89 34 24             	mov    %esi,(%esp)
    46a4:	83 c0 05             	add    $0x5,%eax
    46a7:	89 44 24 04          	mov    %eax,0x4(%esp)
    46ab:	ff 56 48             	call   *0x48(%esi)
    46ae:	8b 76 04             	mov    0x4(%esi),%esi
    46b1:	39 f7                	cmp    %esi,%edi
    46b3:	75 cb                	jne    4680 <root_reconfigure+0x20>
    46b5:	83 c4 2c             	add    $0x2c,%esp
    46b8:	5b                   	pop    %ebx
    46b9:	5e                   	pop    %esi
    46ba:	5f                   	pop    %edi
    46bb:	5d                   	pop    %ebp
    46bc:	c3                   	ret    
    46bd:	8d 76 00             	lea    0x0(%esi),%esi
    46c0:	8b 43 24             	mov    0x24(%ebx),%eax
    46c3:	89 44 24 10          	mov    %eax,0x10(%esp)
    46c7:	8b 43 20             	mov    0x20(%ebx),%eax
    46ca:	89 44 24 0c          	mov    %eax,0xc(%esp)
    46ce:	8b 43 1c             	mov    0x1c(%ebx),%eax
    46d1:	89 44 24 08          	mov    %eax,0x8(%esp)
    46d5:	8b 43 18             	mov    0x18(%ebx),%eax
    46d8:	89 34 24             	mov    %esi,(%esp)
    46db:	89 44 24 04          	mov    %eax,0x4(%esp)
    46df:	ff 56 48             	call   *0x48(%esi)
    46e2:	8b 76 04             	mov    0x4(%esi),%esi
    46e5:	39 fe                	cmp    %edi,%esi
    46e7:	75 d7                	jne    46c0 <root_reconfigure+0x60>
    46e9:	83 c4 2c             	add    $0x2c,%esp
    46ec:	5b                   	pop    %ebx
    46ed:	5e                   	pop    %esi
    46ee:	5f                   	pop    %edi
    46ef:	5d                   	pop    %ebp
    46f0:	c3                   	ret    
    46f1:	eb 0d                	jmp    4700 <paint_internal>
    46f3:	90                   	nop
    46f4:	90                   	nop
    46f5:	90                   	nop
    46f6:	90                   	nop
    46f7:	90                   	nop
    46f8:	90                   	nop
    46f9:	90                   	nop
    46fa:	90                   	nop
    46fb:	90                   	nop
    46fc:	90                   	nop
    46fd:	90                   	nop
    46fe:	90                   	nop
    46ff:	90                   	nop

00004700 <paint_internal>:
    4700:	55                   	push   %ebp
    4701:	89 e5                	mov    %esp,%ebp
    4703:	57                   	push   %edi
    4704:	56                   	push   %esi
    4705:	53                   	push   %ebx
    4706:	81 ec fc 00 00 00    	sub    $0xfc,%esp
    470c:	89 c6                	mov    %eax,%esi
    470e:	8b 58 14             	mov    0x14(%eax),%ebx
    4711:	8d 93 90 00 00 00    	lea    0x90(%ebx),%edx
    4717:	89 14 24             	mov    %edx,(%esp)
    471a:	e8 a1 a6 00 00       	call   edc0 <fibril_mutex_lock>
    471f:	8b 9b a0 00 00 00    	mov    0xa0(%ebx),%ebx
    4725:	85 db                	test   %ebx,%ebx
    4727:	0f 84 ab 02 00 00    	je     49d8 <paint_internal+0x2d8>
    472d:	8d 7d 84             	lea    -0x7c(%ebp),%edi
    4730:	89 3c 24             	mov    %edi,(%esp)
    4733:	e8 58 18 00 00       	call   5f90 <source_init>
    4738:	8d 85 3c ff ff ff    	lea    -0xc4(%ebp),%eax
    473e:	89 04 24             	mov    %eax,(%esp)
    4741:	c7 44 24 0c 10 00 00 	movl   $0x10,0xc(%esp)
    4748:	00 
    4749:	c7 44 24 08 00 00 00 	movl   $0x0,0x8(%esp)
    4750:	00 
    4751:	c7 44 24 04 00 00 00 	movl   $0x0,0x4(%esp)
    4758:	00 
    4759:	e8 f2 13 00 00       	call   5b50 <font_init>
    475e:	89 5c 24 04          	mov    %ebx,0x4(%esp)
    4762:	8d 9d 4c ff ff ff    	lea    -0xb4(%ebp),%ebx
    4768:	89 1c 24             	mov    %ebx,(%esp)
    476b:	e8 d0 0e 00 00       	call   5640 <drawctx_init>
    4770:	89 7c 24 04          	mov    %edi,0x4(%esp)
    4774:	89 1c 24             	mov    %ebx,(%esp)
    4777:	e8 b4 10 00 00       	call   5830 <drawctx_set_source>
    477c:	8d 85 3c ff ff ff    	lea    -0xc4(%ebp),%eax
    4782:	89 44 24 04          	mov    %eax,0x4(%esp)
    4786:	89 1c 24             	mov    %ebx,(%esp)
    4789:	e8 b2 10 00 00       	call   5840 <drawctx_set_font>
    478e:	89 3c 24             	mov    %edi,(%esp)
    4791:	c7 44 24 04 00 00 00 	movl   $0xff000000,0x4(%esp)
    4798:	ff 
    4799:	e8 82 18 00 00       	call   6020 <source_set_color>
    479e:	8b 56 24             	mov    0x24(%esi),%edx
    47a1:	89 54 24 10          	mov    %edx,0x10(%esp)
    47a5:	8b 56 1c             	mov    0x1c(%esi),%edx
    47a8:	89 54 24 08          	mov    %edx,0x8(%esp)
    47ac:	8b 56 18             	mov    0x18(%esi),%edx
    47af:	89 54 24 04          	mov    %edx,0x4(%esp)
    47b3:	c7 44 24 0c 05 00 00 	movl   $0x5,0xc(%esp)
    47ba:	00 
    47bb:	89 1c 24             	mov    %ebx,(%esp)
    47be:	e8 8d 10 00 00       	call   5850 <drawctx_transfer>
    47c3:	8b 56 24             	mov    0x24(%esi),%edx
    47c6:	89 54 24 10          	mov    %edx,0x10(%esp)
    47ca:	8b 56 1c             	mov    0x1c(%esi),%edx
    47cd:	8b 46 20             	mov    0x20(%esi),%eax
    47d0:	89 54 24 08          	mov    %edx,0x8(%esp)
    47d4:	8b 56 18             	mov    0x18(%esi),%edx
    47d7:	c7 44 24 0c 05 00 00 	movl   $0x5,0xc(%esp)
    47de:	00 
    47df:	01 c2                	add    %eax,%edx
    47e1:	89 1c 24             	mov    %ebx,(%esp)
    47e4:	83 ea 05             	sub    $0x5,%edx
    47e7:	89 54 24 04          	mov    %edx,0x4(%esp)
    47eb:	e8 60 10 00 00       	call   5850 <drawctx_transfer>
    47f0:	8b 56 20             	mov    0x20(%esi),%edx
    47f3:	89 54 24 0c          	mov    %edx,0xc(%esp)
    47f7:	8b 56 1c             	mov    0x1c(%esi),%edx
    47fa:	89 54 24 08          	mov    %edx,0x8(%esp)
    47fe:	8b 56 18             	mov    0x18(%esi),%edx
    4801:	89 54 24 04          	mov    %edx,0x4(%esp)
    4805:	c7 44 24 10 05 00 00 	movl   $0x5,0x10(%esp)
    480c:	00 
    480d:	89 1c 24             	mov    %ebx,(%esp)
    4810:	e8 3b 10 00 00       	call   5850 <drawctx_transfer>
    4815:	8b 56 20             	mov    0x20(%esi),%edx
    4818:	8b 46 24             	mov    0x24(%esi),%eax
    481b:	89 54 24 0c          	mov    %edx,0xc(%esp)
    481f:	8b 56 1c             	mov    0x1c(%esi),%edx
    4822:	c7 44 24 10 05 00 00 	movl   $0x5,0x10(%esp)
    4829:	00 
    482a:	01 c2                	add    %eax,%edx
    482c:	89 1c 24             	mov    %ebx,(%esp)
    482f:	83 ea 05             	sub    $0x5,%edx
    4832:	89 54 24 08          	mov    %edx,0x8(%esp)
    4836:	8b 56 18             	mov    0x18(%esi),%edx
    4839:	89 54 24 04          	mov    %edx,0x4(%esp)
    483d:	e8 0e 10 00 00       	call   5850 <drawctx_transfer>
    4842:	8b 56 14             	mov    0x14(%esi),%edx
    4845:	80 7a 02 01          	cmpb   $0x1,0x2(%edx)
    4849:	19 d2                	sbb    %edx,%edx
    484b:	89 3c 24             	mov    %edi,(%esp)
    484e:	81 e2 44 69 2d 00    	and    $0x2d6944,%edx
    4854:	81 ea 90 e6 e6 00    	sub    $0xe6e690,%edx
    485a:	89 54 24 04          	mov    %edx,0x4(%esp)
    485e:	e8 bd 17 00 00       	call   6020 <source_set_color>
    4863:	8b 56 20             	mov    0x20(%esi),%edx
    4866:	83 ea 0a             	sub    $0xa,%edx
    4869:	c7 44 24 10 14 00 00 	movl   $0x14,0x10(%esp)
    4870:	00 
    4871:	89 54 24 0c          	mov    %edx,0xc(%esp)
    4875:	8b 56 1c             	mov    0x1c(%esi),%edx
    4878:	83 c2 05             	add    $0x5,%edx
    487b:	89 1c 24             	mov    %ebx,(%esp)
    487e:	89 54 24 08          	mov    %edx,0x8(%esp)
    4882:	8b 56 18             	mov    0x18(%esi),%edx
    4885:	83 c2 05             	add    $0x5,%edx
    4888:	89 54 24 04          	mov    %edx,0x4(%esp)
    488c:	e8 bf 0f 00 00       	call   5850 <drawctx_transfer>
    4891:	8d 95 30 ff ff ff    	lea    -0xd0(%ebp),%edx
    4897:	89 54 24 0c          	mov    %edx,0xc(%esp)
    489b:	8d 95 2c ff ff ff    	lea    -0xd4(%ebp),%edx
    48a1:	89 54 24 08          	mov    %edx,0x8(%esp)
    48a5:	8b 56 14             	mov    0x14(%esi),%edx
    48a8:	8d 85 3c ff ff ff    	lea    -0xc4(%ebp),%eax
    48ae:	8b 52 04             	mov    0x4(%edx),%edx
    48b1:	89 04 24             	mov    %eax,(%esp)
    48b4:	89 54 24 04          	mov    %edx,0x4(%esp)
    48b8:	e8 c3 13 00 00       	call   5c80 <font_get_box>
    48bd:	8d 95 38 ff ff ff    	lea    -0xc8(%ebp),%edx
    48c3:	8d 8d 2a ff ff ff    	lea    -0xd6(%ebp),%ecx
    48c9:	8d 85 3c ff ff ff    	lea    -0xc4(%ebp),%eax
    48cf:	89 54 24 0c          	mov    %edx,0xc(%esp)
    48d3:	8d 95 34 ff ff ff    	lea    -0xcc(%ebp),%edx
    48d9:	89 54 24 08          	mov    %edx,0x8(%esp)
    48dd:	89 4c 24 04          	mov    %ecx,0x4(%esp)
    48e1:	89 04 24             	mov    %eax,(%esp)
    48e4:	89 8d 24 ff ff ff    	mov    %ecx,-0xdc(%ebp)
    48ea:	66 c7 85 2a ff ff ff 	movw   $0x78,-0xd6(%ebp)
    48f1:	78 00 
    48f3:	e8 88 13 00 00       	call   5c80 <font_get_box>
    48f8:	89 3c 24             	mov    %edi,(%esp)
    48fb:	c7 44 24 04 ff ff ff 	movl   $0xffffffff,0x4(%esp)
    4902:	ff 
    4903:	e8 18 17 00 00       	call   6020 <source_set_color>
    4908:	b8 14 00 00 00       	mov    $0x14,%eax
    490d:	89 c2                	mov    %eax,%edx
    490f:	8b 8d 38 ff ff ff    	mov    -0xc8(%ebp),%ecx
    4915:	29 ca                	sub    %ecx,%edx
    4917:	8b 7e 1c             	mov    0x1c(%esi),%edi
    491a:	d1 ea                	shr    %edx
    491c:	8b 8d 34 ff ff ff    	mov    -0xcc(%ebp),%ecx
    4922:	89 1c 24             	mov    %ebx,(%esp)
    4925:	8d 54 17 05          	lea    0x5(%edi,%edx,1),%edx
    4929:	8b 7e 18             	mov    0x18(%esi),%edi
    492c:	89 54 24 0c          	mov    %edx,0xc(%esp)
    4930:	8b 56 20             	mov    0x20(%esi),%edx
    4933:	01 d7                	add    %edx,%edi
    4935:	89 c2                	mov    %eax,%edx
    4937:	29 ca                	sub    %ecx,%edx
    4939:	8b 8d 24 ff ff ff    	mov    -0xdc(%ebp),%ecx
    493f:	d1 ea                	shr    %edx
    4941:	89 4c 24 04          	mov    %ecx,0x4(%esp)
    4945:	89 85 24 ff ff ff    	mov    %eax,-0xdc(%ebp)
    494b:	8d 54 17 e7          	lea    -0x19(%edi,%edx,1),%edx
    494f:	89 54 24 08          	mov    %edx,0x8(%esp)
    4953:	e8 a8 11 00 00       	call   5b00 <drawctx_print>
    4958:	8b 95 2c ff ff ff    	mov    -0xd4(%ebp),%edx
    495e:	8b 4e 20             	mov    0x20(%esi),%ecx
    4961:	8d 7a 1e             	lea    0x1e(%edx),%edi
    4964:	39 f9                	cmp    %edi,%ecx
    4966:	8b 85 24 ff ff ff    	mov    -0xdc(%ebp),%eax
    496c:	72 3a                	jb     49a8 <paint_internal+0x2a8>
    496e:	29 d1                	sub    %edx,%ecx
    4970:	89 c7                	mov    %eax,%edi
    4972:	8b 85 30 ff ff ff    	mov    -0xd0(%ebp),%eax
    4978:	8b 56 18             	mov    0x18(%esi),%edx
    497b:	d1 e9                	shr    %ecx
    497d:	29 c7                	sub    %eax,%edi
    497f:	d1 ef                	shr    %edi
    4981:	01 d1                	add    %edx,%ecx
    4983:	8b 56 1c             	mov    0x1c(%esi),%edx
    4986:	8d 7c 3a 05          	lea    0x5(%edx,%edi,1),%edi
    498a:	8b 56 14             	mov    0x14(%esi),%edx
    498d:	8b 52 04             	mov    0x4(%edx),%edx
    4990:	85 d2                	test   %edx,%edx
    4992:	74 14                	je     49a8 <paint_internal+0x2a8>
    4994:	89 7c 24 0c          	mov    %edi,0xc(%esp)
    4998:	89 4c 24 08          	mov    %ecx,0x8(%esp)
    499c:	89 54 24 04          	mov    %edx,0x4(%esp)
    49a0:	89 1c 24             	mov    %ebx,(%esp)
    49a3:	e8 58 11 00 00       	call   5b00 <drawctx_print>
    49a8:	8d 85 3c ff ff ff    	lea    -0xc4(%ebp),%eax
    49ae:	89 04 24             	mov    %eax,(%esp)
    49b1:	e8 5a 12 00 00       	call   5c10 <font_release>
    49b6:	8b 46 14             	mov    0x14(%esi),%eax
    49b9:	05 90 00 00 00       	add    $0x90,%eax
    49be:	89 04 24             	mov    %eax,(%esp)
    49c1:	e8 1a a5 00 00       	call   eee0 <fibril_mutex_unlock>
    49c6:	81 c4 fc 00 00 00    	add    $0xfc,%esp
    49cc:	5b                   	pop    %ebx
    49cd:	5e                   	pop    %esi
    49ce:	5f                   	pop    %edi
    49cf:	5d                   	pop    %ebp
    49d0:	c3                   	ret    
    49d1:	8d b4 26 00 00 00 00 	lea    0x0(%esi,%eiz,1),%esi
    49d8:	8b 56 14             	mov    0x14(%esi),%edx
    49db:	81 c2 90 00 00 00    	add    $0x90,%edx
    49e1:	89 14 24             	mov    %edx,(%esp)
    49e4:	e8 f7 a4 00 00       	call   eee0 <fibril_mutex_unlock>
    49e9:	e9 3f fd ff ff       	jmp    472d <paint_internal+0x2d>
    49ee:	66 90                	xchg   %ax,%ax

000049f0 <root_rearrange>:
    49f0:	55                   	push   %ebp
    49f1:	89 e5                	mov    %esp,%ebp
    49f3:	57                   	push   %edi
    49f4:	56                   	push   %esi
    49f5:	53                   	push   %ebx
    49f6:	83 ec 3c             	sub    $0x3c,%esp
    49f9:	8b 45 10             	mov    0x10(%ebp),%eax
    49fc:	8b 4d 08             	mov    0x8(%ebp),%ecx
    49ff:	8b 75 14             	mov    0x14(%ebp),%esi
    4a02:	8b 7d 18             	mov    0x18(%ebp),%edi
    4a05:	89 44 24 08          	mov    %eax,0x8(%esp)
    4a09:	8b 45 0c             	mov    0xc(%ebp),%eax
    4a0c:	89 44 24 04          	mov    %eax,0x4(%esp)
    4a10:	89 0c 24             	mov    %ecx,(%esp)
    4a13:	89 7c 24 10          	mov    %edi,0x10(%esp)
    4a17:	89 74 24 0c          	mov    %esi,0xc(%esp)
    4a1b:	89 4d d8             	mov    %ecx,-0x28(%ebp)
    4a1e:	e8 ad f7 ff ff       	call   41d0 <widget_modify>
    4a23:	8b 4d d8             	mov    -0x28(%ebp),%ecx
    4a26:	8b 41 14             	mov    0x14(%ecx),%eax
    4a29:	80 78 01 00          	cmpb   $0x0,0x1(%eax)
    4a2d:	75 41                	jne    4a70 <root_rearrange+0x80>
    4a2f:	8b 59 10             	mov    0x10(%ecx),%ebx
    4a32:	83 c1 0c             	add    $0xc,%ecx
    4a35:	89 4d dc             	mov    %ecx,-0x24(%ebp)
    4a38:	39 cb                	cmp    %ecx,%ebx
    4a3a:	74 28                	je     4a64 <root_rearrange+0x74>
    4a3c:	8d 74 26 00          	lea    0x0(%esi,%eiz,1),%esi
    4a40:	8b 45 10             	mov    0x10(%ebp),%eax
    4a43:	89 1c 24             	mov    %ebx,(%esp)
    4a46:	89 44 24 08          	mov    %eax,0x8(%esp)
    4a4a:	8b 45 0c             	mov    0xc(%ebp),%eax
    4a4d:	89 7c 24 10          	mov    %edi,0x10(%esp)
    4a51:	89 74 24 0c          	mov    %esi,0xc(%esp)
    4a55:	89 44 24 04          	mov    %eax,0x4(%esp)
    4a59:	ff 53 48             	call   *0x48(%ebx)
    4a5c:	8b 5b 04             	mov    0x4(%ebx),%ebx
    4a5f:	3b 5d dc             	cmp    -0x24(%ebp),%ebx
    4a62:	75 dc                	jne    4a40 <root_rearrange+0x50>
    4a64:	83 c4 3c             	add    $0x3c,%esp
    4a67:	5b                   	pop    %ebx
    4a68:	5e                   	pop    %esi
    4a69:	5f                   	pop    %edi
    4a6a:	5d                   	pop    %ebp
    4a6b:	c3                   	ret    
    4a6c:	8d 74 26 00          	lea    0x0(%esi,%eiz,1),%esi
    4a70:	89 c8                	mov    %ecx,%eax
    4a72:	e8 89 fc ff ff       	call   4700 <paint_internal>
    4a77:	8b 4d d8             	mov    -0x28(%ebp),%ecx
    4a7a:	8b 59 10             	mov    0x10(%ecx),%ebx
    4a7d:	83 c1 0c             	add    $0xc,%ecx
    4a80:	89 4d dc             	mov    %ecx,-0x24(%ebp)
    4a83:	39 cb                	cmp    %ecx,%ebx
    4a85:	74 dd                	je     4a64 <root_rearrange+0x74>
    4a87:	8b 45 10             	mov    0x10(%ebp),%eax
    4a8a:	83 ef 1e             	sub    $0x1e,%edi
    4a8d:	83 c0 19             	add    $0x19,%eax
    4a90:	83 ee 0a             	sub    $0xa,%esi
    4a93:	89 45 e0             	mov    %eax,-0x20(%ebp)
    4a96:	8b 45 0c             	mov    0xc(%ebp),%eax
    4a99:	83 c0 05             	add    $0x5,%eax
    4a9c:	89 45 e4             	mov    %eax,-0x1c(%ebp)
    4a9f:	90                   	nop
    4aa0:	8b 45 e0             	mov    -0x20(%ebp),%eax
    4aa3:	89 1c 24             	mov    %ebx,(%esp)
    4aa6:	89 44 24 08          	mov    %eax,0x8(%esp)
    4aaa:	8b 45 e4             	mov    -0x1c(%ebp),%eax
    4aad:	89 7c 24 10          	mov    %edi,0x10(%esp)
    4ab1:	89 74 24 0c          	mov    %esi,0xc(%esp)
    4ab5:	89 44 24 04          	mov    %eax,0x4(%esp)
    4ab9:	ff 53 48             	call   *0x48(%ebx)
    4abc:	8b 5b 04             	mov    0x4(%ebx),%ebx
    4abf:	39 5d dc             	cmp    %ebx,-0x24(%ebp)
    4ac2:	75 dc                	jne    4aa0 <root_rearrange+0xb0>
    4ac4:	83 c4 3c             	add    $0x3c,%esp
    4ac7:	5b                   	pop    %ebx
    4ac8:	5e                   	pop    %esi
    4ac9:	5f                   	pop    %edi
    4aca:	5d                   	pop    %ebp
    4acb:	c3                   	ret    
    4acc:	8d 74 26 00          	lea    0x0(%esi,%eiz,1),%esi

00004ad0 <destroy_children>:
    4ad0:	55                   	push   %ebp
    4ad1:	89 e5                	mov    %esp,%ebp
    4ad3:	57                   	push   %edi
    4ad4:	56                   	push   %esi
    4ad5:	53                   	push   %ebx
    4ad6:	83 ec 5c             	sub    $0x5c,%esp
    4ad9:	89 45 c0             	mov    %eax,-0x40(%ebp)
    4adc:	8b 40 10             	mov    0x10(%eax),%eax
    4adf:	89 45 d4             	mov    %eax,-0x2c(%ebp)
    4ae2:	8b 45 c0             	mov    -0x40(%ebp),%eax
    4ae5:	83 c0 0c             	add    $0xc,%eax
    4ae8:	89 45 bc             	mov    %eax,-0x44(%ebp)
    4aeb:	39 45 d4             	cmp    %eax,-0x2c(%ebp)
    4aee:	0f 84 b7 01 00 00    	je     4cab <destroy_children+0x1db>
    4af4:	8b 45 d4             	mov    -0x2c(%ebp),%eax
    4af7:	8b 40 10             	mov    0x10(%eax),%eax
    4afa:	89 45 d0             	mov    %eax,-0x30(%ebp)
    4afd:	8b 45 d4             	mov    -0x2c(%ebp),%eax
    4b00:	83 c0 0c             	add    $0xc,%eax
    4b03:	89 45 ac             	mov    %eax,-0x54(%ebp)
    4b06:	39 45 d0             	cmp    %eax,-0x30(%ebp)
    4b09:	0f 84 7e 01 00 00    	je     4c8d <destroy_children+0x1bd>
    4b0f:	8b 45 d0             	mov    -0x30(%ebp),%eax
    4b12:	8b 40 10             	mov    0x10(%eax),%eax
    4b15:	89 45 cc             	mov    %eax,-0x34(%ebp)
    4b18:	8b 45 d0             	mov    -0x30(%ebp),%eax
    4b1b:	83 c0 0c             	add    $0xc,%eax
    4b1e:	89 45 b0             	mov    %eax,-0x50(%ebp)
    4b21:	39 45 cc             	cmp    %eax,-0x34(%ebp)
    4b24:	0f 84 45 01 00 00    	je     4c6f <destroy_children+0x19f>
    4b2a:	8b 45 cc             	mov    -0x34(%ebp),%eax
    4b2d:	8b 40 10             	mov    0x10(%eax),%eax
    4b30:	89 45 c8             	mov    %eax,-0x38(%ebp)
    4b33:	8b 45 cc             	mov    -0x34(%ebp),%eax
    4b36:	83 c0 0c             	add    $0xc,%eax
    4b39:	89 45 b4             	mov    %eax,-0x4c(%ebp)
    4b3c:	39 45 c8             	cmp    %eax,-0x38(%ebp)
    4b3f:	0f 84 0c 01 00 00    	je     4c51 <destroy_children+0x181>
    4b45:	8b 45 c8             	mov    -0x38(%ebp),%eax
    4b48:	8b 40 10             	mov    0x10(%eax),%eax
    4b4b:	89 45 c4             	mov    %eax,-0x3c(%ebp)
    4b4e:	8b 45 c8             	mov    -0x38(%ebp),%eax
    4b51:	83 c0 0c             	add    $0xc,%eax
    4b54:	89 45 b8             	mov    %eax,-0x48(%ebp)
    4b57:	39 45 c4             	cmp    %eax,-0x3c(%ebp)
    4b5a:	0f 84 d3 00 00 00    	je     4c33 <destroy_children+0x163>
    4b60:	8b 45 c4             	mov    -0x3c(%ebp),%eax
    4b63:	8b 40 10             	mov    0x10(%eax),%eax
    4b66:	89 45 dc             	mov    %eax,-0x24(%ebp)
    4b69:	8b 45 c4             	mov    -0x3c(%ebp),%eax
    4b6c:	83 c0 0c             	add    $0xc,%eax
    4b6f:	89 45 a8             	mov    %eax,-0x58(%ebp)
    4b72:	39 45 dc             	cmp    %eax,-0x24(%ebp)
    4b75:	0f 84 9a 00 00 00    	je     4c15 <destroy_children+0x145>
    4b7b:	8b 45 dc             	mov    -0x24(%ebp),%eax
    4b7e:	8b 40 10             	mov    0x10(%eax),%eax
    4b81:	89 45 e4             	mov    %eax,-0x1c(%ebp)
    4b84:	8b 45 dc             	mov    -0x24(%ebp),%eax
    4b87:	83 c0 0c             	add    $0xc,%eax
    4b8a:	89 45 d8             	mov    %eax,-0x28(%ebp)
    4b8d:	39 45 e4             	cmp    %eax,-0x1c(%ebp)
    4b90:	74 65                	je     4bf7 <destroy_children+0x127>
    4b92:	8b 45 e4             	mov    -0x1c(%ebp),%eax
    4b95:	8b 58 10             	mov    0x10(%eax),%ebx
    4b98:	83 c0 0c             	add    $0xc,%eax
    4b9b:	89 45 e0             	mov    %eax,-0x20(%ebp)
    4b9e:	39 c3                	cmp    %eax,%ebx
    4ba0:	74 3b                	je     4bdd <destroy_children+0x10d>
    4ba2:	8d b6 00 00 00 00    	lea    0x0(%esi),%esi
    4ba8:	8b 7b 10             	mov    0x10(%ebx),%edi
    4bab:	8d 73 0c             	lea    0xc(%ebx),%esi
    4bae:	39 f7                	cmp    %esi,%edi
    4bb0:	74 1a                	je     4bcc <destroy_children+0xfc>
    4bb2:	8d b6 00 00 00 00    	lea    0x0(%esi),%esi
    4bb8:	89 f8                	mov    %edi,%eax
    4bba:	e8 11 ff ff ff       	call   4ad0 <destroy_children>
    4bbf:	89 3c 24             	mov    %edi,(%esp)
    4bc2:	ff 57 40             	call   *0x40(%edi)
    4bc5:	8b 7b 10             	mov    0x10(%ebx),%edi
    4bc8:	39 f7                	cmp    %esi,%edi
    4bca:	75 ec                	jne    4bb8 <destroy_children+0xe8>
    4bcc:	89 1c 24             	mov    %ebx,(%esp)
    4bcf:	ff 53 40             	call   *0x40(%ebx)
    4bd2:	8b 45 e4             	mov    -0x1c(%ebp),%eax
    4bd5:	8b 58 10             	mov    0x10(%eax),%ebx
    4bd8:	3b 5d e0             	cmp    -0x20(%ebp),%ebx
    4bdb:	75 cb                	jne    4ba8 <destroy_children+0xd8>
    4bdd:	8b 45 e4             	mov    -0x1c(%ebp),%eax
    4be0:	89 04 24             	mov    %eax,(%esp)
    4be3:	ff 50 40             	call   *0x40(%eax)
    4be6:	8b 45 dc             	mov    -0x24(%ebp),%eax
    4be9:	8b 40 10             	mov    0x10(%eax),%eax
    4bec:	89 45 e4             	mov    %eax,-0x1c(%ebp)
    4bef:	8b 45 d8             	mov    -0x28(%ebp),%eax
    4bf2:	39 45 e4             	cmp    %eax,-0x1c(%ebp)
    4bf5:	75 9b                	jne    4b92 <destroy_children+0xc2>
    4bf7:	8b 45 dc             	mov    -0x24(%ebp),%eax
    4bfa:	89 04 24             	mov    %eax,(%esp)
    4bfd:	ff 50 40             	call   *0x40(%eax)
    4c00:	8b 45 c4             	mov    -0x3c(%ebp),%eax
    4c03:	8b 40 10             	mov    0x10(%eax),%eax
    4c06:	89 45 dc             	mov    %eax,-0x24(%ebp)
    4c09:	8b 45 a8             	mov    -0x58(%ebp),%eax
    4c0c:	39 45 dc             	cmp    %eax,-0x24(%ebp)
    4c0f:	0f 85 66 ff ff ff    	jne    4b7b <destroy_children+0xab>
    4c15:	8b 45 c4             	mov    -0x3c(%ebp),%eax
    4c18:	89 04 24             	mov    %eax,(%esp)
    4c1b:	ff 50 40             	call   *0x40(%eax)
    4c1e:	8b 45 c8             	mov    -0x38(%ebp),%eax
    4c21:	8b 40 10             	mov    0x10(%eax),%eax
    4c24:	89 45 c4             	mov    %eax,-0x3c(%ebp)
    4c27:	8b 45 b8             	mov    -0x48(%ebp),%eax
    4c2a:	39 45 c4             	cmp    %eax,-0x3c(%ebp)
    4c2d:	0f 85 2d ff ff ff    	jne    4b60 <destroy_children+0x90>
    4c33:	8b 45 c8             	mov    -0x38(%ebp),%eax
    4c36:	89 04 24             	mov    %eax,(%esp)
    4c39:	ff 50 40             	call   *0x40(%eax)
    4c3c:	8b 45 cc             	mov    -0x34(%ebp),%eax
    4c3f:	8b 40 10             	mov    0x10(%eax),%eax
    4c42:	89 45 c8             	mov    %eax,-0x38(%ebp)
    4c45:	8b 45 b4             	mov    -0x4c(%ebp),%eax
    4c48:	39 45 c8             	cmp    %eax,-0x38(%ebp)
    4c4b:	0f 85 f4 fe ff ff    	jne    4b45 <destroy_children+0x75>
    4c51:	8b 45 cc             	mov    -0x34(%ebp),%eax
    4c54:	89 04 24             	mov    %eax,(%esp)
    4c57:	ff 50 40             	call   *0x40(%eax)
    4c5a:	8b 45 d0             	mov    -0x30(%ebp),%eax
    4c5d:	8b 40 10             	mov    0x10(%eax),%eax
    4c60:	89 45 cc             	mov    %eax,-0x34(%ebp)
    4c63:	8b 45 b0             	mov    -0x50(%ebp),%eax
    4c66:	39 45 cc             	cmp    %eax,-0x34(%ebp)
    4c69:	0f 85 bb fe ff ff    	jne    4b2a <destroy_children+0x5a>
    4c6f:	8b 45 d0             	mov    -0x30(%ebp),%eax
    4c72:	89 04 24             	mov    %eax,(%esp)
    4c75:	ff 50 40             	call   *0x40(%eax)
    4c78:	8b 45 d4             	mov    -0x2c(%ebp),%eax
    4c7b:	8b 40 10             	mov    0x10(%eax),%eax
    4c7e:	89 45 d0             	mov    %eax,-0x30(%ebp)
    4c81:	8b 45 ac             	mov    -0x54(%ebp),%eax
    4c84:	39 45 d0             	cmp    %eax,-0x30(%ebp)
    4c87:	0f 85 82 fe ff ff    	jne    4b0f <destroy_children+0x3f>
    4c8d:	8b 45 d4             	mov    -0x2c(%ebp),%eax
    4c90:	89 04 24             	mov    %eax,(%esp)
    4c93:	ff 50 40             	call   *0x40(%eax)
    4c96:	8b 45 c0             	mov    -0x40(%ebp),%eax
    4c99:	8b 40 10             	mov    0x10(%eax),%eax
    4c9c:	89 45 d4             	mov    %eax,-0x2c(%ebp)
    4c9f:	8b 45 bc             	mov    -0x44(%ebp),%eax
    4ca2:	39 45 d4             	cmp    %eax,-0x2c(%ebp)
    4ca5:	0f 85 49 fe ff ff    	jne    4af4 <destroy_children+0x24>
    4cab:	83 c4 5c             	add    $0x5c,%esp
    4cae:	5b                   	pop    %ebx
    4caf:	5e                   	pop    %esi
    4cb0:	5f                   	pop    %edi
    4cb1:	5d                   	pop    %ebp
    4cb2:	c3                   	ret    
    4cb3:	8d b6 00 00 00 00    	lea    0x0(%esi),%esi
    4cb9:	8d bc 27 00 00 00 00 	lea    0x0(%edi,%eiz,1),%edi

00004cc0 <event_loop>:
    4cc0:	55                   	push   %ebp
    4cc1:	89 e5                	mov    %esp,%ebp
    4cc3:	57                   	push   %edi
    4cc4:	56                   	push   %esi
    4cc5:	53                   	push   %ebx
    4cc6:	81 ec 8c 00 00 00    	sub    $0x8c,%esp
    4ccc:	8b 55 08             	mov    0x8(%ebp),%edx
    4ccf:	83 c2 10             	add    $0x10,%edx
    4cd2:	89 55 a4             	mov    %edx,-0x5c(%ebp)
    4cd5:	8b 55 08             	mov    0x8(%ebp),%edx
    4cd8:	83 c2 30             	add    $0x30,%edx
    4cdb:	89 55 a0             	mov    %edx,-0x60(%ebp)
    4cde:	8b 55 08             	mov    0x8(%ebp),%edx
    4ce1:	81 c2 90 00 00 00    	add    $0x90,%edx
    4ce7:	89 55 9c             	mov    %edx,-0x64(%ebp)
    4cea:	8d b6 00 00 00 00    	lea    0x0(%esi),%esi
    4cf0:	8b 55 a4             	mov    -0x5c(%ebp),%edx
    4cf3:	89 14 24             	mov    %edx,(%esp)
    4cf6:	e8 75 9a 01 00       	call   1e770 <prodcons_consume>
    4cfb:	89 c3                	mov    %eax,%ebx
    4cfd:	83 78 08 08          	cmpl   $0x8,0x8(%eax)
    4d01:	0f 87 a9 00 00 00    	ja     4db0 <event_loop+0xf0>
    4d07:	8b 40 08             	mov    0x8(%eax),%eax
    4d0a:	ff 24 85 c8 4b 02 00 	jmp    *0x24bc8(,%eax,4)
    4d11:	8d b4 26 00 00 00 00 	lea    0x0(%esi,%eiz,1),%esi
    4d18:	8b 55 9c             	mov    -0x64(%ebp),%edx
    4d1b:	89 14 24             	mov    %edx,(%esp)
    4d1e:	e8 9d a0 00 00       	call   edc0 <fibril_mutex_lock>
    4d23:	8d 45 b4             	lea    -0x4c(%ebp),%eax
    4d26:	89 44 24 0c          	mov    %eax,0xc(%esp)
    4d2a:	8d 45 b0             	lea    -0x50(%ebp),%eax
    4d2d:	8d 4d b8             	lea    -0x48(%ebp),%ecx
    4d30:	89 44 24 08          	mov    %eax,0x8(%esp)
    4d34:	8b 55 08             	mov    0x8(%ebp),%edx
    4d37:	8d 45 ac             	lea    -0x54(%ebp),%eax
    4d3a:	89 4c 24 10          	mov    %ecx,0x10(%esp)
    4d3e:	89 44 24 04          	mov    %eax,0x4(%esp)
    4d42:	8b 82 a0 00 00 00    	mov    0xa0(%edx),%eax
    4d48:	89 04 24             	mov    %eax,(%esp)
    4d4b:	e8 70 17 00 00       	call   64c0 <surface_get_damaged_region>
    4d50:	8b 55 08             	mov    0x8(%ebp),%edx
    4d53:	8b 82 a0 00 00 00    	mov    0xa0(%edx),%eax
    4d59:	89 04 24             	mov    %eax,(%esp)
    4d5c:	e8 9f 18 00 00       	call   6600 <surface_reset_damaged_region>
    4d61:	8b 55 9c             	mov    -0x64(%ebp),%edx
    4d64:	89 14 24             	mov    %edx,(%esp)
    4d67:	e8 74 a1 00 00       	call   eee0 <fibril_mutex_unlock>
    4d6c:	8b 45 b4             	mov    -0x4c(%ebp),%eax
    4d6f:	85 c0                	test   %eax,%eax
    4d71:	74 3d                	je     4db0 <event_loop+0xf0>
    4d73:	8b 55 b8             	mov    -0x48(%ebp),%edx
    4d76:	85 d2                	test   %edx,%edx
    4d78:	74 36                	je     4db0 <event_loop+0xf0>
    4d7a:	89 44 24 0c          	mov    %eax,0xc(%esp)
    4d7e:	8b 45 b0             	mov    -0x50(%ebp),%eax
    4d81:	89 54 24 10          	mov    %edx,0x10(%esp)
    4d85:	89 44 24 08          	mov    %eax,0x8(%esp)
    4d89:	8b 55 08             	mov    0x8(%ebp),%edx
    4d8c:	8b 45 ac             	mov    -0x54(%ebp),%eax
    4d8f:	89 44 24 04          	mov    %eax,0x4(%esp)
    4d93:	8b 42 0c             	mov    0xc(%edx),%eax
    4d96:	89 04 24             	mov    %eax,(%esp)
    4d99:	e8 e2 0c 01 00       	call   15a80 <win_damage>
    4d9e:	eb 10                	jmp    4db0 <event_loop+0xf0>
    4da0:	8b 55 a0             	mov    -0x60(%ebp),%edx
    4da3:	89 14 24             	mov    %edx,(%esp)
    4da6:	8b 55 08             	mov    0x8(%ebp),%edx
    4da9:	ff 52 7c             	call   *0x7c(%edx)
    4dac:	8d 74 26 00          	lea    0x0(%esi,%eiz,1),%esi
    4db0:	89 1c 24             	mov    %ebx,(%esp)
    4db3:	e8 e8 32 01 00       	call   180a0 <free>
    4db8:	e9 33 ff ff ff       	jmp    4cf0 <event_loop+0x30>
    4dbd:	8d 76 00             	lea    0x0(%esi),%esi
    4dc0:	8b 73 0c             	mov    0xc(%ebx),%esi
    4dc3:	8b 7b 10             	mov    0x10(%ebx),%edi
    4dc6:	83 fe 31             	cmp    $0x31,%esi
    4dc9:	0f 86 91 03 00 00    	jbe    5160 <event_loop+0x4a0>
    4dcf:	83 ff 1d             	cmp    $0x1d,%edi
    4dd2:	0f 86 88 03 00 00    	jbe    5160 <event_loop+0x4a0>
    4dd8:	c7 44 24 0c 01 00 00 	movl   $0x1,0xc(%esp)
    4ddf:	00 
    4de0:	c7 44 24 08 00 00 00 	movl   $0x0,0x8(%esp)
    4de7:	00 
    4de8:	89 7c 24 04          	mov    %edi,0x4(%esp)
    4dec:	89 34 24             	mov    %esi,(%esp)
    4def:	e8 0c 15 00 00       	call   6300 <surface_create>
    4df4:	85 c0                	test   %eax,%eax
    4df6:	74 b8                	je     4db0 <event_loop+0xf0>
    4df8:	8b 55 9c             	mov    -0x64(%ebp),%edx
    4dfb:	89 45 94             	mov    %eax,-0x6c(%ebp)
    4dfe:	89 14 24             	mov    %edx,(%esp)
    4e01:	e8 ba 9f 00 00       	call   edc0 <fibril_mutex_lock>
    4e06:	8b 55 08             	mov    0x8(%ebp),%edx
    4e09:	8b 92 a0 00 00 00    	mov    0xa0(%edx),%edx
    4e0f:	8b 45 94             	mov    -0x6c(%ebp),%eax
    4e12:	89 55 98             	mov    %edx,-0x68(%ebp)
    4e15:	8b 55 08             	mov    0x8(%ebp),%edx
    4e18:	89 82 a0 00 00 00    	mov    %eax,0xa0(%edx)
    4e1e:	8b 55 9c             	mov    -0x64(%ebp),%edx
    4e21:	89 14 24             	mov    %edx,(%esp)
    4e24:	e8 b7 a0 00 00       	call   eee0 <fibril_mutex_unlock>
    4e29:	8b 55 a0             	mov    -0x60(%ebp),%edx
    4e2c:	89 14 24             	mov    %edx,(%esp)
    4e2f:	8b 55 08             	mov    0x8(%ebp),%edx
    4e32:	89 7c 24 10          	mov    %edi,0x10(%esp)
    4e36:	89 74 24 0c          	mov    %esi,0xc(%esp)
    4e3a:	c7 44 24 08 00 00 00 	movl   $0x0,0x8(%esp)
    4e41:	00 
    4e42:	c7 44 24 04 00 00 00 	movl   $0x0,0x4(%esp)
    4e49:	00 
    4e4a:	ff 52 78             	call   *0x78(%edx)
    4e4d:	8b 55 9c             	mov    -0x64(%ebp),%edx
    4e50:	89 14 24             	mov    %edx,(%esp)
    4e53:	e8 68 9f 00 00       	call   edc0 <fibril_mutex_lock>
    4e58:	8b 55 08             	mov    0x8(%ebp),%edx
    4e5b:	8b 8a a0 00 00 00    	mov    0xa0(%edx),%ecx
    4e61:	89 0c 24             	mov    %ecx,(%esp)
    4e64:	e8 97 17 00 00       	call   6600 <surface_reset_damaged_region>
    4e69:	8b 55 9c             	mov    -0x64(%ebp),%edx
    4e6c:	89 14 24             	mov    %edx,(%esp)
    4e6f:	e8 6c a0 00 00       	call   eee0 <fibril_mutex_unlock>
    4e74:	8b 45 94             	mov    -0x6c(%ebp),%eax
    4e77:	89 04 24             	mov    %eax,(%esp)
    4e7a:	e8 c1 15 00 00       	call   6440 <surface_direct_access>
    4e7f:	8b 55 08             	mov    0x8(%ebp),%edx
    4e82:	89 44 24 0c          	mov    %eax,0xc(%esp)
    4e86:	89 7c 24 08          	mov    %edi,0x8(%esp)
    4e8a:	89 74 24 04          	mov    %esi,0x4(%esp)
    4e8e:	8b 42 0c             	mov    0xc(%edx),%eax
    4e91:	89 04 24             	mov    %eax,(%esp)
    4e94:	e8 e7 0c 01 00       	call   15b80 <win_resize>
    4e99:	85 c0                	test   %eax,%eax
    4e9b:	0f 84 0f 03 00 00    	je     51b0 <event_loop+0x4f0>
    4ea1:	8b 45 98             	mov    -0x68(%ebp),%eax
    4ea4:	c7 45 b4 00 00 00 00 	movl   $0x0,-0x4c(%ebp)
    4eab:	c7 45 b8 00 00 00 00 	movl   $0x0,-0x48(%ebp)
    4eb2:	85 c0                	test   %eax,%eax
    4eb4:	74 19                	je     4ecf <event_loop+0x20f>
    4eb6:	8d 4d b8             	lea    -0x48(%ebp),%ecx
    4eb9:	8d 45 b4             	lea    -0x4c(%ebp),%eax
    4ebc:	8b 55 98             	mov    -0x68(%ebp),%edx
    4ebf:	89 4c 24 08          	mov    %ecx,0x8(%esp)
    4ec3:	89 44 24 04          	mov    %eax,0x4(%esp)
    4ec7:	89 14 24             	mov    %edx,(%esp)
    4eca:	e8 91 15 00 00       	call   6460 <surface_get_resolution>
    4ecf:	8b 55 9c             	mov    -0x64(%ebp),%edx
    4ed2:	89 14 24             	mov    %edx,(%esp)
    4ed5:	e8 e6 9e 00 00       	call   edc0 <fibril_mutex_lock>
    4eda:	8b 55 08             	mov    0x8(%ebp),%edx
    4edd:	8b 4d 98             	mov    -0x68(%ebp),%ecx
    4ee0:	8b b2 a0 00 00 00    	mov    0xa0(%edx),%esi
    4ee6:	89 8a a0 00 00 00    	mov    %ecx,0xa0(%edx)
    4eec:	8b 55 9c             	mov    -0x64(%ebp),%edx
    4eef:	89 14 24             	mov    %edx,(%esp)
    4ef2:	e8 e9 9f 00 00       	call   eee0 <fibril_mutex_unlock>
    4ef7:	8b 45 b8             	mov    -0x48(%ebp),%eax
    4efa:	8b 55 a0             	mov    -0x60(%ebp),%edx
    4efd:	89 44 24 10          	mov    %eax,0x10(%esp)
    4f01:	89 14 24             	mov    %edx,(%esp)
    4f04:	8b 45 b4             	mov    -0x4c(%ebp),%eax
    4f07:	8b 55 08             	mov    0x8(%ebp),%edx
    4f0a:	89 44 24 0c          	mov    %eax,0xc(%esp)
    4f0e:	c7 44 24 08 00 00 00 	movl   $0x0,0x8(%esp)
    4f15:	00 
    4f16:	c7 44 24 04 00 00 00 	movl   $0x0,0x4(%esp)
    4f1d:	00 
    4f1e:	ff 52 78             	call   *0x78(%edx)
    4f21:	8b 55 08             	mov    0x8(%ebp),%edx
    4f24:	8b ba a0 00 00 00    	mov    0xa0(%edx),%edi
    4f2a:	85 ff                	test   %edi,%edi
    4f2c:	74 27                	je     4f55 <event_loop+0x295>
    4f2e:	8b 55 9c             	mov    -0x64(%ebp),%edx
    4f31:	89 14 24             	mov    %edx,(%esp)
    4f34:	e8 87 9e 00 00       	call   edc0 <fibril_mutex_lock>
    4f39:	8b 55 08             	mov    0x8(%ebp),%edx
    4f3c:	8b 82 a0 00 00 00    	mov    0xa0(%edx),%eax
    4f42:	89 04 24             	mov    %eax,(%esp)
    4f45:	e8 b6 16 00 00       	call   6600 <surface_reset_damaged_region>
    4f4a:	8b 55 9c             	mov    -0x64(%ebp),%edx
    4f4d:	89 14 24             	mov    %edx,(%esp)
    4f50:	e8 8b 9f 00 00       	call   eee0 <fibril_mutex_unlock>
    4f55:	89 34 24             	mov    %esi,(%esp)
    4f58:	e8 93 14 00 00       	call   63f0 <surface_destroy>
    4f5d:	e9 4e fe ff ff       	jmp    4db0 <event_loop+0xf0>
    4f62:	8d b6 00 00 00 00    	lea    0x0(%esi),%esi
    4f68:	8b 55 08             	mov    0x8(%ebp),%edx
    4f6b:	80 7a 02 00          	cmpb   $0x0,0x2(%edx)
    4f6f:	0f 84 3b fe ff ff    	je     4db0 <event_loop+0xf0>
    4f75:	c6 42 02 00          	movb   $0x0,0x2(%edx)
    4f79:	8b 55 a0             	mov    -0x60(%ebp),%edx
    4f7c:	89 14 24             	mov    %edx,(%esp)
    4f7f:	8b 55 08             	mov    0x8(%ebp),%edx
    4f82:	ff 52 7c             	call   *0x7c(%edx)
    4f85:	e9 26 fe ff ff       	jmp    4db0 <event_loop+0xf0>
    4f8a:	8d b6 00 00 00 00    	lea    0x0(%esi),%esi
    4f90:	8b 55 08             	mov    0x8(%ebp),%edx
    4f93:	80 7a 02 00          	cmpb   $0x0,0x2(%edx)
    4f97:	0f 85 13 fe ff ff    	jne    4db0 <event_loop+0xf0>
    4f9d:	c6 42 02 01          	movb   $0x1,0x2(%edx)
    4fa1:	8b 55 a0             	mov    -0x60(%ebp),%edx
    4fa4:	89 14 24             	mov    %edx,(%esp)
    4fa7:	8b 55 08             	mov    0x8(%ebp),%edx
    4faa:	ff 52 7c             	call   *0x7c(%edx)
    4fad:	e9 fe fd ff ff       	jmp    4db0 <event_loop+0xf0>
    4fb2:	8d b6 00 00 00 00    	lea    0x0(%esi),%esi
    4fb8:	8b 73 14             	mov    0x14(%ebx),%esi
    4fbb:	89 74 24 04          	mov    %esi,0x4(%esp)
    4fbf:	8b 43 0c             	mov    0xc(%ebx),%eax
    4fc2:	89 04 24             	mov    %eax,(%esp)
    4fc5:	ff 53 10             	call   *0x10(%ebx)
    4fc8:	89 34 24             	mov    %esi,(%esp)
    4fcb:	e8 d0 30 01 00       	call   180a0 <free>
    4fd0:	e9 db fd ff ff       	jmp    4db0 <event_loop+0xf0>
    4fd5:	8d 76 00             	lea    0x0(%esi),%esi
    4fd8:	8b 55 08             	mov    0x8(%ebp),%edx
    4fdb:	80 7a 02 00          	cmpb   $0x0,0x2(%edx)
    4fdf:	0f 84 b3 01 00 00    	je     5198 <event_loop+0x4d8>
    4fe5:	8b 4b 14             	mov    0x14(%ebx),%ecx
    4fe8:	8b 43 18             	mov    0x18(%ebx),%eax
    4feb:	89 4d 90             	mov    %ecx,-0x70(%ebp)
    4fee:	89 4d c4             	mov    %ecx,-0x3c(%ebp)
    4ff1:	8b 4d 08             	mov    0x8(%ebp),%ecx
    4ff4:	8b 7b 0c             	mov    0xc(%ebx),%edi
    4ff7:	8b 73 10             	mov    0x10(%ebx),%esi
    4ffa:	8b 53 1c             	mov    0x1c(%ebx),%edx
    4ffd:	89 45 98             	mov    %eax,-0x68(%ebp)
    5000:	89 45 c8             	mov    %eax,-0x38(%ebp)
    5003:	8b 81 88 00 00 00    	mov    0x88(%ecx),%eax
    5009:	89 7d bc             	mov    %edi,-0x44(%ebp)
    500c:	89 75 c0             	mov    %esi,-0x40(%ebp)
    500f:	89 55 cc             	mov    %edx,-0x34(%ebp)
    5012:	89 7c 24 04          	mov    %edi,0x4(%esp)
    5016:	89 74 24 08          	mov    %esi,0x8(%esp)
    501a:	85 c0                	test   %eax,%eax
    501c:	0f 84 c6 01 00 00    	je     51e8 <event_loop+0x528>
    5022:	8b 4d 90             	mov    -0x70(%ebp),%ecx
    5025:	89 54 24 14          	mov    %edx,0x14(%esp)
    5029:	89 4c 24 0c          	mov    %ecx,0xc(%esp)
    502d:	8b 4d 98             	mov    -0x68(%ebp),%ecx
    5030:	89 4c 24 10          	mov    %ecx,0x10(%esp)
    5034:	89 04 24             	mov    %eax,(%esp)
    5037:	ff 50 54             	call   *0x54(%eax)
    503a:	e9 71 fd ff ff       	jmp    4db0 <event_loop+0xf0>
    503f:	90                   	nop
    5040:	8b 55 08             	mov    0x8(%ebp),%edx
    5043:	8b 45 a0             	mov    -0x60(%ebp),%eax
    5046:	0f b6 3a             	movzbl (%edx),%edi
    5049:	e8 82 fa ff ff       	call   4ad0 <destroy_children>
    504e:	8b 55 a0             	mov    -0x60(%ebp),%edx
    5051:	89 14 24             	mov    %edx,(%esp)
    5054:	8b 55 08             	mov    0x8(%ebp),%edx
    5057:	ff 52 70             	call   *0x70(%edx)
    505a:	8b 55 08             	mov    0x8(%ebp),%edx
    505d:	8b 42 0c             	mov    0xc(%edx),%eax
    5060:	c7 82 88 00 00 00 00 	movl   $0x0,0x88(%edx)
    5067:	00 00 00 
    506a:	c7 82 8c 00 00 00 00 	movl   $0x0,0x8c(%edx)
    5071:	00 00 00 
    5074:	89 04 24             	mov    %eax,(%esp)
    5077:	e8 a4 0b 01 00       	call   15c20 <win_close>
    507c:	8b 55 08             	mov    0x8(%ebp),%edx
    507f:	8b 42 08             	mov    0x8(%edx),%eax
    5082:	89 04 24             	mov    %eax,(%esp)
    5085:	e8 46 63 01 00       	call   1b3d0 <async_hangup>
    508a:	8b 55 08             	mov    0x8(%ebp),%edx
    508d:	8b 42 0c             	mov    0xc(%edx),%eax
    5090:	89 04 24             	mov    %eax,(%esp)
    5093:	e8 38 63 01 00       	call   1b3d0 <async_hangup>
    5098:	8b 55 08             	mov    0x8(%ebp),%edx
    509b:	89 d6                	mov    %edx,%esi
    509d:	8b 42 2c             	mov    0x2c(%edx),%eax
    50a0:	83 c6 28             	add    $0x28,%esi
    50a3:	39 f0                	cmp    %esi,%eax
